GAS LISTING /tmp/ccpQE5XM.s 			page 1


   1              		.file	"Main.cpp"
   2              		.option pic
   3              		.option norelax
   4              		.text
   5              	.Ltext0:
   6              		.align	2
   7              		.globl	_Z7syscallP4args
   9              	_Z7syscallP4args:
  10              	.LFB30:
  11              		.file 1 "src/../h/syscall_c.h"
   1:src/../h/syscall_c.h **** //
   2:src/../h/syscall_c.h **** // Created by os on 6/19/22.
   3:src/../h/syscall_c.h **** //
   4:src/../h/syscall_c.h **** 
   5:src/../h/syscall_c.h **** #ifndef PROJECT_BASE_V1_1_SYSCALL_C_H
   6:src/../h/syscall_c.h **** #define PROJECT_BASE_V1_1_SYSCALL_C_H
   7:src/../h/syscall_c.h **** 
   8:src/../h/syscall_c.h **** 
   9:src/../h/syscall_c.h **** #include "../h/MemoryAllocator.hpp"
  10:src/../h/syscall_c.h **** 
  11:src/../h/syscall_c.h **** 
  12:src/../h/syscall_c.h **** 
  13:src/../h/syscall_c.h **** //extern "C" void supervisorTrap();
  14:src/../h/syscall_c.h **** 
  15:src/../h/syscall_c.h **** struct args{
  16:src/../h/syscall_c.h ****     uint64 a0;
  17:src/../h/syscall_c.h ****     uint64 a1;
  18:src/../h/syscall_c.h ****     uint64 a2;
  19:src/../h/syscall_c.h ****     uint64 a3;
  20:src/../h/syscall_c.h **** 
  21:src/../h/syscall_c.h **** };
  22:src/../h/syscall_c.h **** 
  23:src/../h/syscall_c.h **** void syscall(args* arg){
  12              		.loc 1 23 24
  13              		.cfi_startproc
  14              	.LVL0:
  15 0000 130101FF 		addi	sp,sp,-16
  16              		.cfi_def_cfa_offset 16
  17 0004 23348100 		sd	s0,8(sp)
  18              		.cfi_offset 8, -8
  19 0008 13040101 		addi	s0,sp,16
  20              		.cfi_def_cfa 8, 0
  24:src/../h/syscall_c.h ****     //should prepare arguments in registers
  25:src/../h/syscall_c.h ****     //should call interrupt routine with ecall
  26:src/../h/syscall_c.h **** 
  27:src/../h/syscall_c.h **** 
  28:src/../h/syscall_c.h ****     uint64 arg0 = arg->a0;
  21              		.loc 1 28 5
  22              		.loc 1 28 12 is_stmt 0
  23 000c 03360500 		ld	a2,0(a0)
  24              	.LVL1:
  29:src/../h/syscall_c.h ****     uint64 arg1 = arg->a1;
  25              		.loc 1 29 5 is_stmt 1
  26              		.loc 1 29 12 is_stmt 0
  27 0010 83368500 		ld	a3,8(a0)
  28              	.LVL2:
  30:src/../h/syscall_c.h ****     uint64 arg2 = arg->a2;
GAS LISTING /tmp/ccpQE5XM.s 			page 2


  29              		.loc 1 30 5 is_stmt 1
  30              		.loc 1 30 12 is_stmt 0
  31 0014 03370501 		ld	a4,16(a0)
  32              	.LVL3:
  31:src/../h/syscall_c.h ****     uint64 arg3 = arg->a3;
  33              		.loc 1 31 5 is_stmt 1
  34              		.loc 1 31 12 is_stmt 0
  35 0018 83378501 		ld	a5,24(a0)
  36              	.LVL4:
  32:src/../h/syscall_c.h **** 
  33:src/../h/syscall_c.h ****     //lock this section?
  34:src/../h/syscall_c.h ****     __asm__ volatile("mv a0, %0" : : "r" (arg0));
  37              		.loc 1 34 5 is_stmt 1
  38              		.loc 1 34 49 is_stmt 0
  39              	#APP
  40              	# 34 "src/../h/syscall_c.h" 1
  35              	    __asm__ volatile("mv a1, %0" : : "r" (arg1));
  41              		mv a0, a2
  42              	# 0 "" 2
  43              		.loc 1 35 5 is_stmt 1
  44              		.loc 1 35 49 is_stmt 0
  45              	# 35 "src/../h/syscall_c.h" 1
  36              	    __asm__ volatile("mv a2, %0" : : "r" (arg2));
  46              		mv a1, a3
  47              	# 0 "" 2
  48              		.loc 1 36 5 is_stmt 1
  49              		.loc 1 36 49 is_stmt 0
  50              	# 36 "src/../h/syscall_c.h" 1
  37              	    __asm__ volatile("mv a3, %0" : : "r" (arg3));
  51              		mv a2, a4
  52              	# 0 "" 2
  53              		.loc 1 37 5 is_stmt 1
  54              		.loc 1 37 49 is_stmt 0
  55              	# 37 "src/../h/syscall_c.h" 1
  38              	
  39:src/../h/syscall_c.h **** 
  40:src/../h/syscall_c.h **** 
  41:src/../h/syscall_c.h **** //    Riscv::ms_sstatus(Riscv::SSTATUS_SIE);
  42:src/../h/syscall_c.h ****     __asm__ volatile ("ecall");
  56              		mv a3, a5
  57              	# 0 "" 2
  58              		.loc 1 42 5 is_stmt 1
  59              		.loc 1 42 31 is_stmt 0
  60              	# 42 "src/../h/syscall_c.h" 1
  43              	
  44:src/../h/syscall_c.h **** 
  45:src/../h/syscall_c.h **** }
  61              		ecall
  62              	# 0 "" 2
  63              		.loc 1 45 1
  64              	#NO_APP
  65 0030 03348100 		ld	s0,8(sp)
  66              		.cfi_restore 8
  67              		.cfi_def_cfa 2, 16
  68 0034 13010101 		addi	sp,sp,16
  69              		.cfi_def_cfa_offset 0
  70 0038 67800000 		jr	ra
GAS LISTING /tmp/ccpQE5XM.s 			page 3


  71              		.cfi_endproc
  72              	.LFE30:
  74              		.align	2
  75              		.globl	_Z9mem_allocm
  77              	_Z9mem_allocm:
  78              	.LFB31:
  46:src/../h/syscall_c.h **** 
  47:src/../h/syscall_c.h **** void* mem_alloc (size_t size){
  79              		.loc 1 47 30 is_stmt 1
  80              		.cfi_startproc
  81              	.LVL5:
  82 003c 130101FD 		addi	sp,sp,-48
  83              		.cfi_def_cfa_offset 48
  84 0040 23341102 		sd	ra,40(sp)
  85 0044 23308102 		sd	s0,32(sp)
  86              		.cfi_offset 1, -8
  87              		.cfi_offset 8, -16
  88 0048 13040103 		addi	s0,sp,48
  89              		.cfi_def_cfa 8, 0
  48:src/../h/syscall_c.h ****     //prepares parameters to arguments
  49:src/../h/syscall_c.h ****     //executes system call instruction
  50:src/../h/syscall_c.h ****     args arg;
  90              		.loc 1 50 5
  51:src/../h/syscall_c.h ****     arg.a0=0x01;
  91              		.loc 1 51 5
  92              		.loc 1 51 11 is_stmt 0
  93 004c 93071000 		li	a5,1
  94 0050 2338F4FC 		sd	a5,-48(s0)
  52:src/../h/syscall_c.h **** 
  53:src/../h/syscall_c.h ****     size_t blocks = size/MEM_BLOCK_SIZE;
  95              		.loc 1 53 5 is_stmt 1
  96              		.loc 1 53 12 is_stmt 0
  97 0054 93576500 		srli	a5,a0,6
  98              	.LVL6:
  54:src/../h/syscall_c.h ****     if(size%MEM_BLOCK_SIZE!=0)blocks++;
  99              		.loc 1 54 5 is_stmt 1
 100              		.loc 1 54 12 is_stmt 0
 101 0058 1375F503 		andi	a0,a0,63
 102              	.LVL7:
 103              		.loc 1 54 5
 104 005c 63040500 		beqz	a0,.L4
 105              		.loc 1 54 31 is_stmt 1 discriminator 1
 106              		.loc 1 54 37 is_stmt 0 discriminator 1
 107 0060 93871700 		addi	a5,a5,1
 108              	.LVL8:
 109              	.L4:
  55:src/../h/syscall_c.h ****     arg.a1=blocks;
 110              		.loc 1 55 5 is_stmt 1
 111              		.loc 1 55 11 is_stmt 0
 112 0064 233CF4FC 		sd	a5,-40(s0)
  56:src/../h/syscall_c.h **** 
  57:src/../h/syscall_c.h ****     syscall(&arg);
 113              		.loc 1 57 5 is_stmt 1
 114              		.loc 1 57 12 is_stmt 0
 115 0068 130504FD 		addi	a0,s0,-48
 116 006c 97000000 		call	_Z7syscallP4args
 116      E7800000 
GAS LISTING /tmp/ccpQE5XM.s 			page 4


 117              	.LVL9:
  58:src/../h/syscall_c.h **** 
  59:src/../h/syscall_c.h ****     uint64 ret;
 118              		.loc 1 59 5 is_stmt 1
  60:src/../h/syscall_c.h ****     __asm__ volatile("mv %0, a0" : "=r" (ret));
 119              		.loc 1 60 5
 120              		.loc 1 60 47 is_stmt 0
 121              	#APP
 122              	# 60 "src/../h/syscall_c.h" 1
  61              	
 123              		mv a0, a0
 124              	# 0 "" 2
 125              	.LVL10:
  62:src/../h/syscall_c.h ****     return (void*)ret;
 126              		.loc 1 62 5 is_stmt 1
  63:src/../h/syscall_c.h **** }
 127              		.loc 1 63 1 is_stmt 0
 128              	#NO_APP
 129 0078 83308102 		ld	ra,40(sp)
 130              		.cfi_restore 1
 131 007c 03340102 		ld	s0,32(sp)
 132              		.cfi_restore 8
 133              		.cfi_def_cfa 2, 48
 134 0080 13010103 		addi	sp,sp,48
 135              		.cfi_def_cfa_offset 0
 136 0084 67800000 		jr	ra
 137              		.cfi_endproc
 138              	.LFE31:
 140              		.align	2
 141              		.globl	_Z8mem_freePv
 143              	_Z8mem_freePv:
 144              	.LFB32:
  64:src/../h/syscall_c.h **** 
  65:src/../h/syscall_c.h **** int mem_free (void* p){
 145              		.loc 1 65 23 is_stmt 1
 146              		.cfi_startproc
 147              	.LVL11:
 148 0088 130101FD 		addi	sp,sp,-48
 149              		.cfi_def_cfa_offset 48
 150 008c 23341102 		sd	ra,40(sp)
 151 0090 23308102 		sd	s0,32(sp)
 152              		.cfi_offset 1, -8
 153              		.cfi_offset 8, -16
 154 0094 13040103 		addi	s0,sp,48
 155              		.cfi_def_cfa 8, 0
  66:src/../h/syscall_c.h ****     args arg;
 156              		.loc 1 66 5
  67:src/../h/syscall_c.h ****     arg.a0=0x02;
 157              		.loc 1 67 5
 158              		.loc 1 67 11 is_stmt 0
 159 0098 93072000 		li	a5,2
 160 009c 2338F4FC 		sd	a5,-48(s0)
  68:src/../h/syscall_c.h ****     arg.a1=(uint64)p;
 161              		.loc 1 68 5 is_stmt 1
 162              		.loc 1 68 11 is_stmt 0
 163 00a0 233CA4FC 		sd	a0,-40(s0)
  69:src/../h/syscall_c.h **** 
GAS LISTING /tmp/ccpQE5XM.s 			page 5


  70:src/../h/syscall_c.h ****     syscall(&arg);
 164              		.loc 1 70 5 is_stmt 1
 165              		.loc 1 70 12 is_stmt 0
 166 00a4 130504FD 		addi	a0,s0,-48
 167              	.LVL12:
 168 00a8 97000000 		call	_Z7syscallP4args
 168      E7800000 
 169              	.LVL13:
  71:src/../h/syscall_c.h ****     uint64 ret;
 170              		.loc 1 71 5 is_stmt 1
  72:src/../h/syscall_c.h ****     __asm__ volatile("mv %0, a0" : "=r" (ret));
 171              		.loc 1 72 5
 172              		.loc 1 72 47 is_stmt 0
 173              	#APP
 174              	# 72 "src/../h/syscall_c.h" 1
  73              	    return (int)ret;
 175              		mv a0, a0
 176              	# 0 "" 2
 177              	.LVL14:
 178              		.loc 1 73 5 is_stmt 1
  74:src/../h/syscall_c.h **** }
 179              		.loc 1 74 1 is_stmt 0
 180              	#NO_APP
 181 00b4 1B050500 		sext.w	a0,a0
 182              	.LVL15:
 183 00b8 83308102 		ld	ra,40(sp)
 184              		.cfi_restore 1
 185 00bc 03340102 		ld	s0,32(sp)
 186              		.cfi_restore 8
 187              		.cfi_def_cfa 2, 48
 188 00c0 13010103 		addi	sp,sp,48
 189              		.cfi_def_cfa_offset 0
 190 00c4 67800000 		jr	ra
 191              		.cfi_endproc
 192              	.LFE32:
 194              		.align	2
 195              		.globl	_Z13thread_createPP7_threadPFvPvES2_
 197              	_Z13thread_createPP7_threadPFvPvES2_:
 198              	.LFB33:
  75:src/../h/syscall_c.h **** 
  76:src/../h/syscall_c.h **** class _thread;
  77:src/../h/syscall_c.h **** typedef _thread* thread_t;  //thread_t je pokazivac, a handle je pokazivac na pokazivac tipa _threa
  78:src/../h/syscall_c.h **** int thread_create (
  79:src/../h/syscall_c.h ****         thread_t* handle,
  80:src/../h/syscall_c.h ****         void(*start_routine)(void*),
  81:src/../h/syscall_c.h ****         void* arg
  82:src/../h/syscall_c.h **** ){
 199              		.loc 1 82 2 is_stmt 1
 200              		.cfi_startproc
 201              	.LVL16:
 202 00c8 130101FD 		addi	sp,sp,-48
 203              		.cfi_def_cfa_offset 48
 204 00cc 23341102 		sd	ra,40(sp)
 205 00d0 23308102 		sd	s0,32(sp)
 206              		.cfi_offset 1, -8
 207              		.cfi_offset 8, -16
 208 00d4 13040103 		addi	s0,sp,48
GAS LISTING /tmp/ccpQE5XM.s 			page 6


 209              		.cfi_def_cfa 8, 0
  83:src/../h/syscall_c.h ****     args myArgs;
 210              		.loc 1 83 5
  84:src/../h/syscall_c.h ****     myArgs.a0=0x11;
 211              		.loc 1 84 5
 212              		.loc 1 84 14 is_stmt 0
 213 00d8 93071001 		li	a5,17
 214 00dc 2338F4FC 		sd	a5,-48(s0)
  85:src/../h/syscall_c.h ****     myArgs.a1=(uint64)handle;   //on address handle there is thread_t adress
 215              		.loc 1 85 5 is_stmt 1
 216              		.loc 1 85 14 is_stmt 0
 217 00e0 233CA4FC 		sd	a0,-40(s0)
  86:src/../h/syscall_c.h ****     myArgs.a2=(uint64)start_routine;
 218              		.loc 1 86 5 is_stmt 1
 219              		.loc 1 86 14 is_stmt 0
 220 00e4 2330B4FE 		sd	a1,-32(s0)
  87:src/../h/syscall_c.h ****     myArgs.a3=(uint64)arg;
 221              		.loc 1 87 5 is_stmt 1
 222              		.loc 1 87 14 is_stmt 0
 223 00e8 2334C4FE 		sd	a2,-24(s0)
  88:src/../h/syscall_c.h **** 
  89:src/../h/syscall_c.h ****     syscall(&myArgs);
 224              		.loc 1 89 5 is_stmt 1
 225              		.loc 1 89 12 is_stmt 0
 226 00ec 130504FD 		addi	a0,s0,-48
 227              	.LVL17:
 228 00f0 97000000 		call	_Z7syscallP4args
 228      E7800000 
 229              	.LVL18:
  90:src/../h/syscall_c.h ****     uint64 ret;
 230              		.loc 1 90 5 is_stmt 1
  91:src/../h/syscall_c.h ****     __asm__ volatile("mv %0, a0" : "=r" (ret)); //the ret value is future handle
 231              		.loc 1 91 5
 232              		.loc 1 91 47 is_stmt 0
 233              	#APP
 234              	# 91 "src/../h/syscall_c.h" 1
  92              	
 235              		mv a0, a0
 236              	# 0 "" 2
 237              	.LVL19:
  93:src/../h/syscall_c.h ****     return ret;
 238              		.loc 1 93 5 is_stmt 1
  94:src/../h/syscall_c.h **** 
  95:src/../h/syscall_c.h **** 
  96:src/../h/syscall_c.h **** }
 239              		.loc 1 96 1 is_stmt 0
 240              	#NO_APP
 241 00fc 1B050500 		sext.w	a0,a0
 242              	.LVL20:
 243 0100 83308102 		ld	ra,40(sp)
 244              		.cfi_restore 1
 245 0104 03340102 		ld	s0,32(sp)
 246              		.cfi_restore 8
 247              		.cfi_def_cfa 2, 48
 248 0108 13010103 		addi	sp,sp,48
 249              		.cfi_def_cfa_offset 0
 250 010c 67800000 		jr	ra
GAS LISTING /tmp/ccpQE5XM.s 			page 7


 251              		.cfi_endproc
 252              	.LFE33:
 254              		.align	2
 255              		.globl	_Z11thread_exitv
 257              	_Z11thread_exitv:
 258              	.LFB34:
  97:src/../h/syscall_c.h **** 
  98:src/../h/syscall_c.h **** int thread_exit (){
 259              		.loc 1 98 19 is_stmt 1
 260              		.cfi_startproc
 261 0110 130101FD 		addi	sp,sp,-48
 262              		.cfi_def_cfa_offset 48
 263 0114 23341102 		sd	ra,40(sp)
 264 0118 23308102 		sd	s0,32(sp)
 265              		.cfi_offset 1, -8
 266              		.cfi_offset 8, -16
 267 011c 13040103 		addi	s0,sp,48
 268              		.cfi_def_cfa 8, 0
  99:src/../h/syscall_c.h ****     args myArgs;
 269              		.loc 1 99 5
 100:src/../h/syscall_c.h ****     myArgs.a0=0x12;
 270              		.loc 1 100 5
 271              		.loc 1 100 14 is_stmt 0
 272 0120 93072001 		li	a5,18
 273 0124 2338F4FC 		sd	a5,-48(s0)
 101:src/../h/syscall_c.h **** 
 102:src/../h/syscall_c.h ****     syscall(&myArgs);
 274              		.loc 1 102 5 is_stmt 1
 275              		.loc 1 102 12 is_stmt 0
 276 0128 130504FD 		addi	a0,s0,-48
 277 012c 97000000 		call	_Z7syscallP4args
 277      E7800000 
 278              	.LVL21:
 103:src/../h/syscall_c.h **** 
 104:src/../h/syscall_c.h ****     return 0;
 279              		.loc 1 104 5 is_stmt 1
 105:src/../h/syscall_c.h **** }
 280              		.loc 1 105 1 is_stmt 0
 281 0134 13050000 		li	a0,0
 282 0138 83308102 		ld	ra,40(sp)
 283              		.cfi_restore 1
 284 013c 03340102 		ld	s0,32(sp)
 285              		.cfi_restore 8
 286              		.cfi_def_cfa 2, 48
 287 0140 13010103 		addi	sp,sp,48
 288              		.cfi_def_cfa_offset 0
 289 0144 67800000 		jr	ra
 290              		.cfi_endproc
 291              	.LFE34:
 293              		.align	2
 294              		.globl	_Z15thread_dispatchv
 296              	_Z15thread_dispatchv:
 297              	.LFB35:
 106:src/../h/syscall_c.h **** 
 107:src/../h/syscall_c.h **** 
 108:src/../h/syscall_c.h **** void thread_dispatch (){
 298              		.loc 1 108 24 is_stmt 1
GAS LISTING /tmp/ccpQE5XM.s 			page 8


 299              		.cfi_startproc
 300 0148 130101FD 		addi	sp,sp,-48
 301              		.cfi_def_cfa_offset 48
 302 014c 23341102 		sd	ra,40(sp)
 303 0150 23308102 		sd	s0,32(sp)
 304              		.cfi_offset 1, -8
 305              		.cfi_offset 8, -16
 306 0154 13040103 		addi	s0,sp,48
 307              		.cfi_def_cfa 8, 0
 109:src/../h/syscall_c.h ****     args myArgs;
 308              		.loc 1 109 5
 110:src/../h/syscall_c.h ****     myArgs.a0=0x13;
 309              		.loc 1 110 5
 310              		.loc 1 110 14 is_stmt 0
 311 0158 93073001 		li	a5,19
 312 015c 2338F4FC 		sd	a5,-48(s0)
 111:src/../h/syscall_c.h **** 
 112:src/../h/syscall_c.h ****     syscall(&myArgs);
 313              		.loc 1 112 5 is_stmt 1
 314              		.loc 1 112 12 is_stmt 0
 315 0160 130504FD 		addi	a0,s0,-48
 316 0164 97000000 		call	_Z7syscallP4args
 316      E7800000 
 317              	.LVL22:
 113:src/../h/syscall_c.h **** 
 114:src/../h/syscall_c.h **** 
 115:src/../h/syscall_c.h **** }
 318              		.loc 1 115 1
 319 016c 83308102 		ld	ra,40(sp)
 320              		.cfi_restore 1
 321 0170 03340102 		ld	s0,32(sp)
 322              		.cfi_restore 8
 323              		.cfi_def_cfa 2, 48
 324 0174 13010103 		addi	sp,sp,48
 325              		.cfi_def_cfa_offset 0
 326 0178 67800000 		jr	ra
 327              		.cfi_endproc
 328              	.LFE35:
 330              		.section	.rodata.str1.8,"aMS",@progbits,1
 331              		.align	3
 332              	.LC0:
 333 0000 74687265 		.string	"thread created"
 333      61642063 
 333      72656174 
 333      656400
 334 000f 00       		.align	3
 335              	.LC1:
 336 0010 66696E69 		.string	"finished \n"
 336      73686564 
 336      200A00
 337              		.text
 338              		.align	2
 339              		.globl	main
 341              	main:
 342              	.LFB48:
 343              		.file 2 "src/Main.cpp"
   1:src/Main.cpp  **** //
GAS LISTING /tmp/ccpQE5XM.s 			page 9


   2:src/Main.cpp  **** // Created by os on 6/18/22.
   3:src/Main.cpp  **** //
   4:src/Main.cpp  **** 
   5:src/Main.cpp  **** #include "../h/Riscv.hpp"
   6:src/Main.cpp  **** #include "../h/List.hpp"
   7:src/Main.cpp  **** #include "../h/syscall_c.h"
   8:src/Main.cpp  **** #include "../h/Print.hpp"
   9:src/Main.cpp  **** #include "../h/workers.hpp"
  10:src/Main.cpp  **** #include "../h/_thread.hpp"
  11:src/Main.cpp  **** 
  12:src/Main.cpp  **** int main(){
 344              		.loc 2 12 11 is_stmt 1
 345              		.cfi_startproc
 346 017c 130101FD 		addi	sp,sp,-48
 347              		.cfi_def_cfa_offset 48
 348 0180 23341102 		sd	ra,40(sp)
 349 0184 23308102 		sd	s0,32(sp)
 350              		.cfi_offset 1, -8
 351              		.cfi_offset 8, -16
 352 0188 13040103 		addi	s0,sp,48
 353              		.cfi_def_cfa 8, 0
  13:src/Main.cpp  **** 
  14:src/Main.cpp  **** 
  15:src/Main.cpp  ****     Riscv::w_stvec((uint64)&Riscv::supervisorTrap);
 354              		.loc 2 15 5
 355              		.loc 2 15 19 is_stmt 0
 356 018c 97070000 		la	a5,_ZN5Riscv14supervisorTrapEv
 356      83B70700 
 357              	.LVL23:
 358              	.LBB8:
 359              	.LBB9:
 360              		.file 3 "src/../h/Riscv.hpp"
   1:src/../h/Riscv.hpp **** //
   2:src/../h/Riscv.hpp **** // Created by os on 6/17/22.
   3:src/../h/Riscv.hpp **** //
   4:src/../h/Riscv.hpp **** 
   5:src/../h/Riscv.hpp **** #ifndef PROJECT_BASE_V1_1_RISCV_HPP
   6:src/../h/Riscv.hpp **** #define PROJECT_BASE_V1_1_RISCV_HPP
   7:src/../h/Riscv.hpp **** 
   8:src/../h/Riscv.hpp **** #include "../lib/hw.h"
   9:src/../h/Riscv.hpp **** 
  10:src/../h/Riscv.hpp **** 
  11:src/../h/Riscv.hpp **** class Riscv
  12:src/../h/Riscv.hpp **** {
  13:src/../h/Riscv.hpp **** public:
  14:src/../h/Riscv.hpp **** 
  15:src/../h/Riscv.hpp ****     // pop sstatus.spp and sstatus.spie bits (has to be a non inline function)
  16:src/../h/Riscv.hpp ****     static void popSppSpie();
  17:src/../h/Riscv.hpp **** 
  18:src/../h/Riscv.hpp ****     // read register scause
  19:src/../h/Riscv.hpp ****     static uint64 r_scause();
  20:src/../h/Riscv.hpp **** 
  21:src/../h/Riscv.hpp ****     // write register scause
  22:src/../h/Riscv.hpp ****     static void w_scause(uint64 scause);
  23:src/../h/Riscv.hpp **** 
  24:src/../h/Riscv.hpp ****     // read register sepc
  25:src/../h/Riscv.hpp ****     static uint64 r_sepc();
GAS LISTING /tmp/ccpQE5XM.s 			page 10


  26:src/../h/Riscv.hpp **** 
  27:src/../h/Riscv.hpp ****     // write register sepc
  28:src/../h/Riscv.hpp ****     static void w_sepc(uint64 sepc);
  29:src/../h/Riscv.hpp **** 
  30:src/../h/Riscv.hpp ****     // read register stvec
  31:src/../h/Riscv.hpp ****     static uint64 r_stvec();
  32:src/../h/Riscv.hpp **** 
  33:src/../h/Riscv.hpp ****     // write register stvec
  34:src/../h/Riscv.hpp ****     static void w_stvec(uint64 stvec);
  35:src/../h/Riscv.hpp **** 
  36:src/../h/Riscv.hpp ****     // read register stval
  37:src/../h/Riscv.hpp ****     static uint64 r_stval();
  38:src/../h/Riscv.hpp **** 
  39:src/../h/Riscv.hpp ****     // write register stval
  40:src/../h/Riscv.hpp ****     static void w_stval(uint64 stval);
  41:src/../h/Riscv.hpp **** 
  42:src/../h/Riscv.hpp ****     enum BitMaskSip
  43:src/../h/Riscv.hpp ****     {
  44:src/../h/Riscv.hpp ****         SIP_SSIP = (1 << 1),
  45:src/../h/Riscv.hpp ****         SIP_STIP = (1 << 5),
  46:src/../h/Riscv.hpp ****         SIP_SEIP = (1 << 9),
  47:src/../h/Riscv.hpp ****     };
  48:src/../h/Riscv.hpp **** 
  49:src/../h/Riscv.hpp ****     // mask set register sip
  50:src/../h/Riscv.hpp ****     static void ms_sip(uint64 mask);
  51:src/../h/Riscv.hpp **** 
  52:src/../h/Riscv.hpp ****     // mask clear register sip
  53:src/../h/Riscv.hpp ****     static void mc_sip(uint64 mask);
  54:src/../h/Riscv.hpp **** 
  55:src/../h/Riscv.hpp ****     // read register sip
  56:src/../h/Riscv.hpp ****     static uint64 r_sip();
  57:src/../h/Riscv.hpp **** 
  58:src/../h/Riscv.hpp ****     // write register sip
  59:src/../h/Riscv.hpp ****     static void w_sip(uint64 sip);
  60:src/../h/Riscv.hpp **** 
  61:src/../h/Riscv.hpp ****     enum BitMaskSstatus
  62:src/../h/Riscv.hpp ****     {
  63:src/../h/Riscv.hpp ****         SSTATUS_SIE = (1 << 1),
  64:src/../h/Riscv.hpp ****         SSTATUS_SPIE = (1 << 5),
  65:src/../h/Riscv.hpp ****         SSTATUS_SPP = (1 << 8),
  66:src/../h/Riscv.hpp ****     };
  67:src/../h/Riscv.hpp **** 
  68:src/../h/Riscv.hpp ****     // mask set register sstatus
  69:src/../h/Riscv.hpp ****     static void ms_sstatus(uint64 mask);
  70:src/../h/Riscv.hpp **** 
  71:src/../h/Riscv.hpp ****     // mask clear register sstatus
  72:src/../h/Riscv.hpp ****     static void mc_sstatus(uint64 mask);
  73:src/../h/Riscv.hpp **** 
  74:src/../h/Riscv.hpp ****     // read register sstatus
  75:src/../h/Riscv.hpp ****     static uint64 r_sstatus();
  76:src/../h/Riscv.hpp **** 
  77:src/../h/Riscv.hpp ****     // write register sstatus
  78:src/../h/Riscv.hpp ****     static void w_sstatus(uint64 sstatus);
  79:src/../h/Riscv.hpp **** 
  80:src/../h/Riscv.hpp ****     // supervisor trap
  81:src/../h/Riscv.hpp ****     static void supervisorTrap();
  82:src/../h/Riscv.hpp **** 
GAS LISTING /tmp/ccpQE5XM.s 			page 11


  83:src/../h/Riscv.hpp **** private:
  84:src/../h/Riscv.hpp **** 
  85:src/../h/Riscv.hpp ****     // supervisor trap handler
  86:src/../h/Riscv.hpp ****     static void handleSupervisorTrap();
  87:src/../h/Riscv.hpp **** 
  88:src/../h/Riscv.hpp ****     static void syscallHandler();
  89:src/../h/Riscv.hpp **** 
  90:src/../h/Riscv.hpp **** };
  91:src/../h/Riscv.hpp **** 
  92:src/../h/Riscv.hpp **** inline uint64 Riscv::r_scause()
  93:src/../h/Riscv.hpp **** {
  94:src/../h/Riscv.hpp ****     uint64 volatile scause;
  95:src/../h/Riscv.hpp ****     __asm__ volatile ("csrr %[scause], scause" : [scause] "=r"(scause));
  96:src/../h/Riscv.hpp ****     return scause;
  97:src/../h/Riscv.hpp **** }
  98:src/../h/Riscv.hpp **** 
  99:src/../h/Riscv.hpp **** inline void Riscv::w_scause(uint64 scause)
 100:src/../h/Riscv.hpp **** {
 101:src/../h/Riscv.hpp ****     __asm__ volatile ("csrw scause, %[scause]" : : [scause] "r"(scause));
 102:src/../h/Riscv.hpp **** }
 103:src/../h/Riscv.hpp **** 
 104:src/../h/Riscv.hpp **** inline uint64 Riscv::r_sepc()
 105:src/../h/Riscv.hpp **** {
 106:src/../h/Riscv.hpp ****     uint64 volatile sepc;
 107:src/../h/Riscv.hpp ****     __asm__ volatile ("csrr %[sepc], sepc" : [sepc] "=r"(sepc));
 108:src/../h/Riscv.hpp ****     return sepc;
 109:src/../h/Riscv.hpp **** }
 110:src/../h/Riscv.hpp **** 
 111:src/../h/Riscv.hpp **** inline void Riscv::w_sepc(uint64 sepc)
 112:src/../h/Riscv.hpp **** {
 113:src/../h/Riscv.hpp ****     __asm__ volatile ("csrw sepc, %[sepc]" : : [sepc] "r"(sepc));
 114:src/../h/Riscv.hpp **** }
 115:src/../h/Riscv.hpp **** 
 116:src/../h/Riscv.hpp **** inline uint64 Riscv::r_stvec()
 117:src/../h/Riscv.hpp **** {
 118:src/../h/Riscv.hpp ****     uint64 volatile stvec;
 119:src/../h/Riscv.hpp ****     __asm__ volatile ("csrr %[stvec], stvec" : [stvec] "=r"(stvec));
 120:src/../h/Riscv.hpp ****     return stvec;
 121:src/../h/Riscv.hpp **** }
 122:src/../h/Riscv.hpp **** 
 123:src/../h/Riscv.hpp **** inline void Riscv::w_stvec(uint64 stvec)
 124:src/../h/Riscv.hpp **** {
 125:src/../h/Riscv.hpp ****     __asm__ volatile ("csrw stvec, %[stvec]" : : [stvec] "r"(stvec));
 361              		.loc 3 125 5 is_stmt 1
 362              		.loc 3 125 69 is_stmt 0
 363              	#APP
 364              	# 125 "src/../h/Riscv.hpp" 1
 126              	}
 365              		csrw stvec, a5
 366              	# 0 "" 2
 367              	.LVL24:
 368              	#NO_APP
 369              	.LBE9:
 370              	.LBE8:
  16:src/Main.cpp  **** 
  17:src/Main.cpp  ****     _thread* threads[3];
 371              		.loc 2 17 5 is_stmt 1
GAS LISTING /tmp/ccpQE5XM.s 			page 12


  18:src/Main.cpp  **** 
  19:src/Main.cpp  ****     if(!thread_create(&threads[0], nullptr, nullptr)){
 372              		.loc 2 19 5
 373              		.loc 2 19 22 is_stmt 0
 374 0198 13060000 		li	a2,0
 375 019c 93050000 		li	a1,0
 376 01a0 130584FD 		addi	a0,s0,-40
 377 01a4 97000000 		call	_Z13thread_createPP7_threadPFvPvES2_
 377      E7800000 
 378              	.LVL25:
 379              		.loc 2 19 5
 380 01ac 630A0506 		beqz	a0,.L22
 381              	.L15:
  20:src/Main.cpp  ****         printString("thread created");
  21:src/Main.cpp  ****     }
  22:src/Main.cpp  ****     threads[0]->start();
 382              		.loc 2 22 5 is_stmt 1
 383              		.loc 2 22 22 is_stmt 0
 384 01b0 033584FD 		ld	a0,-40(s0)
 385 01b4 97000000 		call	_ZN7_thread5startEv@plt
 385      E7800000 
 386              	.LVL26:
  23:src/Main.cpp  ****     _thread::running=threads[0];
 387              		.loc 2 23 5 is_stmt 1
 388              		.loc 2 23 21 is_stmt 0
 389 01bc 033784FD 		ld	a4,-40(s0)
 390 01c0 97070000 		la	a5,_ZN7_thread7runningE
 390      83B70700 
 391 01c8 23B0E700 		sd	a4,0(a5)
  24:src/Main.cpp  **** 
  25:src/Main.cpp  ****     if(!thread_create(&threads[1], workerBodyA, nullptr)){
 392              		.loc 2 25 5 is_stmt 1
 393              		.loc 2 25 22 is_stmt 0
 394 01cc 13060000 		li	a2,0
 395 01d0 97050000 		la	a1,_Z11workerBodyAPv
 395      83B50500 
 396 01d8 130504FE 		addi	a0,s0,-32
 397 01dc 97000000 		call	_Z13thread_createPP7_threadPFvPvES2_
 397      E7800000 
 398              	.LVL27:
 399              		.loc 2 25 5
 400 01e4 63080504 		beqz	a0,.L23
 401              	.L16:
  26:src/Main.cpp  ****         printString("thread created");
  27:src/Main.cpp  ****     }
  28:src/Main.cpp  ****     threads[1]->start();
 402              		.loc 2 28 5 is_stmt 1
 403              		.loc 2 28 22 is_stmt 0
 404 01e8 033504FE 		ld	a0,-32(s0)
 405 01ec 97000000 		call	_ZN7_thread5startEv@plt
 405      E7800000 
 406              	.LVL28:
  29:src/Main.cpp  **** 
  30:src/Main.cpp  ****     if(!thread_create(&threads[2], workerBodyB, nullptr)){
 407              		.loc 2 30 5 is_stmt 1
 408              		.loc 2 30 22 is_stmt 0
 409 01f4 13060000 		li	a2,0
GAS LISTING /tmp/ccpQE5XM.s 			page 13


 410 01f8 97050000 		la	a1,_Z11workerBodyBPv
 410      83B50500 
 411 0200 130584FE 		addi	a0,s0,-24
 412 0204 97000000 		call	_Z13thread_createPP7_threadPFvPvES2_
 412      E7800000 
 413              	.LVL29:
 414              		.loc 2 30 5
 415 020c 630E0502 		beqz	a0,.L24
 416              	.L17:
  31:src/Main.cpp  ****         printString("thread created");
  32:src/Main.cpp  ****     }
  33:src/Main.cpp  ****     threads[2]->start();
 417              		.loc 2 33 5 is_stmt 1
 418              		.loc 2 33 22 is_stmt 0
 419 0210 033584FE 		ld	a0,-24(s0)
 420 0214 97000000 		call	_ZN7_thread5startEv@plt
 420      E7800000 
 421              	.LVL30:
 422 021c 6F008004 		j	.L20
 423              	.L22:
  20:src/Main.cpp  ****     }
 424              		.loc 2 20 9 is_stmt 1
  20:src/Main.cpp  ****     }
 425              		.loc 2 20 20 is_stmt 0
 426 0220 17050000 		lla	a0,.LC0
 426      13050500 
 427 0228 97000000 		call	_Z11printStringPKc@plt
 427      E7800000 
 428              	.LVL31:
 429 0230 6FF01FF8 		j	.L15
 430              	.L23:
  26:src/Main.cpp  ****     }
 431              		.loc 2 26 9 is_stmt 1
  26:src/Main.cpp  ****     }
 432              		.loc 2 26 20 is_stmt 0
 433 0234 17050000 		lla	a0,.LC0
 433      13050500 
 434 023c 97000000 		call	_Z11printStringPKc@plt
 434      E7800000 
 435              	.LVL32:
 436 0244 6FF05FFA 		j	.L16
 437              	.L24:
  31:src/Main.cpp  ****         printString("thread created");
 438              		.loc 2 31 9 is_stmt 1
  31:src/Main.cpp  ****         printString("thread created");
 439              		.loc 2 31 20 is_stmt 0
 440 0248 17050000 		lla	a0,.LC0
 440      13050500 
 441 0250 97000000 		call	_Z11printStringPKc@plt
 441      E7800000 
 442              	.LVL33:
 443 0258 6FF09FFB 		j	.L17
 444              	.L18:
  34:src/Main.cpp  **** 
  35:src/Main.cpp  ****     while(!(threads[1]->isFinished() && threads[2]->isFinished())){
  36:src/Main.cpp  ****         _thread::yield();
 445              		.loc 2 36 9 is_stmt 1 discriminator 3
GAS LISTING /tmp/ccpQE5XM.s 			page 14


 446              		.loc 2 36 23 is_stmt 0 discriminator 3
 447 025c 97000000 		call	_ZN7_thread5yieldEv@plt
 447      E7800000 
 448              	.LVL34:
 449              	.L20:
  35:src/Main.cpp  ****         _thread::yield();
 450              		.loc 2 35 5 is_stmt 1
  35:src/Main.cpp  ****         _thread::yield();
 451              		.loc 2 35 11
  35:src/Main.cpp  ****         _thread::yield();
 452              		.loc 2 35 22 is_stmt 0
 453 0264 833704FE 		ld	a5,-32(s0)
 454              	.LVL35:
 455              	.LBB10:
 456              	.LBB11:
 457              		.file 4 "src/../h/_thread.hpp"
   1:src/../h/_thread.hpp **** //
   2:src/../h/_thread.hpp **** // Created by os on 6/20/22.
   3:src/../h/_thread.hpp **** //
   4:src/../h/_thread.hpp **** 
   5:src/../h/_thread.hpp **** #ifndef PROJECT_BASE_V1_1__THREAD_HPP
   6:src/../h/_thread.hpp **** #define PROJECT_BASE_V1_1__THREAD_HPP
   7:src/../h/_thread.hpp **** 
   8:src/../h/_thread.hpp **** #include "../lib/hw.h"
   9:src/../h/_thread.hpp **** #include "Scheduler.hpp"
  10:src/../h/_thread.hpp **** #include "MemoryAllocator.hpp"
  11:src/../h/_thread.hpp **** 
  12:src/../h/_thread.hpp **** class _thread {
  13:src/../h/_thread.hpp **** public:
  14:src/../h/_thread.hpp ****     ~_thread() {
  15:src/../h/_thread.hpp ****         MemoryAllocator::kmem_free(stack);
  16:src/../h/_thread.hpp ****     }
  17:src/../h/_thread.hpp **** 
  18:src/../h/_thread.hpp ****     bool isFinished() const { return finished; }
 458              		.loc 4 18 31 is_stmt 1
 459              		.loc 4 18 38 is_stmt 0
 460 0268 83C78702 		lbu	a5,40(a5)
 461              	.LVL36:
 462              	.LBE11:
 463              	.LBE10:
  35:src/Main.cpp  ****         _thread::yield();
 464              		.loc 2 35 11
 465 026c E38807FE 		beqz	a5,.L18
  35:src/Main.cpp  ****         _thread::yield();
 466              		.loc 2 35 50 discriminator 2
 467 0270 833784FE 		ld	a5,-24(s0)
 468              	.LVL37:
 469              	.LBB12:
 470              	.LBB13:
 471              		.loc 4 18 31 is_stmt 1 discriminator 2
 472              		.loc 4 18 38 is_stmt 0 discriminator 2
 473 0274 83C78702 		lbu	a5,40(a5)
 474              	.LVL38:
 475              	.LBE13:
 476              	.LBE12:
  35:src/Main.cpp  ****         _thread::yield();
 477              		.loc 2 35 11 discriminator 2
GAS LISTING /tmp/ccpQE5XM.s 			page 15


 478 0278 E38207FE 		beqz	a5,.L18
  37:src/Main.cpp  ****     }
  38:src/Main.cpp  **** 
  39:src/Main.cpp  **** 
  40:src/Main.cpp  ****     printString("finished \n");
 479              		.loc 2 40 5 is_stmt 1
 480              		.loc 2 40 16 is_stmt 0
 481 027c 17050000 		lla	a0,.LC1
 481      13050500 
 482 0284 97000000 		call	_Z11printStringPKc@plt
 482      E7800000 
 483              	.LVL39:
  41:src/Main.cpp  **** 
  42:src/Main.cpp  ****     return 0;
 484              		.loc 2 42 5 is_stmt 1
  43:src/Main.cpp  **** }
 485              		.loc 2 43 1 is_stmt 0
 486 028c 13050000 		li	a0,0
 487 0290 83308102 		ld	ra,40(sp)
 488              		.cfi_restore 1
 489 0294 03340102 		ld	s0,32(sp)
 490              		.cfi_restore 8
 491              		.cfi_def_cfa 2, 48
 492 0298 13010103 		addi	sp,sp,48
 493              		.cfi_def_cfa_offset 0
 494 029c 67800000 		jr	ra
 495              		.cfi_endproc
 496              	.LFE48:
 498              	.Letext0:
 499              		.file 5 "src/../h/../lib/hw.h"
 500              		.file 6 "src/../h/Print.hpp"
GAS LISTING /tmp/ccpQE5XM.s 			page 16


DEFINED SYMBOLS
                            *ABS*:0000000000000000 Main.cpp
     /tmp/ccpQE5XM.s:9      .text:0000000000000000 _Z7syscallP4args
     /tmp/ccpQE5XM.s:13     .text:0000000000000000 .L0 
     /tmp/ccpQE5XM.s:15     .text:0000000000000000 .L0 
     /tmp/ccpQE5XM.s:16     .text:0000000000000004 .L0 
     /tmp/ccpQE5XM.s:18     .text:0000000000000008 .L0 
     /tmp/ccpQE5XM.s:20     .text:000000000000000c .L0 
     /tmp/ccpQE5XM.s:22     .text:000000000000000c .L0 
     /tmp/ccpQE5XM.s:23     .text:000000000000000c .L0 
     /tmp/ccpQE5XM.s:26     .text:0000000000000010 .L0 
     /tmp/ccpQE5XM.s:27     .text:0000000000000010 .L0 
     /tmp/ccpQE5XM.s:30     .text:0000000000000014 .L0 
     /tmp/ccpQE5XM.s:31     .text:0000000000000014 .L0 
     /tmp/ccpQE5XM.s:34     .text:0000000000000018 .L0 
     /tmp/ccpQE5XM.s:35     .text:0000000000000018 .L0 
     /tmp/ccpQE5XM.s:38     .text:000000000000001c .L0 
src/../h/syscall_c.h:34     .text:000000000000001c .L0 
     /tmp/ccpQE5XM.s:44     .text:0000000000000020 .L0 
src/../h/syscall_c.h:35     .text:0000000000000020 .L0 
     /tmp/ccpQE5XM.s:49     .text:0000000000000024 .L0 
src/../h/syscall_c.h:36     .text:0000000000000024 .L0 
     /tmp/ccpQE5XM.s:54     .text:0000000000000028 .L0 
src/../h/syscall_c.h:37     .text:0000000000000028 .L0 
     /tmp/ccpQE5XM.s:59     .text:000000000000002c .L0 
src/../h/syscall_c.h:42     .text:000000000000002c .L0 
     /tmp/ccpQE5XM.s:65     .text:0000000000000030 .L0 
     /tmp/ccpQE5XM.s:66     .text:0000000000000034 .L0 
     /tmp/ccpQE5XM.s:67     .text:0000000000000034 .L0 
     /tmp/ccpQE5XM.s:69     .text:0000000000000038 .L0 
     /tmp/ccpQE5XM.s:71     .text:000000000000003c .L0 
     /tmp/ccpQE5XM.s:77     .text:000000000000003c _Z9mem_allocm
     /tmp/ccpQE5XM.s:80     .text:000000000000003c .L0 
     /tmp/ccpQE5XM.s:82     .text:000000000000003c .L0 
     /tmp/ccpQE5XM.s:83     .text:0000000000000040 .L0 
     /tmp/ccpQE5XM.s:86     .text:0000000000000048 .L0 
     /tmp/ccpQE5XM.s:87     .text:0000000000000048 .L0 
     /tmp/ccpQE5XM.s:89     .text:000000000000004c .L0 
     /tmp/ccpQE5XM.s:91     .text:000000000000004c .L0 
     /tmp/ccpQE5XM.s:92     .text:000000000000004c .L0 
     /tmp/ccpQE5XM.s:93     .text:000000000000004c .L0 
     /tmp/ccpQE5XM.s:96     .text:0000000000000054 .L0 
     /tmp/ccpQE5XM.s:97     .text:0000000000000054 .L0 
     /tmp/ccpQE5XM.s:100    .text:0000000000000058 .L0 
     /tmp/ccpQE5XM.s:101    .text:0000000000000058 .L0 
     /tmp/ccpQE5XM.s:104    .text:000000000000005c .L0 
     /tmp/ccpQE5XM.s:106    .text:0000000000000060 .L0 
     /tmp/ccpQE5XM.s:107    .text:0000000000000060 .L0 
     /tmp/ccpQE5XM.s:111    .text:0000000000000064 .L0 
     /tmp/ccpQE5XM.s:112    .text:0000000000000064 .L0 
     /tmp/ccpQE5XM.s:114    .text:0000000000000068 .L0 
     /tmp/ccpQE5XM.s:115    .text:0000000000000068 .L0 
     /tmp/ccpQE5XM.s:119    .text:0000000000000074 .L0 
     /tmp/ccpQE5XM.s:120    .text:0000000000000074 .L0 
src/../h/syscall_c.h:60     .text:0000000000000074 .L0 
     /tmp/ccpQE5XM.s:127    .text:0000000000000078 .L0 
     /tmp/ccpQE5XM.s:129    .text:0000000000000078 .L0 
GAS LISTING /tmp/ccpQE5XM.s 			page 17


     /tmp/ccpQE5XM.s:130    .text:000000000000007c .L0 
     /tmp/ccpQE5XM.s:132    .text:0000000000000080 .L0 
     /tmp/ccpQE5XM.s:133    .text:0000000000000080 .L0 
     /tmp/ccpQE5XM.s:135    .text:0000000000000084 .L0 
     /tmp/ccpQE5XM.s:137    .text:0000000000000088 .L0 
     /tmp/ccpQE5XM.s:143    .text:0000000000000088 _Z8mem_freePv
     /tmp/ccpQE5XM.s:146    .text:0000000000000088 .L0 
     /tmp/ccpQE5XM.s:148    .text:0000000000000088 .L0 
     /tmp/ccpQE5XM.s:149    .text:000000000000008c .L0 
     /tmp/ccpQE5XM.s:152    .text:0000000000000094 .L0 
     /tmp/ccpQE5XM.s:153    .text:0000000000000094 .L0 
     /tmp/ccpQE5XM.s:155    .text:0000000000000098 .L0 
     /tmp/ccpQE5XM.s:157    .text:0000000000000098 .L0 
     /tmp/ccpQE5XM.s:158    .text:0000000000000098 .L0 
     /tmp/ccpQE5XM.s:159    .text:0000000000000098 .L0 
     /tmp/ccpQE5XM.s:162    .text:00000000000000a0 .L0 
     /tmp/ccpQE5XM.s:163    .text:00000000000000a0 .L0 
     /tmp/ccpQE5XM.s:165    .text:00000000000000a4 .L0 
     /tmp/ccpQE5XM.s:166    .text:00000000000000a4 .L0 
     /tmp/ccpQE5XM.s:171    .text:00000000000000b0 .L0 
     /tmp/ccpQE5XM.s:172    .text:00000000000000b0 .L0 
src/../h/syscall_c.h:72     .text:00000000000000b0 .L0 
     /tmp/ccpQE5XM.s:179    .text:00000000000000b4 .L0 
     /tmp/ccpQE5XM.s:181    .text:00000000000000b4 .L0 
     /tmp/ccpQE5XM.s:184    .text:00000000000000bc .L0 
     /tmp/ccpQE5XM.s:186    .text:00000000000000c0 .L0 
     /tmp/ccpQE5XM.s:187    .text:00000000000000c0 .L0 
     /tmp/ccpQE5XM.s:189    .text:00000000000000c4 .L0 
     /tmp/ccpQE5XM.s:191    .text:00000000000000c8 .L0 
     /tmp/ccpQE5XM.s:197    .text:00000000000000c8 _Z13thread_createPP7_threadPFvPvES2_
     /tmp/ccpQE5XM.s:200    .text:00000000000000c8 .L0 
     /tmp/ccpQE5XM.s:202    .text:00000000000000c8 .L0 
     /tmp/ccpQE5XM.s:203    .text:00000000000000cc .L0 
     /tmp/ccpQE5XM.s:206    .text:00000000000000d4 .L0 
     /tmp/ccpQE5XM.s:207    .text:00000000000000d4 .L0 
     /tmp/ccpQE5XM.s:209    .text:00000000000000d8 .L0 
     /tmp/ccpQE5XM.s:211    .text:00000000000000d8 .L0 
     /tmp/ccpQE5XM.s:212    .text:00000000000000d8 .L0 
     /tmp/ccpQE5XM.s:213    .text:00000000000000d8 .L0 
     /tmp/ccpQE5XM.s:216    .text:00000000000000e0 .L0 
     /tmp/ccpQE5XM.s:217    .text:00000000000000e0 .L0 
     /tmp/ccpQE5XM.s:219    .text:00000000000000e4 .L0 
     /tmp/ccpQE5XM.s:220    .text:00000000000000e4 .L0 
     /tmp/ccpQE5XM.s:222    .text:00000000000000e8 .L0 
     /tmp/ccpQE5XM.s:223    .text:00000000000000e8 .L0 
     /tmp/ccpQE5XM.s:225    .text:00000000000000ec .L0 
     /tmp/ccpQE5XM.s:226    .text:00000000000000ec .L0 
     /tmp/ccpQE5XM.s:231    .text:00000000000000f8 .L0 
     /tmp/ccpQE5XM.s:232    .text:00000000000000f8 .L0 
src/../h/syscall_c.h:91     .text:00000000000000f8 .L0 
     /tmp/ccpQE5XM.s:239    .text:00000000000000fc .L0 
     /tmp/ccpQE5XM.s:241    .text:00000000000000fc .L0 
     /tmp/ccpQE5XM.s:244    .text:0000000000000104 .L0 
     /tmp/ccpQE5XM.s:246    .text:0000000000000108 .L0 
     /tmp/ccpQE5XM.s:247    .text:0000000000000108 .L0 
     /tmp/ccpQE5XM.s:249    .text:000000000000010c .L0 
     /tmp/ccpQE5XM.s:251    .text:0000000000000110 .L0 
GAS LISTING /tmp/ccpQE5XM.s 			page 18


     /tmp/ccpQE5XM.s:257    .text:0000000000000110 _Z11thread_exitv
     /tmp/ccpQE5XM.s:260    .text:0000000000000110 .L0 
     /tmp/ccpQE5XM.s:261    .text:0000000000000110 .L0 
     /tmp/ccpQE5XM.s:262    .text:0000000000000114 .L0 
     /tmp/ccpQE5XM.s:265    .text:000000000000011c .L0 
     /tmp/ccpQE5XM.s:266    .text:000000000000011c .L0 
     /tmp/ccpQE5XM.s:268    .text:0000000000000120 .L0 
     /tmp/ccpQE5XM.s:270    .text:0000000000000120 .L0 
     /tmp/ccpQE5XM.s:271    .text:0000000000000120 .L0 
     /tmp/ccpQE5XM.s:272    .text:0000000000000120 .L0 
     /tmp/ccpQE5XM.s:275    .text:0000000000000128 .L0 
     /tmp/ccpQE5XM.s:276    .text:0000000000000128 .L0 
     /tmp/ccpQE5XM.s:280    .text:0000000000000134 .L0 
     /tmp/ccpQE5XM.s:281    .text:0000000000000134 .L0 
     /tmp/ccpQE5XM.s:283    .text:000000000000013c .L0 
     /tmp/ccpQE5XM.s:285    .text:0000000000000140 .L0 
     /tmp/ccpQE5XM.s:286    .text:0000000000000140 .L0 
     /tmp/ccpQE5XM.s:288    .text:0000000000000144 .L0 
     /tmp/ccpQE5XM.s:290    .text:0000000000000148 .L0 
     /tmp/ccpQE5XM.s:296    .text:0000000000000148 _Z15thread_dispatchv
     /tmp/ccpQE5XM.s:299    .text:0000000000000148 .L0 
     /tmp/ccpQE5XM.s:300    .text:0000000000000148 .L0 
     /tmp/ccpQE5XM.s:301    .text:000000000000014c .L0 
     /tmp/ccpQE5XM.s:304    .text:0000000000000154 .L0 
     /tmp/ccpQE5XM.s:305    .text:0000000000000154 .L0 
     /tmp/ccpQE5XM.s:307    .text:0000000000000158 .L0 
     /tmp/ccpQE5XM.s:309    .text:0000000000000158 .L0 
     /tmp/ccpQE5XM.s:310    .text:0000000000000158 .L0 
     /tmp/ccpQE5XM.s:311    .text:0000000000000158 .L0 
     /tmp/ccpQE5XM.s:314    .text:0000000000000160 .L0 
     /tmp/ccpQE5XM.s:315    .text:0000000000000160 .L0 
     /tmp/ccpQE5XM.s:319    .text:000000000000016c .L0 
     /tmp/ccpQE5XM.s:320    .text:0000000000000170 .L0 
     /tmp/ccpQE5XM.s:322    .text:0000000000000174 .L0 
     /tmp/ccpQE5XM.s:323    .text:0000000000000174 .L0 
     /tmp/ccpQE5XM.s:325    .text:0000000000000178 .L0 
     /tmp/ccpQE5XM.s:327    .text:000000000000017c .L0 
     /tmp/ccpQE5XM.s:341    .text:000000000000017c main
     /tmp/ccpQE5XM.s:345    .text:000000000000017c .L0 
     /tmp/ccpQE5XM.s:346    .text:000000000000017c .L0 
     /tmp/ccpQE5XM.s:347    .text:0000000000000180 .L0 
     /tmp/ccpQE5XM.s:350    .text:0000000000000188 .L0 
     /tmp/ccpQE5XM.s:351    .text:0000000000000188 .L0 
     /tmp/ccpQE5XM.s:353    .text:000000000000018c .L0 
     /tmp/ccpQE5XM.s:355    .text:000000000000018c .L0 
     /tmp/ccpQE5XM.s:356    .text:000000000000018c .L0 
     /tmp/ccpQE5XM.s:362    .text:0000000000000194 .L0 
  src/../h/Riscv.hpp:125    .text:0000000000000194 .L0 
     /tmp/ccpQE5XM.s:372    .text:0000000000000198 .L0 
     /tmp/ccpQE5XM.s:373    .text:0000000000000198 .L0 
     /tmp/ccpQE5XM.s:374    .text:0000000000000198 .L0 
     /tmp/ccpQE5XM.s:380    .text:00000000000001ac .L0 
     /tmp/ccpQE5XM.s:383    .text:00000000000001b0 .L0 
     /tmp/ccpQE5XM.s:384    .text:00000000000001b0 .L0 
     /tmp/ccpQE5XM.s:388    .text:00000000000001bc .L0 
     /tmp/ccpQE5XM.s:389    .text:00000000000001bc .L0 
     /tmp/ccpQE5XM.s:393    .text:00000000000001cc .L0 
GAS LISTING /tmp/ccpQE5XM.s 			page 19


     /tmp/ccpQE5XM.s:394    .text:00000000000001cc .L0 
     /tmp/ccpQE5XM.s:400    .text:00000000000001e4 .L0 
     /tmp/ccpQE5XM.s:403    .text:00000000000001e8 .L0 
     /tmp/ccpQE5XM.s:404    .text:00000000000001e8 .L0 
     /tmp/ccpQE5XM.s:408    .text:00000000000001f4 .L0 
     /tmp/ccpQE5XM.s:409    .text:00000000000001f4 .L0 
     /tmp/ccpQE5XM.s:415    .text:000000000000020c .L0 
     /tmp/ccpQE5XM.s:418    .text:0000000000000210 .L0 
     /tmp/ccpQE5XM.s:419    .text:0000000000000210 .L0 
     /tmp/ccpQE5XM.s:425    .text:0000000000000220 .L0 
     /tmp/ccpQE5XM.s:426    .text:0000000000000220 .L0 
     /tmp/ccpQE5XM.s:432    .text:0000000000000234 .L0 
     /tmp/ccpQE5XM.s:433    .text:0000000000000234 .L0 
     /tmp/ccpQE5XM.s:439    .text:0000000000000248 .L0 
     /tmp/ccpQE5XM.s:440    .text:0000000000000248 .L0 
     /tmp/ccpQE5XM.s:446    .text:000000000000025c .L0 
     /tmp/ccpQE5XM.s:447    .text:000000000000025c .L0 
     /tmp/ccpQE5XM.s:451    .text:0000000000000264 .L0 
     /tmp/ccpQE5XM.s:452    .text:0000000000000264 .L0 
     /tmp/ccpQE5XM.s:453    .text:0000000000000264 .L0 
     /tmp/ccpQE5XM.s:459    .text:0000000000000268 .L0 
     /tmp/ccpQE5XM.s:460    .text:0000000000000268 .L0 
     /tmp/ccpQE5XM.s:465    .text:000000000000026c .L0 
     /tmp/ccpQE5XM.s:467    .text:0000000000000270 .L0 
     /tmp/ccpQE5XM.s:472    .text:0000000000000274 .L0 
     /tmp/ccpQE5XM.s:473    .text:0000000000000274 .L0 
     /tmp/ccpQE5XM.s:478    .text:0000000000000278 .L0 
     /tmp/ccpQE5XM.s:480    .text:000000000000027c .L0 
     /tmp/ccpQE5XM.s:481    .text:000000000000027c .L0 
     /tmp/ccpQE5XM.s:485    .text:000000000000028c .L0 
     /tmp/ccpQE5XM.s:486    .text:000000000000028c .L0 
     /tmp/ccpQE5XM.s:488    .text:0000000000000294 .L0 
     /tmp/ccpQE5XM.s:490    .text:0000000000000298 .L0 
     /tmp/ccpQE5XM.s:491    .text:0000000000000298 .L0 
     /tmp/ccpQE5XM.s:493    .text:000000000000029c .L0 
     /tmp/ccpQE5XM.s:495    .text:00000000000002a0 .L0 
     /tmp/ccpQE5XM.s:501    .text:00000000000002a0 .L0 
     /tmp/ccpQE5XM.s:356    .text:000000000000018c .L0 
     /tmp/ccpQE5XM.s:390    .text:00000000000001c0 .L0 
     /tmp/ccpQE5XM.s:395    .text:00000000000001d0 .L0 
     /tmp/ccpQE5XM.s:410    .text:00000000000001f8 .L0 
     /tmp/ccpQE5XM.s:332    .rodata.str1.8:0000000000000000 .LC0
     /tmp/ccpQE5XM.s:426    .text:0000000000000220 .L0 
     /tmp/ccpQE5XM.s:433    .text:0000000000000234 .L0 
     /tmp/ccpQE5XM.s:440    .text:0000000000000248 .L0 
     /tmp/ccpQE5XM.s:335    .rodata.str1.8:0000000000000010 .LC1
     /tmp/ccpQE5XM.s:481    .text:000000000000027c .L0 
     /tmp/ccpQE5XM.s:109    .text:0000000000000064 .L4
     /tmp/ccpQE5XM.s:423    .text:0000000000000220 .L22
     /tmp/ccpQE5XM.s:430    .text:0000000000000234 .L23
     /tmp/ccpQE5XM.s:437    .text:0000000000000248 .L24
     /tmp/ccpQE5XM.s:449    .text:0000000000000264 .L20
     /tmp/ccpQE5XM.s:381    .text:00000000000001b0 .L15
     /tmp/ccpQE5XM.s:401    .text:00000000000001e8 .L16
     /tmp/ccpQE5XM.s:416    .text:0000000000000210 .L17
     /tmp/ccpQE5XM.s:444    .text:000000000000025c .L18
     /tmp/ccpQE5XM.s:1703   .debug_abbrev:0000000000000000 .Ldebug_abbrev0
GAS LISTING /tmp/ccpQE5XM.s 			page 20


     /tmp/ccpQE5XM.s:2946   .debug_str:000000000000061e .LASF128
     /tmp/ccpQE5XM.s:2924   .debug_str:00000000000005ad .LASF129
     /tmp/ccpQE5XM.s:2846   .debug_str:0000000000000322 .LASF130
     /tmp/ccpQE5XM.s:5      .text:0000000000000000 .Ltext0
     /tmp/ccpQE5XM.s:498    .text:00000000000002a0 .Letext0
     /tmp/ccpQE5XM.s:2734   .debug_line:0000000000000000 .Ldebug_line0
     /tmp/ccpQE5XM.s:2808   .debug_str:0000000000000202 .LASF0
     /tmp/ccpQE5XM.s:2832   .debug_str:00000000000002da .LASF1
     /tmp/ccpQE5XM.s:2898   .debug_str:00000000000004d6 .LASF2
     /tmp/ccpQE5XM.s:2904   .debug_str:0000000000000517 .LASF4
     /tmp/ccpQE5XM.s:2814   .debug_str:0000000000000229 .LASF3
     /tmp/ccpQE5XM.s:2742   .debug_str:0000000000000026 .LASF5
     /tmp/ccpQE5XM.s:2868   .debug_str:00000000000003e6 .LASF6
     /tmp/ccpQE5XM.s:2822   .debug_str:0000000000000291 .LASF7
     /tmp/ccpQE5XM.s:2792   .debug_str:000000000000017c .LASF8
     /tmp/ccpQE5XM.s:2796   .debug_str:00000000000001a8 .LASF9
     /tmp/ccpQE5XM.s:2764   .debug_str:00000000000000bf .LASF10
     /tmp/ccpQE5XM.s:2784   .debug_str:000000000000015a .LASF11
     /tmp/ccpQE5XM.s:2770   .debug_str:00000000000000ee .LASF12
     /tmp/ccpQE5XM.s:2762   .debug_str:00000000000000af .LASF13
     /tmp/ccpQE5XM.s:2932   .debug_str:00000000000005d5 .LASF14
     /tmp/ccpQE5XM.s:2782   .debug_str:0000000000000144 .LASF15
     /tmp/ccpQE5XM.s:2920   .debug_str:0000000000000586 .LASF16
     /tmp/ccpQE5XM.s:2988   .debug_str:00000000000007f2 .LASF58
     /tmp/ccpQE5XM.s:2800   .debug_str:00000000000001c4 .LASF49
     /tmp/ccpQE5XM.s:2806   .debug_str:00000000000001ea .LASF51
     /tmp/ccpQE5XM.s:2972   .debug_str:000000000000078c .LASF17
     /tmp/ccpQE5XM.s:2960   .debug_str:000000000000073f .LASF19
     /tmp/ccpQE5XM.s:2894   .debug_str:00000000000004c2 .LASF21
     /tmp/ccpQE5XM.s:2862   .debug_str:00000000000003bb .LASF23
     /tmp/ccpQE5XM.s:2876   .debug_str:0000000000000435 .LASF18
     /tmp/ccpQE5XM.s:2878   .debug_str:000000000000043c .LASF20
     /tmp/ccpQE5XM.s:2858   .debug_str:00000000000003a0 .LASF22
     /tmp/ccpQE5XM.s:2824   .debug_str:00000000000002a4 .LASF24
     /tmp/ccpQE5XM.s:2996   .debug_str:0000000000000836 .LASF25
     /tmp/ccpQE5XM.s:2950   .debug_str:00000000000006f3 .LASF26
     /tmp/ccpQE5XM.s:2854   .debug_str:0000000000000384 .LASF27
     /tmp/ccpQE5XM.s:2860   .debug_str:00000000000003a7 .LASF28
     /tmp/ccpQE5XM.s:2838   .debug_str:0000000000000300 .LASF29
     /tmp/ccpQE5XM.s:2882   .debug_str:000000000000045f .LASF30
     /tmp/ccpQE5XM.s:3014   .debug_str:000000000000089e .LASF31
     /tmp/ccpQE5XM.s:2812   .debug_str:0000000000000215 .LASF32
     /tmp/ccpQE5XM.s:2928   .debug_str:00000000000005c1 .LASF33
     /tmp/ccpQE5XM.s:2906   .debug_str:000000000000051e .LASF34
     /tmp/ccpQE5XM.s:2908   .debug_str:0000000000000531 .LASF35
     /tmp/ccpQE5XM.s:2766   .debug_str:00000000000000ce .LASF36
     /tmp/ccpQE5XM.s:2780   .debug_str:000000000000013e .LASF37
     /tmp/ccpQE5XM.s:2802   .debug_str:00000000000001cf .LASF38
     /tmp/ccpQE5XM.s:2810   .debug_str:000000000000020f .LASF39
     /tmp/ccpQE5XM.s:2776   .debug_str:0000000000000123 .LASF40
     /tmp/ccpQE5XM.s:2744   .debug_str:000000000000002d .LASF41
     /tmp/ccpQE5XM.s:2900   .debug_str:00000000000004e4 .LASF42
     /tmp/ccpQE5XM.s:2896   .debug_str:00000000000004cb .LASF43
     /tmp/ccpQE5XM.s:3010   .debug_str:0000000000000879 .LASF44
     /tmp/ccpQE5XM.s:2990   .debug_str:00000000000007f8 .LASF45
     /tmp/ccpQE5XM.s:3000   .debug_str:0000000000000845 .LASF46
     /tmp/ccpQE5XM.s:2986   .debug_str:00000000000007e8 .LASF47
GAS LISTING /tmp/ccpQE5XM.s 			page 21


     /tmp/ccpQE5XM.s:2848   .debug_str:0000000000000352 .LASF48
     /tmp/ccpQE5XM.s:2994   .debug_str:0000000000000827 .LASF50
     /tmp/ccpQE5XM.s:2794   .debug_str:000000000000018c .LASF52
     /tmp/ccpQE5XM.s:2872   .debug_str:000000000000040c .LASF53
     /tmp/ccpQE5XM.s:2818   .debug_str:0000000000000267 .LASF55
     /tmp/ccpQE5XM.s:2890   .debug_str:00000000000004a3 .LASF54
     /tmp/ccpQE5XM.s:2910   .debug_str:0000000000000538 .LASF56
     /tmp/ccpQE5XM.s:3008   .debug_str:0000000000000874 .LASF63
     /tmp/ccpQE5XM.s:2984   .debug_str:00000000000007df .LASF57
     /tmp/ccpQE5XM.s:2746   .debug_str:0000000000000038 .LASF59
     /tmp/ccpQE5XM.s:3004   .debug_str:0000000000000867 .LASF131
     /tmp/ccpQE5XM.s:2758   .debug_str:000000000000008c .LASF60
     /tmp/ccpQE5XM.s:2750   .debug_str:000000000000004c .LASF61
     /tmp/ccpQE5XM.s:2842   .debug_str:000000000000030e .LASF62
     /tmp/ccpQE5XM.s:2940   .debug_str:0000000000000603 .LASF64
     /tmp/ccpQE5XM.s:2934   .debug_str:00000000000005e1 .LASF65
     /tmp/ccpQE5XM.s:2826   .debug_str:00000000000002b7 .LASF67
     /tmp/ccpQE5XM.s:2942   .debug_str:000000000000060b .LASF69
     /tmp/ccpQE5XM.s:2902   .debug_str:00000000000004fc .LASF71
     /tmp/ccpQE5XM.s:2748   .debug_str:0000000000000040 .LASF66
     /tmp/ccpQE5XM.s:2980   .debug_str:00000000000007bd .LASF68
     /tmp/ccpQE5XM.s:2836   .debug_str:00000000000002f3 .LASF70
     /tmp/ccpQE5XM.s:2760   .debug_str:0000000000000092 .LASF72
     /tmp/ccpQE5XM.s:2930   .debug_str:00000000000005c8 .LASF73
     /tmp/ccpQE5XM.s:2970   .debug_str:0000000000000768 .LASF74
     /tmp/ccpQE5XM.s:2866   .debug_str:00000000000003e1 .LASF132
     /tmp/ccpQE5XM.s:2834   .debug_str:00000000000002ed .LASF75
     /tmp/ccpQE5XM.s:2856   .debug_str:000000000000038c .LASF76
     /tmp/ccpQE5XM.s:3006   .debug_str:000000000000086e .LASF77
     /tmp/ccpQE5XM.s:2874   .debug_str:0000000000000421 .LASF78
     /tmp/ccpQE5XM.s:2944   .debug_str:0000000000000616 .LASF133
     /tmp/ccpQE5XM.s:2976   .debug_str:00000000000007a3 .LASF79
     /tmp/ccpQE5XM.s:2978   .debug_str:00000000000007a9 .LASF80
     /tmp/ccpQE5XM.s:2768   .debug_str:00000000000000e1 .LASF81
     /tmp/ccpQE5XM.s:2956   .debug_str:000000000000071b .LASF82
     /tmp/ccpQE5XM.s:3012   .debug_str:0000000000000891 .LASF83
     /tmp/ccpQE5XM.s:2892   .debug_str:00000000000004b2 .LASF84
     /tmp/ccpQE5XM.s:2754   .debug_str:0000000000000063 .LASF85
     /tmp/ccpQE5XM.s:2880   .debug_str:000000000000044f .LASF86
     /tmp/ccpQE5XM.s:2740   .debug_str:0000000000000016 .LASF87
     /tmp/ccpQE5XM.s:2948   .debug_str:00000000000006e2 .LASF88
     /tmp/ccpQE5XM.s:2918   .debug_str:0000000000000573 .LASF89
     /tmp/ccpQE5XM.s:2736   .debug_str:0000000000000000 .LASF90
     /tmp/ccpQE5XM.s:2756   .debug_str:0000000000000073 .LASF91
     /tmp/ccpQE5XM.s:2738   .debug_str:0000000000000011 .LASF92
     /tmp/ccpQE5XM.s:2916   .debug_str:000000000000056d .LASF93
     /tmp/ccpQE5XM.s:2958   .debug_str:0000000000000737 .LASF94
     /tmp/ccpQE5XM.s:2952   .debug_str:0000000000000707 .LASF95
     /tmp/ccpQE5XM.s:2938   .debug_str:00000000000005fa .LASF96
     /tmp/ccpQE5XM.s:2752   .debug_str:0000000000000055 .LASF97
     /tmp/ccpQE5XM.s:2884   .debug_str:0000000000000473 .LASF98
     /tmp/ccpQE5XM.s:2772   .debug_str:00000000000000fe .LASF134
     /tmp/ccpQE5XM.s:2816   .debug_str:000000000000023b .LASF135
     /tmp/ccpQE5XM.s:2778   .debug_str:0000000000000135 .LASF99
     /tmp/ccpQE5XM.s:2774   .debug_str:000000000000010c .LASF100
     /tmp/ccpQE5XM.s:2914   .debug_str:000000000000055c .LASF101
     /tmp/ccpQE5XM.s:2786   .debug_str:0000000000000169 .LASF102
GAS LISTING /tmp/ccpQE5XM.s 			page 22


     /tmp/ccpQE5XM.s:2982   .debug_str:00000000000007d8 .LASF103
     /tmp/ccpQE5XM.s:2886   .debug_str:0000000000000490 .LASF104
     /tmp/ccpQE5XM.s:2790   .debug_str:0000000000000177 .LASF105
     /tmp/ccpQE5XM.s:342    .text:000000000000017c .LFB48
     /tmp/ccpQE5XM.s:496    .text:00000000000002a0 .LFE48
     /tmp/ccpQE5XM.s:2912   .debug_str:0000000000000554 .LASF106
     /tmp/ccpQE5XM.s:358    .text:0000000000000194 .LBB8
     /tmp/ccpQE5XM.s:370    .text:0000000000000198 .LBE8
     /tmp/ccpQE5XM.s:455    .text:0000000000000268 .LBB10
     /tmp/ccpQE5XM.s:463    .text:000000000000026c .LBE10
     /tmp/ccpQE5XM.s:2606   .debug_loc:0000000000000000 .LLST8
     /tmp/ccpQE5XM.s:469    .text:0000000000000274 .LBB12
     /tmp/ccpQE5XM.s:476    .text:0000000000000278 .LBE12
     /tmp/ccpQE5XM.s:2613   .debug_loc:0000000000000023 .LLST9
     /tmp/ccpQE5XM.s:378    .text:00000000000001ac .LVL25
     /tmp/ccpQE5XM.s:386    .text:00000000000001bc .LVL26
     /tmp/ccpQE5XM.s:398    .text:00000000000001e4 .LVL27
     /tmp/ccpQE5XM.s:406    .text:00000000000001f4 .LVL28
     /tmp/ccpQE5XM.s:413    .text:000000000000020c .LVL29
     /tmp/ccpQE5XM.s:421    .text:000000000000021c .LVL30
     /tmp/ccpQE5XM.s:428    .text:0000000000000230 .LVL31
     /tmp/ccpQE5XM.s:435    .text:0000000000000244 .LVL32
     /tmp/ccpQE5XM.s:442    .text:0000000000000258 .LVL33
     /tmp/ccpQE5XM.s:448    .text:0000000000000264 .LVL34
     /tmp/ccpQE5XM.s:483    .text:000000000000028c .LVL39
     /tmp/ccpQE5XM.s:2788   .debug_str:0000000000000172 .LASF136
     /tmp/ccpQE5XM.s:2936   .debug_str:00000000000005ea .LASF107
     /tmp/ccpQE5XM.s:2850   .debug_str:0000000000000368 .LASF108
     /tmp/ccpQE5XM.s:297    .text:0000000000000148 .LFB35
     /tmp/ccpQE5XM.s:328    .text:000000000000017c .LFE35
     /tmp/ccpQE5XM.s:2926   .debug_str:00000000000005ba .LASF109
     /tmp/ccpQE5XM.s:317    .text:000000000000016c .LVL22
     /tmp/ccpQE5XM.s:2844   .debug_str:0000000000000316 .LASF110
     /tmp/ccpQE5XM.s:2922   .debug_str:000000000000059c .LASF112
     /tmp/ccpQE5XM.s:258    .text:0000000000000110 .LFB34
     /tmp/ccpQE5XM.s:291    .text:0000000000000148 .LFE34
     /tmp/ccpQE5XM.s:278    .text:0000000000000134 .LVL21
     /tmp/ccpQE5XM.s:2974   .debug_str:0000000000000795 .LASF111
     /tmp/ccpQE5XM.s:2992   .debug_str:0000000000000802 .LASF113
     /tmp/ccpQE5XM.s:198    .text:00000000000000c8 .LFB33
     /tmp/ccpQE5XM.s:252    .text:0000000000000110 .LFE33
     /tmp/ccpQE5XM.s:2998   .debug_str:000000000000083e .LASF114
     /tmp/ccpQE5XM.s:2620   .debug_loc:0000000000000046 .LLST4
     /tmp/ccpQE5XM.s:2828   .debug_str:00000000000002c7 .LASF115
     /tmp/ccpQE5XM.s:2639   .debug_loc:0000000000000093 .LLST5
     /tmp/ccpQE5XM.s:2653   .debug_loc:00000000000000cc .LLST6
     /tmp/ccpQE5XM.s:2667   .debug_loc:0000000000000105 .LLST7
     /tmp/ccpQE5XM.s:229    .text:00000000000000f8 .LVL18
     /tmp/ccpQE5XM.s:2804   .debug_str:00000000000001e1 .LASF116
     /tmp/ccpQE5XM.s:2888   .debug_str:0000000000000495 .LASF117
     /tmp/ccpQE5XM.s:144    .text:0000000000000088 .LFB32
     /tmp/ccpQE5XM.s:192    .text:00000000000000c8 .LFE32
     /tmp/ccpQE5XM.s:2674   .debug_loc:0000000000000128 .LLST2
     /tmp/ccpQE5XM.s:2693   .debug_loc:0000000000000175 .LLST3
     /tmp/ccpQE5XM.s:169    .text:00000000000000b0 .LVL13
     /tmp/ccpQE5XM.s:2954   .debug_str:0000000000000711 .LASF118
     /tmp/ccpQE5XM.s:2798   .debug_str:00000000000001b6 .LASF119
GAS LISTING /tmp/ccpQE5XM.s 			page 23


     /tmp/ccpQE5XM.s:78     .text:000000000000003c .LFB31
     /tmp/ccpQE5XM.s:138    .text:0000000000000088 .LFE31
     /tmp/ccpQE5XM.s:2830   .debug_str:00000000000002d5 .LASF120
     /tmp/ccpQE5XM.s:2700   .debug_loc:0000000000000198 .LLST0
     /tmp/ccpQE5XM.s:2852   .debug_str:000000000000037d .LASF121
     /tmp/ccpQE5XM.s:2714   .debug_loc:00000000000001d1 .LLST1
     /tmp/ccpQE5XM.s:117    .text:0000000000000074 .LVL9
     /tmp/ccpQE5XM.s:2820   .debug_str:0000000000000289 .LASF122
     /tmp/ccpQE5XM.s:2864   .debug_str:00000000000003d0 .LASF123
     /tmp/ccpQE5XM.s:10     .text:0000000000000000 .LFB30
     /tmp/ccpQE5XM.s:72     .text:000000000000003c .LFE30
     /tmp/ccpQE5XM.s:2962   .debug_str:0000000000000754 .LASF124
     /tmp/ccpQE5XM.s:2964   .debug_str:0000000000000759 .LASF125
     /tmp/ccpQE5XM.s:2966   .debug_str:000000000000075e .LASF126
     /tmp/ccpQE5XM.s:2968   .debug_str:0000000000000763 .LASF127
     /tmp/ccpQE5XM.s:2840   .debug_str:0000000000000308 .LASF137
     /tmp/ccpQE5XM.s:2870   .debug_str:00000000000003f9 .LASF138
     /tmp/ccpQE5XM.s:3002   .debug_str:000000000000085b .LASF139
     /tmp/ccpQE5XM.s:454    .text:0000000000000268 .LVL35
     /tmp/ccpQE5XM.s:461    .text:000000000000026c .LVL36
     /tmp/ccpQE5XM.s:468    .text:0000000000000274 .LVL37
     /tmp/ccpQE5XM.s:474    .text:0000000000000278 .LVL38
     /tmp/ccpQE5XM.s:201    .text:00000000000000c8 .LVL16
     /tmp/ccpQE5XM.s:227    .text:00000000000000f0 .LVL17
     /tmp/ccpQE5XM.s:237    .text:00000000000000fc .LVL19
     /tmp/ccpQE5XM.s:242    .text:0000000000000100 .LVL20
     /tmp/ccpQE5XM.s:147    .text:0000000000000088 .LVL11
     /tmp/ccpQE5XM.s:167    .text:00000000000000a8 .LVL12
     /tmp/ccpQE5XM.s:177    .text:00000000000000b4 .LVL14
     /tmp/ccpQE5XM.s:182    .text:00000000000000b8 .LVL15
     /tmp/ccpQE5XM.s:81     .text:000000000000003c .LVL5
     /tmp/ccpQE5XM.s:102    .text:000000000000005c .LVL7
     /tmp/ccpQE5XM.s:98     .text:0000000000000058 .LVL6
     /tmp/ccpQE5XM.s:502    .debug_info:0000000000000000 .Ldebug_info0

UNDEFINED SYMBOLS
_ZN5Riscv14supervisorTrapEv
_ZN7_thread5startEv
_ZN7_thread7runningE
_Z11workerBodyAPv
_Z11workerBodyBPv
_Z11printStringPKc
_ZN7_thread5yieldEv
