GAS LISTING /tmp/cc6nxWv8.s 			page 1


   1              		.file	"Main.cpp"
   2              		.option pic
   3              		.option norelax
   4              		.text
   5              	.Ltext0:
   6              		.align	2
   7              		.globl	_Z7syscallP4args
   9              	_Z7syscallP4args:
  10              	.LFB28:
  11              		.file 1 "src/../h/syscall_c.h"
   1:src/../h/syscall_c.h **** //
   2:src/../h/syscall_c.h **** // Created by os on 6/19/22.
   3:src/../h/syscall_c.h **** //
   4:src/../h/syscall_c.h **** 
   5:src/../h/syscall_c.h **** #ifndef PROJECT_BASE_V1_1_SYSCALL_C_H
   6:src/../h/syscall_c.h **** #define PROJECT_BASE_V1_1_SYSCALL_C_H
   7:src/../h/syscall_c.h **** 
   8:src/../h/syscall_c.h **** 
   9:src/../h/syscall_c.h **** #include "../h/MemoryAllocator.hpp"
  10:src/../h/syscall_c.h **** 
  11:src/../h/syscall_c.h **** 
  12:src/../h/syscall_c.h **** 
  13:src/../h/syscall_c.h **** //extern "C" void supervisorTrap();
  14:src/../h/syscall_c.h **** 
  15:src/../h/syscall_c.h **** struct args{
  16:src/../h/syscall_c.h ****     uint64 a0;
  17:src/../h/syscall_c.h ****     uint64 a1;
  18:src/../h/syscall_c.h ****     uint64 a2;
  19:src/../h/syscall_c.h ****     uint64 a3;
  20:src/../h/syscall_c.h **** 
  21:src/../h/syscall_c.h **** };
  22:src/../h/syscall_c.h **** 
  23:src/../h/syscall_c.h **** void syscall(args* arg){
  12              		.loc 1 23 24
  13              		.cfi_startproc
  14              	.LVL0:
  15 0000 130101FF 		addi	sp,sp,-16
  16              		.cfi_def_cfa_offset 16
  17 0004 23348100 		sd	s0,8(sp)
  18              		.cfi_offset 8, -8
  19 0008 13040101 		addi	s0,sp,16
  20              		.cfi_def_cfa 8, 0
  24:src/../h/syscall_c.h ****     //should prepare arguments in registers
  25:src/../h/syscall_c.h ****     //should call interrupt routine with ecall
  26:src/../h/syscall_c.h **** 
  27:src/../h/syscall_c.h **** 
  28:src/../h/syscall_c.h ****     uint64 arg0 = arg->a0;
  21              		.loc 1 28 5
  22              		.loc 1 28 12 is_stmt 0
  23 000c 03360500 		ld	a2,0(a0)
  24              	.LVL1:
  29:src/../h/syscall_c.h ****     uint64 arg1 = arg->a1;
  25              		.loc 1 29 5 is_stmt 1
  26              		.loc 1 29 12 is_stmt 0
  27 0010 83368500 		ld	a3,8(a0)
  28              	.LVL2:
  30:src/../h/syscall_c.h ****     uint64 arg2 = arg->a2;
GAS LISTING /tmp/cc6nxWv8.s 			page 2


  29              		.loc 1 30 5 is_stmt 1
  30              		.loc 1 30 12 is_stmt 0
  31 0014 03370501 		ld	a4,16(a0)
  32              	.LVL3:
  31:src/../h/syscall_c.h ****     uint64 arg3 = arg->a3;
  33              		.loc 1 31 5 is_stmt 1
  34              		.loc 1 31 12 is_stmt 0
  35 0018 83378501 		ld	a5,24(a0)
  36              	.LVL4:
  32:src/../h/syscall_c.h **** 
  33:src/../h/syscall_c.h ****     //lock this section?
  34:src/../h/syscall_c.h ****     __asm__ volatile("mv a0, %0" : : "r" (arg0));
  37              		.loc 1 34 5 is_stmt 1
  38              		.loc 1 34 49 is_stmt 0
  39              	#APP
  40              	# 34 "src/../h/syscall_c.h" 1
  35              	    __asm__ volatile("mv a1, %0" : : "r" (arg1));
  41              		mv a0, a2
  42              	# 0 "" 2
  43              		.loc 1 35 5 is_stmt 1
  44              		.loc 1 35 49 is_stmt 0
  45              	# 35 "src/../h/syscall_c.h" 1
  36              	    __asm__ volatile("mv a2, %0" : : "r" (arg2));
  46              		mv a1, a3
  47              	# 0 "" 2
  48              		.loc 1 36 5 is_stmt 1
  49              		.loc 1 36 49 is_stmt 0
  50              	# 36 "src/../h/syscall_c.h" 1
  37              	    __asm__ volatile("mv a3, %0" : : "r" (arg3));
  51              		mv a2, a4
  52              	# 0 "" 2
  53              		.loc 1 37 5 is_stmt 1
  54              		.loc 1 37 49 is_stmt 0
  55              	# 37 "src/../h/syscall_c.h" 1
  38              	
  39:src/../h/syscall_c.h **** 
  40:src/../h/syscall_c.h **** 
  41:src/../h/syscall_c.h **** //    Riscv::ms_sstatus(Riscv::SSTATUS_SIE);
  42:src/../h/syscall_c.h ****     __asm__ volatile ("ecall");
  56              		mv a3, a5
  57              	# 0 "" 2
  58              		.loc 1 42 5 is_stmt 1
  59              		.loc 1 42 31 is_stmt 0
  60              	# 42 "src/../h/syscall_c.h" 1
  43              	
  44:src/../h/syscall_c.h **** 
  45:src/../h/syscall_c.h **** }
  61              		ecall
  62              	# 0 "" 2
  63              		.loc 1 45 1
  64              	#NO_APP
  65 0030 03348100 		ld	s0,8(sp)
  66              		.cfi_restore 8
  67              		.cfi_def_cfa 2, 16
  68 0034 13010101 		addi	sp,sp,16
  69              		.cfi_def_cfa_offset 0
  70 0038 67800000 		jr	ra
GAS LISTING /tmp/cc6nxWv8.s 			page 3


  71              		.cfi_endproc
  72              	.LFE28:
  74              		.align	2
  75              		.globl	_Z9mem_allocm
  77              	_Z9mem_allocm:
  78              	.LFB29:
  46:src/../h/syscall_c.h **** 
  47:src/../h/syscall_c.h **** void* mem_alloc (size_t size){
  79              		.loc 1 47 30 is_stmt 1
  80              		.cfi_startproc
  81              	.LVL5:
  82 003c 130101FD 		addi	sp,sp,-48
  83              		.cfi_def_cfa_offset 48
  84 0040 23341102 		sd	ra,40(sp)
  85 0044 23308102 		sd	s0,32(sp)
  86              		.cfi_offset 1, -8
  87              		.cfi_offset 8, -16
  88 0048 13040103 		addi	s0,sp,48
  89              		.cfi_def_cfa 8, 0
  48:src/../h/syscall_c.h ****     //prepares parameters to arguments
  49:src/../h/syscall_c.h ****     //executes system call instruction
  50:src/../h/syscall_c.h ****     args arg;
  90              		.loc 1 50 5
  51:src/../h/syscall_c.h ****     arg.a0=0x01;
  91              		.loc 1 51 5
  92              		.loc 1 51 11 is_stmt 0
  93 004c 93071000 		li	a5,1
  94 0050 2338F4FC 		sd	a5,-48(s0)
  52:src/../h/syscall_c.h **** 
  53:src/../h/syscall_c.h ****     size_t blocks = size/MEM_BLOCK_SIZE;
  95              		.loc 1 53 5 is_stmt 1
  96              		.loc 1 53 12 is_stmt 0
  97 0054 93576500 		srli	a5,a0,6
  98              	.LVL6:
  54:src/../h/syscall_c.h ****     if(size%MEM_BLOCK_SIZE!=0)blocks++;
  99              		.loc 1 54 5 is_stmt 1
 100              		.loc 1 54 12 is_stmt 0
 101 0058 1375F503 		andi	a0,a0,63
 102              	.LVL7:
 103              		.loc 1 54 5
 104 005c 63040500 		beqz	a0,.L4
 105              		.loc 1 54 31 is_stmt 1 discriminator 1
 106              		.loc 1 54 37 is_stmt 0 discriminator 1
 107 0060 93871700 		addi	a5,a5,1
 108              	.LVL8:
 109              	.L4:
  55:src/../h/syscall_c.h ****     arg.a1=blocks;
 110              		.loc 1 55 5 is_stmt 1
 111              		.loc 1 55 11 is_stmt 0
 112 0064 233CF4FC 		sd	a5,-40(s0)
  56:src/../h/syscall_c.h **** 
  57:src/../h/syscall_c.h ****     syscall(&arg);
 113              		.loc 1 57 5 is_stmt 1
 114              		.loc 1 57 12 is_stmt 0
 115 0068 130504FD 		addi	a0,s0,-48
 116 006c 97000000 		call	_Z7syscallP4args
 116      E7800000 
GAS LISTING /tmp/cc6nxWv8.s 			page 4


 117              	.LVL9:
  58:src/../h/syscall_c.h **** 
  59:src/../h/syscall_c.h ****     uint64 ret;
 118              		.loc 1 59 5 is_stmt 1
  60:src/../h/syscall_c.h ****     __asm__ volatile("mv %0, a0" : "=r" (ret));
 119              		.loc 1 60 5
 120              		.loc 1 60 47 is_stmt 0
 121              	#APP
 122              	# 60 "src/../h/syscall_c.h" 1
  61              	
 123              		mv a0, a0
 124              	# 0 "" 2
 125              	.LVL10:
  62:src/../h/syscall_c.h ****     return (void*)ret;
 126              		.loc 1 62 5 is_stmt 1
  63:src/../h/syscall_c.h **** }
 127              		.loc 1 63 1 is_stmt 0
 128              	#NO_APP
 129 0078 83308102 		ld	ra,40(sp)
 130              		.cfi_restore 1
 131 007c 03340102 		ld	s0,32(sp)
 132              		.cfi_restore 8
 133              		.cfi_def_cfa 2, 48
 134 0080 13010103 		addi	sp,sp,48
 135              		.cfi_def_cfa_offset 0
 136 0084 67800000 		jr	ra
 137              		.cfi_endproc
 138              	.LFE29:
 140              		.align	2
 141              		.globl	_Z8mem_freePv
 143              	_Z8mem_freePv:
 144              	.LFB30:
  64:src/../h/syscall_c.h **** 
  65:src/../h/syscall_c.h **** int mem_free (void* p){
 145              		.loc 1 65 23 is_stmt 1
 146              		.cfi_startproc
 147              	.LVL11:
 148 0088 130101FD 		addi	sp,sp,-48
 149              		.cfi_def_cfa_offset 48
 150 008c 23341102 		sd	ra,40(sp)
 151 0090 23308102 		sd	s0,32(sp)
 152              		.cfi_offset 1, -8
 153              		.cfi_offset 8, -16
 154 0094 13040103 		addi	s0,sp,48
 155              		.cfi_def_cfa 8, 0
  66:src/../h/syscall_c.h ****     args arg;
 156              		.loc 1 66 5
  67:src/../h/syscall_c.h ****     arg.a0=0x02;
 157              		.loc 1 67 5
 158              		.loc 1 67 11 is_stmt 0
 159 0098 93072000 		li	a5,2
 160 009c 2338F4FC 		sd	a5,-48(s0)
  68:src/../h/syscall_c.h ****     arg.a1=(uint64)p;
 161              		.loc 1 68 5 is_stmt 1
 162              		.loc 1 68 11 is_stmt 0
 163 00a0 233CA4FC 		sd	a0,-40(s0)
  69:src/../h/syscall_c.h **** 
GAS LISTING /tmp/cc6nxWv8.s 			page 5


  70:src/../h/syscall_c.h ****     syscall(&arg);
 164              		.loc 1 70 5 is_stmt 1
 165              		.loc 1 70 12 is_stmt 0
 166 00a4 130504FD 		addi	a0,s0,-48
 167              	.LVL12:
 168 00a8 97000000 		call	_Z7syscallP4args
 168      E7800000 
 169              	.LVL13:
  71:src/../h/syscall_c.h ****     uint64 ret;
 170              		.loc 1 71 5 is_stmt 1
  72:src/../h/syscall_c.h ****     __asm__ volatile("mv %0, a0" : "=r" (ret));
 171              		.loc 1 72 5
 172              		.loc 1 72 47 is_stmt 0
 173              	#APP
 174              	# 72 "src/../h/syscall_c.h" 1
  73              	    return (int)ret;
 175              		mv a0, a0
 176              	# 0 "" 2
 177              	.LVL14:
 178              		.loc 1 73 5 is_stmt 1
  74:src/../h/syscall_c.h **** }
 179              		.loc 1 74 1 is_stmt 0
 180              	#NO_APP
 181 00b4 1B050500 		sext.w	a0,a0
 182              	.LVL15:
 183 00b8 83308102 		ld	ra,40(sp)
 184              		.cfi_restore 1
 185 00bc 03340102 		ld	s0,32(sp)
 186              		.cfi_restore 8
 187              		.cfi_def_cfa 2, 48
 188 00c0 13010103 		addi	sp,sp,48
 189              		.cfi_def_cfa_offset 0
 190 00c4 67800000 		jr	ra
 191              		.cfi_endproc
 192              	.LFE30:
 194              		.align	2
 195              		.globl	_Z13thread_createPP7_threadPFvPvES2_
 197              	_Z13thread_createPP7_threadPFvPvES2_:
 198              	.LFB31:
  75:src/../h/syscall_c.h **** 
  76:src/../h/syscall_c.h **** class _thread;
  77:src/../h/syscall_c.h **** typedef _thread* thread_t;  //thread_t je pokazivac, a handle je pokazivac na pokazivac tipa _threa
  78:src/../h/syscall_c.h **** int thread_create (
  79:src/../h/syscall_c.h ****         thread_t* handle,
  80:src/../h/syscall_c.h ****         void(*start_routine)(void*),
  81:src/../h/syscall_c.h ****         void* arg
  82:src/../h/syscall_c.h **** ){
 199              		.loc 1 82 2 is_stmt 1
 200              		.cfi_startproc
 201              	.LVL16:
 202 00c8 130101FD 		addi	sp,sp,-48
 203              		.cfi_def_cfa_offset 48
 204 00cc 23341102 		sd	ra,40(sp)
 205 00d0 23308102 		sd	s0,32(sp)
 206              		.cfi_offset 1, -8
 207              		.cfi_offset 8, -16
 208 00d4 13040103 		addi	s0,sp,48
GAS LISTING /tmp/cc6nxWv8.s 			page 6


 209              		.cfi_def_cfa 8, 0
  83:src/../h/syscall_c.h ****     args myArgs;
 210              		.loc 1 83 5
  84:src/../h/syscall_c.h ****     myArgs.a0=0x11;
 211              		.loc 1 84 5
 212              		.loc 1 84 14 is_stmt 0
 213 00d8 93071001 		li	a5,17
 214 00dc 2338F4FC 		sd	a5,-48(s0)
  85:src/../h/syscall_c.h ****     myArgs.a1=(uint64)handle;   //on address handle there is thread_t adress
 215              		.loc 1 85 5 is_stmt 1
 216              		.loc 1 85 14 is_stmt 0
 217 00e0 233CA4FC 		sd	a0,-40(s0)
  86:src/../h/syscall_c.h ****     myArgs.a2=(uint64)start_routine;
 218              		.loc 1 86 5 is_stmt 1
 219              		.loc 1 86 14 is_stmt 0
 220 00e4 2330B4FE 		sd	a1,-32(s0)
  87:src/../h/syscall_c.h ****     myArgs.a3=(uint64)arg;
 221              		.loc 1 87 5 is_stmt 1
 222              		.loc 1 87 14 is_stmt 0
 223 00e8 2334C4FE 		sd	a2,-24(s0)
  88:src/../h/syscall_c.h **** 
  89:src/../h/syscall_c.h ****     syscall(&myArgs);
 224              		.loc 1 89 5 is_stmt 1
 225              		.loc 1 89 12 is_stmt 0
 226 00ec 130504FD 		addi	a0,s0,-48
 227              	.LVL17:
 228 00f0 97000000 		call	_Z7syscallP4args
 228      E7800000 
 229              	.LVL18:
  90:src/../h/syscall_c.h ****     uint64 ret;
 230              		.loc 1 90 5 is_stmt 1
  91:src/../h/syscall_c.h ****     __asm__ volatile("mv %0, a0" : "=r" (ret));
 231              		.loc 1 91 5
 232              		.loc 1 91 47 is_stmt 0
 233              	#APP
 234              	# 91 "src/../h/syscall_c.h" 1
  92              	    if((thread_t*)ret != nullptr){
 235              		mv a5, a0
 236              	# 0 "" 2
 237              	.LVL19:
 238              		.loc 1 92 5 is_stmt 1
 239              	#NO_APP
 240 00fc 638C0700 		beqz	a5,.L10
  93:src/../h/syscall_c.h ****         handle = (thread_t*)&ret;
  94:src/../h/syscall_c.h ****         return 0;
 241              		.loc 1 94 16 is_stmt 0
 242 0100 13050000 		li	a0,0
 243              	.L9:
 244              	.LVL20:
  95:src/../h/syscall_c.h ****     }
  96:src/../h/syscall_c.h ****     else{
  97:src/../h/syscall_c.h ****         return -1;
  98:src/../h/syscall_c.h ****     }
  99:src/../h/syscall_c.h ****     return (int)ret;
 100:src/../h/syscall_c.h **** }
 245              		.loc 1 100 1
 246 0104 83308102 		ld	ra,40(sp)
GAS LISTING /tmp/cc6nxWv8.s 			page 7


 247              		.cfi_remember_state
 248              		.cfi_restore 1
 249 0108 03340102 		ld	s0,32(sp)
 250              		.cfi_restore 8
 251              		.cfi_def_cfa 2, 48
 252 010c 13010103 		addi	sp,sp,48
 253              		.cfi_def_cfa_offset 0
 254 0110 67800000 		jr	ra
 255              	.LVL21:
 256              	.L10:
 257              		.cfi_restore_state
  97:src/../h/syscall_c.h ****     }
 258              		.loc 1 97 17
 259 0114 1305F0FF 		li	a0,-1
 260 0118 6FF0DFFE 		j	.L9
 261              		.cfi_endproc
 262              	.LFE31:
 264              		.section	.rodata.str1.8,"aMS",@progbits,1
 265              		.align	3
 266              	.LC0:
 267 0000 74687265 		.string	"thread created \n"
 267      61642063 
 267      72656174 
 267      6564200A 
 267      00
 268 0011 00000000 		.align	3
 268      000000
 269              	.LC1:
 270 0018 6572726F 		.string	"error \n"
 270      72200A00 
 271              		.text
 272              		.align	2
 273              		.globl	main
 275              	main:
 276              	.LFB44:
 277              		.file 2 "src/Main.cpp"
   1:src/Main.cpp  **** //
   2:src/Main.cpp  **** // Created by os on 6/18/22.
   3:src/Main.cpp  **** //
   4:src/Main.cpp  **** 
   5:src/Main.cpp  **** #include "../h/Riscv.hpp"
   6:src/Main.cpp  **** #include "../h/List.hpp"
   7:src/Main.cpp  **** #include "../h/syscall_c.h"
   8:src/Main.cpp  **** #include "../h/Print.hpp"
   9:src/Main.cpp  **** #include "../h/workers.hpp"
  10:src/Main.cpp  **** #include "../h/_thread.hpp"
  11:src/Main.cpp  **** 
  12:src/Main.cpp  **** int main(){
 278              		.loc 2 12 11 is_stmt 1
 279              		.cfi_startproc
 280 011c 130101FD 		addi	sp,sp,-48
 281              		.cfi_def_cfa_offset 48
 282 0120 23341102 		sd	ra,40(sp)
 283 0124 23308102 		sd	s0,32(sp)
 284              		.cfi_offset 1, -8
 285              		.cfi_offset 8, -16
 286 0128 13040103 		addi	s0,sp,48
GAS LISTING /tmp/cc6nxWv8.s 			page 8


 287              		.cfi_def_cfa 8, 0
  13:src/Main.cpp  **** 
  14:src/Main.cpp  **** //    Riscv::w_stvec((uint64)&supervisorTrap);
  15:src/Main.cpp  **** //    Riscv::ms_sstatus(Riscv::SSTATUS_SIE);
  16:src/Main.cpp  **** //    __asm__ volatile ("ecall");
  17:src/Main.cpp  ****     Riscv::w_stvec((uint64)&Riscv::supervisorTrap);
 288              		.loc 2 17 5
 289              		.loc 2 17 19 is_stmt 0
 290 012c 97070000 		la	a5,_ZN5Riscv14supervisorTrapEv
 290      83B70700 
 291              	.LVL22:
 292              	.LBB4:
 293              	.LBB5:
 294              		.file 3 "src/../h/Riscv.hpp"
   1:src/../h/Riscv.hpp **** //
   2:src/../h/Riscv.hpp **** // Created by os on 6/17/22.
   3:src/../h/Riscv.hpp **** //
   4:src/../h/Riscv.hpp **** 
   5:src/../h/Riscv.hpp **** #ifndef PROJECT_BASE_V1_1_RISCV_HPP
   6:src/../h/Riscv.hpp **** #define PROJECT_BASE_V1_1_RISCV_HPP
   7:src/../h/Riscv.hpp **** 
   8:src/../h/Riscv.hpp **** #include "../lib/hw.h"
   9:src/../h/Riscv.hpp **** 
  10:src/../h/Riscv.hpp **** 
  11:src/../h/Riscv.hpp **** class Riscv
  12:src/../h/Riscv.hpp **** {
  13:src/../h/Riscv.hpp **** public:
  14:src/../h/Riscv.hpp **** 
  15:src/../h/Riscv.hpp ****     // pop sstatus.spp and sstatus.spie bits (has to be a non inline function)
  16:src/../h/Riscv.hpp ****     static void popSppSpie();
  17:src/../h/Riscv.hpp **** 
  18:src/../h/Riscv.hpp ****     // read register scause
  19:src/../h/Riscv.hpp ****     static uint64 r_scause();
  20:src/../h/Riscv.hpp **** 
  21:src/../h/Riscv.hpp ****     // write register scause
  22:src/../h/Riscv.hpp ****     static void w_scause(uint64 scause);
  23:src/../h/Riscv.hpp **** 
  24:src/../h/Riscv.hpp ****     // read register sepc
  25:src/../h/Riscv.hpp ****     static uint64 r_sepc();
  26:src/../h/Riscv.hpp **** 
  27:src/../h/Riscv.hpp ****     // write register sepc
  28:src/../h/Riscv.hpp ****     static void w_sepc(uint64 sepc);
  29:src/../h/Riscv.hpp **** 
  30:src/../h/Riscv.hpp ****     // read register stvec
  31:src/../h/Riscv.hpp ****     static uint64 r_stvec();
  32:src/../h/Riscv.hpp **** 
  33:src/../h/Riscv.hpp ****     // write register stvec
  34:src/../h/Riscv.hpp ****     static void w_stvec(uint64 stvec);
  35:src/../h/Riscv.hpp **** 
  36:src/../h/Riscv.hpp ****     // read register stval
  37:src/../h/Riscv.hpp ****     static uint64 r_stval();
  38:src/../h/Riscv.hpp **** 
  39:src/../h/Riscv.hpp ****     // write register stval
  40:src/../h/Riscv.hpp ****     static void w_stval(uint64 stval);
  41:src/../h/Riscv.hpp **** 
  42:src/../h/Riscv.hpp ****     enum BitMaskSip
  43:src/../h/Riscv.hpp ****     {
GAS LISTING /tmp/cc6nxWv8.s 			page 9


  44:src/../h/Riscv.hpp ****         SIP_SSIP = (1 << 1),
  45:src/../h/Riscv.hpp ****         SIP_STIP = (1 << 5),
  46:src/../h/Riscv.hpp ****         SIP_SEIP = (1 << 9),
  47:src/../h/Riscv.hpp ****     };
  48:src/../h/Riscv.hpp **** 
  49:src/../h/Riscv.hpp ****     // mask set register sip
  50:src/../h/Riscv.hpp ****     static void ms_sip(uint64 mask);
  51:src/../h/Riscv.hpp **** 
  52:src/../h/Riscv.hpp ****     // mask clear register sip
  53:src/../h/Riscv.hpp ****     static void mc_sip(uint64 mask);
  54:src/../h/Riscv.hpp **** 
  55:src/../h/Riscv.hpp ****     // read register sip
  56:src/../h/Riscv.hpp ****     static uint64 r_sip();
  57:src/../h/Riscv.hpp **** 
  58:src/../h/Riscv.hpp ****     // write register sip
  59:src/../h/Riscv.hpp ****     static void w_sip(uint64 sip);
  60:src/../h/Riscv.hpp **** 
  61:src/../h/Riscv.hpp ****     enum BitMaskSstatus
  62:src/../h/Riscv.hpp ****     {
  63:src/../h/Riscv.hpp ****         SSTATUS_SIE = (1 << 1),
  64:src/../h/Riscv.hpp ****         SSTATUS_SPIE = (1 << 5),
  65:src/../h/Riscv.hpp ****         SSTATUS_SPP = (1 << 8),
  66:src/../h/Riscv.hpp ****     };
  67:src/../h/Riscv.hpp **** 
  68:src/../h/Riscv.hpp ****     // mask set register sstatus
  69:src/../h/Riscv.hpp ****     static void ms_sstatus(uint64 mask);
  70:src/../h/Riscv.hpp **** 
  71:src/../h/Riscv.hpp ****     // mask clear register sstatus
  72:src/../h/Riscv.hpp ****     static void mc_sstatus(uint64 mask);
  73:src/../h/Riscv.hpp **** 
  74:src/../h/Riscv.hpp ****     // read register sstatus
  75:src/../h/Riscv.hpp ****     static uint64 r_sstatus();
  76:src/../h/Riscv.hpp **** 
  77:src/../h/Riscv.hpp ****     // write register sstatus
  78:src/../h/Riscv.hpp ****     static void w_sstatus(uint64 sstatus);
  79:src/../h/Riscv.hpp **** 
  80:src/../h/Riscv.hpp ****     // supervisor trap
  81:src/../h/Riscv.hpp ****     static void supervisorTrap();
  82:src/../h/Riscv.hpp **** 
  83:src/../h/Riscv.hpp **** private:
  84:src/../h/Riscv.hpp **** 
  85:src/../h/Riscv.hpp ****     // supervisor trap handler
  86:src/../h/Riscv.hpp ****     static void handleSupervisorTrap();
  87:src/../h/Riscv.hpp **** 
  88:src/../h/Riscv.hpp ****     static void syscallHandler();
  89:src/../h/Riscv.hpp **** 
  90:src/../h/Riscv.hpp **** };
  91:src/../h/Riscv.hpp **** 
  92:src/../h/Riscv.hpp **** inline uint64 Riscv::r_scause()
  93:src/../h/Riscv.hpp **** {
  94:src/../h/Riscv.hpp ****     uint64 volatile scause;
  95:src/../h/Riscv.hpp ****     __asm__ volatile ("csrr %[scause], scause" : [scause] "=r"(scause));
  96:src/../h/Riscv.hpp ****     return scause;
  97:src/../h/Riscv.hpp **** }
  98:src/../h/Riscv.hpp **** 
  99:src/../h/Riscv.hpp **** inline void Riscv::w_scause(uint64 scause)
 100:src/../h/Riscv.hpp **** {
GAS LISTING /tmp/cc6nxWv8.s 			page 10


 101:src/../h/Riscv.hpp ****     __asm__ volatile ("csrw scause, %[scause]" : : [scause] "r"(scause));
 102:src/../h/Riscv.hpp **** }
 103:src/../h/Riscv.hpp **** 
 104:src/../h/Riscv.hpp **** inline uint64 Riscv::r_sepc()
 105:src/../h/Riscv.hpp **** {
 106:src/../h/Riscv.hpp ****     uint64 volatile sepc;
 107:src/../h/Riscv.hpp ****     __asm__ volatile ("csrr %[sepc], sepc" : [sepc] "=r"(sepc));
 108:src/../h/Riscv.hpp ****     return sepc;
 109:src/../h/Riscv.hpp **** }
 110:src/../h/Riscv.hpp **** 
 111:src/../h/Riscv.hpp **** inline void Riscv::w_sepc(uint64 sepc)
 112:src/../h/Riscv.hpp **** {
 113:src/../h/Riscv.hpp ****     __asm__ volatile ("csrw sepc, %[sepc]" : : [sepc] "r"(sepc));
 114:src/../h/Riscv.hpp **** }
 115:src/../h/Riscv.hpp **** 
 116:src/../h/Riscv.hpp **** inline uint64 Riscv::r_stvec()
 117:src/../h/Riscv.hpp **** {
 118:src/../h/Riscv.hpp ****     uint64 volatile stvec;
 119:src/../h/Riscv.hpp ****     __asm__ volatile ("csrr %[stvec], stvec" : [stvec] "=r"(stvec));
 120:src/../h/Riscv.hpp ****     return stvec;
 121:src/../h/Riscv.hpp **** }
 122:src/../h/Riscv.hpp **** 
 123:src/../h/Riscv.hpp **** inline void Riscv::w_stvec(uint64 stvec)
 124:src/../h/Riscv.hpp **** {
 125:src/../h/Riscv.hpp ****     __asm__ volatile ("csrw stvec, %[stvec]" : : [stvec] "r"(stvec));
 295              		.loc 3 125 5 is_stmt 1
 296              		.loc 3 125 69 is_stmt 0
 297              	#APP
 298              	# 125 "src/../h/Riscv.hpp" 1
 126              	}
 299              		csrw stvec, a5
 300              	# 0 "" 2
 301              	.LVL23:
 302              	#NO_APP
 303              	.LBE5:
 304              	.LBE4:
  18:src/Main.cpp  **** 
  19:src/Main.cpp  **** //    void* ptr;
  20:src/Main.cpp  **** //    ptr = mem_alloc(300);
  21:src/Main.cpp  **** //    if(ptr!=nullptr){
  22:src/Main.cpp  **** //        printString("allocated \n");
  23:src/Main.cpp  **** //    }
  24:src/Main.cpp  **** //    if(!mem_free(ptr)){
  25:src/Main.cpp  **** //        printString("successfully freed \n");
  26:src/Main.cpp  **** //    }
  27:src/Main.cpp  **** //    else{
  28:src/Main.cpp  **** //        printString("not freed \n");
  29:src/Main.cpp  **** //    }
  30:src/Main.cpp  **** 
  31:src/Main.cpp  ****     _thread* threads[3];
 305              		.loc 2 31 5 is_stmt 1
  32:src/Main.cpp  ****     if(!thread_create(&threads[0], reinterpret_cast<void (*)(void *)>(workerBodyA), nullptr)){
 306              		.loc 2 32 5
 307              		.loc 2 32 22 is_stmt 0
 308 0138 13060000 		li	a2,0
 309 013c 97050000 		la	a1,_Z11workerBodyAv
 309      83B50500 
GAS LISTING /tmp/cc6nxWv8.s 			page 11


 310 0144 130584FD 		addi	a0,s0,-40
 311 0148 97000000 		call	_Z13thread_createPP7_threadPFvPvES2_
 311      E7800000 
 312              	.LVL24:
 313              		.loc 2 32 5
 314 0150 63140502 		bnez	a0,.L13
  33:src/Main.cpp  ****         printString("thread created \n");
 315              		.loc 2 33 9 is_stmt 1
 316              		.loc 2 33 20 is_stmt 0
 317 0154 17050000 		lla	a0,.LC0
 317      13050500 
 318 015c 97000000 		call	_Z11printStringPKc@plt
 318      E7800000 
 319              	.LVL25:
 320              	.L14:
  34:src/Main.cpp  **** 
  35:src/Main.cpp  ****     } else{
  36:src/Main.cpp  ****         printString("error \n");
  37:src/Main.cpp  **** 
  38:src/Main.cpp  ****     }
  39:src/Main.cpp  **** 
  40:src/Main.cpp  ****     return 0;
 321              		.loc 2 40 5 is_stmt 1
  41:src/Main.cpp  **** }
 322              		.loc 2 41 1 is_stmt 0
 323 0164 13050000 		li	a0,0
 324 0168 83308102 		ld	ra,40(sp)
 325              		.cfi_remember_state
 326              		.cfi_restore 1
 327 016c 03340102 		ld	s0,32(sp)
 328              		.cfi_restore 8
 329              		.cfi_def_cfa 2, 48
 330 0170 13010103 		addi	sp,sp,48
 331              		.cfi_def_cfa_offset 0
 332 0174 67800000 		jr	ra
 333              	.L13:
 334              		.cfi_restore_state
  36:src/Main.cpp  **** 
 335              		.loc 2 36 9 is_stmt 1
  36:src/Main.cpp  **** 
 336              		.loc 2 36 20 is_stmt 0
 337 0178 17050000 		lla	a0,.LC1
 337      13050500 
 338 0180 97000000 		call	_Z11printStringPKc@plt
 338      E7800000 
 339              	.LVL26:
 340 0188 6FF0DFFD 		j	.L14
 341              		.cfi_endproc
 342              	.LFE44:
 344              	.Letext0:
 345              		.file 4 "src/../h/../lib/hw.h"
 346              		.file 5 "src/../h/_thread.hpp"
 347              		.file 6 "src/../h/Print.hpp"
GAS LISTING /tmp/cc6nxWv8.s 			page 12


DEFINED SYMBOLS
                            *ABS*:0000000000000000 Main.cpp
     /tmp/cc6nxWv8.s:9      .text:0000000000000000 _Z7syscallP4args
     /tmp/cc6nxWv8.s:13     .text:0000000000000000 .L0 
     /tmp/cc6nxWv8.s:15     .text:0000000000000000 .L0 
     /tmp/cc6nxWv8.s:16     .text:0000000000000004 .L0 
     /tmp/cc6nxWv8.s:18     .text:0000000000000008 .L0 
     /tmp/cc6nxWv8.s:20     .text:000000000000000c .L0 
     /tmp/cc6nxWv8.s:22     .text:000000000000000c .L0 
     /tmp/cc6nxWv8.s:23     .text:000000000000000c .L0 
     /tmp/cc6nxWv8.s:26     .text:0000000000000010 .L0 
     /tmp/cc6nxWv8.s:27     .text:0000000000000010 .L0 
     /tmp/cc6nxWv8.s:30     .text:0000000000000014 .L0 
     /tmp/cc6nxWv8.s:31     .text:0000000000000014 .L0 
     /tmp/cc6nxWv8.s:34     .text:0000000000000018 .L0 
     /tmp/cc6nxWv8.s:35     .text:0000000000000018 .L0 
     /tmp/cc6nxWv8.s:38     .text:000000000000001c .L0 
src/../h/syscall_c.h:34     .text:000000000000001c .L0 
     /tmp/cc6nxWv8.s:44     .text:0000000000000020 .L0 
src/../h/syscall_c.h:35     .text:0000000000000020 .L0 
     /tmp/cc6nxWv8.s:49     .text:0000000000000024 .L0 
src/../h/syscall_c.h:36     .text:0000000000000024 .L0 
     /tmp/cc6nxWv8.s:54     .text:0000000000000028 .L0 
src/../h/syscall_c.h:37     .text:0000000000000028 .L0 
     /tmp/cc6nxWv8.s:59     .text:000000000000002c .L0 
src/../h/syscall_c.h:42     .text:000000000000002c .L0 
     /tmp/cc6nxWv8.s:65     .text:0000000000000030 .L0 
     /tmp/cc6nxWv8.s:66     .text:0000000000000034 .L0 
     /tmp/cc6nxWv8.s:67     .text:0000000000000034 .L0 
     /tmp/cc6nxWv8.s:69     .text:0000000000000038 .L0 
     /tmp/cc6nxWv8.s:71     .text:000000000000003c .L0 
     /tmp/cc6nxWv8.s:77     .text:000000000000003c _Z9mem_allocm
     /tmp/cc6nxWv8.s:80     .text:000000000000003c .L0 
     /tmp/cc6nxWv8.s:82     .text:000000000000003c .L0 
     /tmp/cc6nxWv8.s:83     .text:0000000000000040 .L0 
     /tmp/cc6nxWv8.s:86     .text:0000000000000048 .L0 
     /tmp/cc6nxWv8.s:87     .text:0000000000000048 .L0 
     /tmp/cc6nxWv8.s:89     .text:000000000000004c .L0 
     /tmp/cc6nxWv8.s:91     .text:000000000000004c .L0 
     /tmp/cc6nxWv8.s:92     .text:000000000000004c .L0 
     /tmp/cc6nxWv8.s:93     .text:000000000000004c .L0 
     /tmp/cc6nxWv8.s:96     .text:0000000000000054 .L0 
     /tmp/cc6nxWv8.s:97     .text:0000000000000054 .L0 
     /tmp/cc6nxWv8.s:100    .text:0000000000000058 .L0 
     /tmp/cc6nxWv8.s:101    .text:0000000000000058 .L0 
     /tmp/cc6nxWv8.s:104    .text:000000000000005c .L0 
     /tmp/cc6nxWv8.s:106    .text:0000000000000060 .L0 
     /tmp/cc6nxWv8.s:107    .text:0000000000000060 .L0 
     /tmp/cc6nxWv8.s:111    .text:0000000000000064 .L0 
     /tmp/cc6nxWv8.s:112    .text:0000000000000064 .L0 
     /tmp/cc6nxWv8.s:114    .text:0000000000000068 .L0 
     /tmp/cc6nxWv8.s:115    .text:0000000000000068 .L0 
     /tmp/cc6nxWv8.s:119    .text:0000000000000074 .L0 
     /tmp/cc6nxWv8.s:120    .text:0000000000000074 .L0 
src/../h/syscall_c.h:60     .text:0000000000000074 .L0 
     /tmp/cc6nxWv8.s:127    .text:0000000000000078 .L0 
     /tmp/cc6nxWv8.s:129    .text:0000000000000078 .L0 
GAS LISTING /tmp/cc6nxWv8.s 			page 13


     /tmp/cc6nxWv8.s:130    .text:000000000000007c .L0 
     /tmp/cc6nxWv8.s:132    .text:0000000000000080 .L0 
     /tmp/cc6nxWv8.s:133    .text:0000000000000080 .L0 
     /tmp/cc6nxWv8.s:135    .text:0000000000000084 .L0 
     /tmp/cc6nxWv8.s:137    .text:0000000000000088 .L0 
     /tmp/cc6nxWv8.s:143    .text:0000000000000088 _Z8mem_freePv
     /tmp/cc6nxWv8.s:146    .text:0000000000000088 .L0 
     /tmp/cc6nxWv8.s:148    .text:0000000000000088 .L0 
     /tmp/cc6nxWv8.s:149    .text:000000000000008c .L0 
     /tmp/cc6nxWv8.s:152    .text:0000000000000094 .L0 
     /tmp/cc6nxWv8.s:153    .text:0000000000000094 .L0 
     /tmp/cc6nxWv8.s:155    .text:0000000000000098 .L0 
     /tmp/cc6nxWv8.s:157    .text:0000000000000098 .L0 
     /tmp/cc6nxWv8.s:158    .text:0000000000000098 .L0 
     /tmp/cc6nxWv8.s:159    .text:0000000000000098 .L0 
     /tmp/cc6nxWv8.s:162    .text:00000000000000a0 .L0 
     /tmp/cc6nxWv8.s:163    .text:00000000000000a0 .L0 
     /tmp/cc6nxWv8.s:165    .text:00000000000000a4 .L0 
     /tmp/cc6nxWv8.s:166    .text:00000000000000a4 .L0 
     /tmp/cc6nxWv8.s:171    .text:00000000000000b0 .L0 
     /tmp/cc6nxWv8.s:172    .text:00000000000000b0 .L0 
src/../h/syscall_c.h:72     .text:00000000000000b0 .L0 
     /tmp/cc6nxWv8.s:179    .text:00000000000000b4 .L0 
     /tmp/cc6nxWv8.s:181    .text:00000000000000b4 .L0 
     /tmp/cc6nxWv8.s:184    .text:00000000000000bc .L0 
     /tmp/cc6nxWv8.s:186    .text:00000000000000c0 .L0 
     /tmp/cc6nxWv8.s:187    .text:00000000000000c0 .L0 
     /tmp/cc6nxWv8.s:189    .text:00000000000000c4 .L0 
     /tmp/cc6nxWv8.s:191    .text:00000000000000c8 .L0 
     /tmp/cc6nxWv8.s:197    .text:00000000000000c8 _Z13thread_createPP7_threadPFvPvES2_
     /tmp/cc6nxWv8.s:200    .text:00000000000000c8 .L0 
     /tmp/cc6nxWv8.s:202    .text:00000000000000c8 .L0 
     /tmp/cc6nxWv8.s:203    .text:00000000000000cc .L0 
     /tmp/cc6nxWv8.s:206    .text:00000000000000d4 .L0 
     /tmp/cc6nxWv8.s:207    .text:00000000000000d4 .L0 
     /tmp/cc6nxWv8.s:209    .text:00000000000000d8 .L0 
     /tmp/cc6nxWv8.s:211    .text:00000000000000d8 .L0 
     /tmp/cc6nxWv8.s:212    .text:00000000000000d8 .L0 
     /tmp/cc6nxWv8.s:213    .text:00000000000000d8 .L0 
     /tmp/cc6nxWv8.s:216    .text:00000000000000e0 .L0 
     /tmp/cc6nxWv8.s:217    .text:00000000000000e0 .L0 
     /tmp/cc6nxWv8.s:219    .text:00000000000000e4 .L0 
     /tmp/cc6nxWv8.s:220    .text:00000000000000e4 .L0 
     /tmp/cc6nxWv8.s:222    .text:00000000000000e8 .L0 
     /tmp/cc6nxWv8.s:223    .text:00000000000000e8 .L0 
     /tmp/cc6nxWv8.s:225    .text:00000000000000ec .L0 
     /tmp/cc6nxWv8.s:226    .text:00000000000000ec .L0 
     /tmp/cc6nxWv8.s:231    .text:00000000000000f8 .L0 
     /tmp/cc6nxWv8.s:232    .text:00000000000000f8 .L0 
src/../h/syscall_c.h:91     .text:00000000000000f8 .L0 
     /tmp/cc6nxWv8.s:240    .text:00000000000000fc .L0 
     /tmp/cc6nxWv8.s:242    .text:0000000000000100 .L0 
     /tmp/cc6nxWv8.s:246    .text:0000000000000104 .L0 
     /tmp/cc6nxWv8.s:247    .text:0000000000000108 .L0 
     /tmp/cc6nxWv8.s:248    .text:0000000000000108 .L0 
     /tmp/cc6nxWv8.s:250    .text:000000000000010c .L0 
     /tmp/cc6nxWv8.s:251    .text:000000000000010c .L0 
GAS LISTING /tmp/cc6nxWv8.s 			page 14


     /tmp/cc6nxWv8.s:253    .text:0000000000000110 .L0 
     /tmp/cc6nxWv8.s:257    .text:0000000000000114 .L0 
     /tmp/cc6nxWv8.s:259    .text:0000000000000114 .L0 
     /tmp/cc6nxWv8.s:261    .text:000000000000011c .L0 
     /tmp/cc6nxWv8.s:275    .text:000000000000011c main
     /tmp/cc6nxWv8.s:279    .text:000000000000011c .L0 
     /tmp/cc6nxWv8.s:280    .text:000000000000011c .L0 
     /tmp/cc6nxWv8.s:281    .text:0000000000000120 .L0 
     /tmp/cc6nxWv8.s:284    .text:0000000000000128 .L0 
     /tmp/cc6nxWv8.s:285    .text:0000000000000128 .L0 
     /tmp/cc6nxWv8.s:287    .text:000000000000012c .L0 
     /tmp/cc6nxWv8.s:289    .text:000000000000012c .L0 
     /tmp/cc6nxWv8.s:290    .text:000000000000012c .L0 
     /tmp/cc6nxWv8.s:296    .text:0000000000000134 .L0 
  src/../h/Riscv.hpp:125    .text:0000000000000134 .L0 
     /tmp/cc6nxWv8.s:306    .text:0000000000000138 .L0 
     /tmp/cc6nxWv8.s:307    .text:0000000000000138 .L0 
     /tmp/cc6nxWv8.s:308    .text:0000000000000138 .L0 
     /tmp/cc6nxWv8.s:314    .text:0000000000000150 .L0 
     /tmp/cc6nxWv8.s:316    .text:0000000000000154 .L0 
     /tmp/cc6nxWv8.s:317    .text:0000000000000154 .L0 
     /tmp/cc6nxWv8.s:322    .text:0000000000000164 .L0 
     /tmp/cc6nxWv8.s:323    .text:0000000000000164 .L0 
     /tmp/cc6nxWv8.s:325    .text:000000000000016c .L0 
     /tmp/cc6nxWv8.s:326    .text:000000000000016c .L0 
     /tmp/cc6nxWv8.s:328    .text:0000000000000170 .L0 
     /tmp/cc6nxWv8.s:329    .text:0000000000000170 .L0 
     /tmp/cc6nxWv8.s:331    .text:0000000000000174 .L0 
     /tmp/cc6nxWv8.s:334    .text:0000000000000178 .L0 
     /tmp/cc6nxWv8.s:336    .text:0000000000000178 .L0 
     /tmp/cc6nxWv8.s:337    .text:0000000000000178 .L0 
     /tmp/cc6nxWv8.s:341    .text:000000000000018c .L0 
     /tmp/cc6nxWv8.s:348    .text:000000000000018c .L0 
     /tmp/cc6nxWv8.s:290    .text:000000000000012c .L0 
     /tmp/cc6nxWv8.s:309    .text:000000000000013c .L0 
     /tmp/cc6nxWv8.s:266    .rodata.str1.8:0000000000000000 .LC0
     /tmp/cc6nxWv8.s:317    .text:0000000000000154 .L0 
     /tmp/cc6nxWv8.s:269    .rodata.str1.8:0000000000000018 .LC1
     /tmp/cc6nxWv8.s:337    .text:0000000000000178 .L0 
     /tmp/cc6nxWv8.s:109    .text:0000000000000064 .L4
     /tmp/cc6nxWv8.s:256    .text:0000000000000114 .L10
     /tmp/cc6nxWv8.s:243    .text:0000000000000104 .L9
     /tmp/cc6nxWv8.s:333    .text:0000000000000178 .L13
     /tmp/cc6nxWv8.s:320    .text:0000000000000164 .L14
     /tmp/cc6nxWv8.s:1380   .debug_abbrev:0000000000000000 .Ldebug_abbrev0
     /tmp/cc6nxWv8.s:2594   .debug_str:0000000000000639 .LASF124
     /tmp/cc6nxWv8.s:2470   .debug_str:00000000000002dc .LASF125
     /tmp/cc6nxWv8.s:2382   .debug_str:0000000000000043 .LASF126
     /tmp/cc6nxWv8.s:5      .text:0000000000000000 .Ltext0
     /tmp/cc6nxWv8.s:344    .text:000000000000018c .Letext0
     /tmp/cc6nxWv8.s:2366   .debug_line:0000000000000000 .Ldebug_line0
     /tmp/cc6nxWv8.s:2502   .debug_str:00000000000003bc .LASF0
     /tmp/cc6nxWv8.s:2522   .debug_str:0000000000000425 .LASF1
     /tmp/cc6nxWv8.s:2488   .debug_str:0000000000000362 .LASF2
     /tmp/cc6nxWv8.s:2454   .debug_str:0000000000000277 .LASF4
     /tmp/cc6nxWv8.s:2564   .debug_str:000000000000053e .LASF3
     /tmp/cc6nxWv8.s:2388   .debug_str:000000000000009f .LASF5
GAS LISTING /tmp/cc6nxWv8.s 			page 15


     /tmp/cc6nxWv8.s:2526   .debug_str:000000000000043f .LASF6
     /tmp/cc6nxWv8.s:2500   .debug_str:00000000000003a9 .LASF7
     /tmp/cc6nxWv8.s:2610   .debug_str:000000000000076f .LASF8
     /tmp/cc6nxWv8.s:2442   .debug_str:0000000000000204 .LASF9
     /tmp/cc6nxWv8.s:2540   .debug_str:000000000000048c .LASF10
     /tmp/cc6nxWv8.s:2598   .debug_str:0000000000000716 .LASF11
     /tmp/cc6nxWv8.s:2390   .debug_str:00000000000000a6 .LASF12
     /tmp/cc6nxWv8.s:2372   .debug_str:0000000000000011 .LASF13
     /tmp/cc6nxWv8.s:2400   .debug_str:00000000000000f6 .LASF14
     /tmp/cc6nxWv8.s:2556   .debug_str:00000000000004fa .LASF15
     /tmp/cc6nxWv8.s:2406   .debug_str:0000000000000120 .LASF16
     /tmp/cc6nxWv8.s:2518   .debug_str:0000000000000412 .LASF58
     /tmp/cc6nxWv8.s:2554   .debug_str:00000000000004ef .LASF49
     /tmp/cc6nxWv8.s:2628   .debug_str:0000000000000812 .LASF51
     /tmp/cc6nxWv8.s:2374   .debug_str:0000000000000021 .LASF17
     /tmp/cc6nxWv8.s:2576   .debug_str:0000000000000592 .LASF19
     /tmp/cc6nxWv8.s:2418   .debug_str:0000000000000186 .LASF21
     /tmp/cc6nxWv8.s:2416   .debug_str:0000000000000171 .LASF23
     /tmp/cc6nxWv8.s:2568   .debug_str:000000000000055f .LASF18
     /tmp/cc6nxWv8.s:2546   .debug_str:00000000000004c1 .LASF20
     /tmp/cc6nxWv8.s:2592   .debug_str:0000000000000632 .LASF22
     /tmp/cc6nxWv8.s:2582   .debug_str:00000000000005c6 .LASF24
     /tmp/cc6nxWv8.s:2432   .debug_str:00000000000001db .LASF25
     /tmp/cc6nxWv8.s:2408   .debug_str:0000000000000136 .LASF26
     /tmp/cc6nxWv8.s:2370   .debug_str:0000000000000009 .LASF27
     /tmp/cc6nxWv8.s:2448   .debug_str:0000000000000245 .LASF28
     /tmp/cc6nxWv8.s:2422   .debug_str:0000000000000197 .LASF29
     /tmp/cc6nxWv8.s:2392   .debug_str:00000000000000b6 .LASF30
     /tmp/cc6nxWv8.s:2632   .debug_str:0000000000000835 .LASF31
     /tmp/cc6nxWv8.s:2424   .debug_str:000000000000019f .LASF32
     /tmp/cc6nxWv8.s:2504   .debug_str:00000000000003c9 .LASF33
     /tmp/cc6nxWv8.s:2626   .debug_str:00000000000007ff .LASF34
     /tmp/cc6nxWv8.s:2384   .debug_str:0000000000000073 .LASF35
     /tmp/cc6nxWv8.s:2430   .debug_str:00000000000001c8 .LASF36
     /tmp/cc6nxWv8.s:2440   .debug_str:00000000000001fe .LASF37
     /tmp/cc6nxWv8.s:2590   .debug_str:0000000000000620 .LASF38
     /tmp/cc6nxWv8.s:2472   .debug_str:00000000000002e9 .LASF39
     /tmp/cc6nxWv8.s:2636   .debug_str:000000000000084d .LASF40
     /tmp/cc6nxWv8.s:2630   .debug_str:000000000000082a .LASF41
     /tmp/cc6nxWv8.s:2562   .debug_str:0000000000000526 .LASF42
     /tmp/cc6nxWv8.s:2464   .debug_str:00000000000002a7 .LASF43
     /tmp/cc6nxWv8.s:2578   .debug_str:00000000000005a7 .LASF44
     /tmp/cc6nxWv8.s:2398   .debug_str:00000000000000ec .LASF45
     /tmp/cc6nxWv8.s:2450   .debug_str:0000000000000259 .LASF46
     /tmp/cc6nxWv8.s:2494   .debug_str:0000000000000381 .LASF47
     /tmp/cc6nxWv8.s:2444   .debug_str:0000000000000212 .LASF48
     /tmp/cc6nxWv8.s:2570   .debug_str:0000000000000566 .LASF50
     /tmp/cc6nxWv8.s:2394   .debug_str:00000000000000ca .LASF52
     /tmp/cc6nxWv8.s:2618   .debug_str:00000000000007ab .LASF53
     /tmp/cc6nxWv8.s:2468   .debug_str:00000000000002ba .LASF55
     /tmp/cc6nxWv8.s:2566   .debug_str:0000000000000550 .LASF54
     /tmp/cc6nxWv8.s:2584   .debug_str:00000000000005d9 .LASF56
     /tmp/cc6nxWv8.s:2510   .debug_str:00000000000003df .LASF63
     /tmp/cc6nxWv8.s:2368   .debug_str:0000000000000000 .LASF57
     /tmp/cc6nxWv8.s:2452   .debug_str:000000000000026f .LASF59
     /tmp/cc6nxWv8.s:2600   .debug_str:0000000000000725 .LASF127
     /tmp/cc6nxWv8.s:2538   .debug_str:0000000000000486 .LASF60
GAS LISTING /tmp/cc6nxWv8.s 			page 16


     /tmp/cc6nxWv8.s:2572   .debug_str:0000000000000575 .LASF61
     /tmp/cc6nxWv8.s:2456   .debug_str:000000000000027e .LASF62
     /tmp/cc6nxWv8.s:2378   .debug_str:0000000000000036 .LASF64
     /tmp/cc6nxWv8.s:2604   .debug_str:0000000000000758 .LASF65
     /tmp/cc6nxWv8.s:2530   .debug_str:000000000000045d .LASF67
     /tmp/cc6nxWv8.s:2528   .debug_str:0000000000000452 .LASF69
     /tmp/cc6nxWv8.s:2486   .debug_str:0000000000000347 .LASF71
     /tmp/cc6nxWv8.s:2490   .debug_str:0000000000000370 .LASF66
     /tmp/cc6nxWv8.s:2484   .debug_str:000000000000032c .LASF68
     /tmp/cc6nxWv8.s:2480   .debug_str:000000000000031a .LASF70
     /tmp/cc6nxWv8.s:2542   .debug_str:000000000000049b .LASF72
     /tmp/cc6nxWv8.s:2520   .debug_str:0000000000000418 .LASF73
     /tmp/cc6nxWv8.s:2624   .debug_str:00000000000007db .LASF74
     /tmp/cc6nxWv8.s:2548   .debug_str:00000000000004d4 .LASF128
     /tmp/cc6nxWv8.s:2558   .debug_str:0000000000000510 .LASF75
     /tmp/cc6nxWv8.s:2588   .debug_str:000000000000060c .LASF76
     /tmp/cc6nxWv8.s:2420   .debug_str:000000000000018f .LASF129
     /tmp/cc6nxWv8.s:2396   .debug_str:00000000000000e6 .LASF77
     /tmp/cc6nxWv8.s:2476   .debug_str:00000000000002fd .LASF78
     /tmp/cc6nxWv8.s:2496   .debug_str:000000000000038b .LASF79
     /tmp/cc6nxWv8.s:2512   .debug_str:00000000000003e4 .LASF80
     /tmp/cc6nxWv8.s:2622   .debug_str:00000000000007ce .LASF81
     /tmp/cc6nxWv8.s:2560   .debug_str:0000000000000516 .LASF82
     /tmp/cc6nxWv8.s:2634   .debug_str:000000000000083d .LASF83
     /tmp/cc6nxWv8.s:2426   .debug_str:00000000000001b3 .LASF84
     /tmp/cc6nxWv8.s:2402   .debug_str:0000000000000102 .LASF85
     /tmp/cc6nxWv8.s:2552   .debug_str:00000000000004de .LASF86
     /tmp/cc6nxWv8.s:2458   .debug_str:0000000000000286 .LASF87
     /tmp/cc6nxWv8.s:2498   .debug_str:0000000000000398 .LASF88
     /tmp/cc6nxWv8.s:2596   .debug_str:00000000000006fd .LASF89
     /tmp/cc6nxWv8.s:2462   .debug_str:00000000000002a2 .LASF90
     /tmp/cc6nxWv8.s:2508   .debug_str:00000000000003d9 .LASF91
     /tmp/cc6nxWv8.s:2466   .debug_str:00000000000002b2 .LASF92
     /tmp/cc6nxWv8.s:2514   .debug_str:0000000000000400 .LASF93
     /tmp/cc6nxWv8.s:2460   .debug_str:0000000000000299 .LASF94
     /tmp/cc6nxWv8.s:2474   .debug_str:00000000000002ef .LASF95
     /tmp/cc6nxWv8.s:2446   .debug_str:0000000000000228 .LASF96
     /tmp/cc6nxWv8.s:2620   .debug_str:00000000000007c0 .LASF130
     /tmp/cc6nxWv8.s:2602   .debug_str:000000000000072c .LASF131
     /tmp/cc6nxWv8.s:2506   .debug_str:00000000000003d0 .LASF97
     /tmp/cc6nxWv8.s:2586   .debug_str:00000000000005f5 .LASF98
     /tmp/cc6nxWv8.s:2412   .debug_str:0000000000000158 .LASF99
     /tmp/cc6nxWv8.s:2574   .debug_str:000000000000057e .LASF100
     /tmp/cc6nxWv8.s:2612   .debug_str:000000000000077f .LASF101
     /tmp/cc6nxWv8.s:2478   .debug_str:0000000000000311 .LASF102
     /tmp/cc6nxWv8.s:2524   .debug_str:0000000000000438 .LASF103
     /tmp/cc6nxWv8.s:2428   .debug_str:00000000000001c3 .LASF104
     /tmp/cc6nxWv8.s:2534   .debug_str:0000000000000473 .LASF105
     /tmp/cc6nxWv8.s:276    .text:000000000000011c .LFB44
     /tmp/cc6nxWv8.s:342    .text:000000000000018c .LFE44
     /tmp/cc6nxWv8.s:2438   .debug_str:00000000000001f6 .LASF106
     /tmp/cc6nxWv8.s:292    .text:0000000000000134 .LBB4
     /tmp/cc6nxWv8.s:304    .text:0000000000000138 .LBE4
     /tmp/cc6nxWv8.s:312    .text:0000000000000150 .LVL24
     /tmp/cc6nxWv8.s:319    .text:0000000000000164 .LVL25
     /tmp/cc6nxWv8.s:339    .text:0000000000000188 .LVL26
     /tmp/cc6nxWv8.s:2410   .debug_str:000000000000014a .LASF110
GAS LISTING /tmp/cc6nxWv8.s 			page 17


     /tmp/cc6nxWv8.s:2386   .debug_str:000000000000007a .LASF112
     /tmp/cc6nxWv8.s:198    .text:00000000000000c8 .LFB31
     /tmp/cc6nxWv8.s:262    .text:000000000000011c .LFE31
     /tmp/cc6nxWv8.s:2580   .debug_str:00000000000005bf .LASF107
     /tmp/cc6nxWv8.s:2241   .debug_loc:0000000000000000 .LLST4
     /tmp/cc6nxWv8.s:2434   .debug_str:00000000000001e3 .LASF108
     /tmp/cc6nxWv8.s:2267   .debug_loc:0000000000000063 .LLST5
     /tmp/cc6nxWv8.s:2281   .debug_loc:000000000000009c .LLST6
     /tmp/cc6nxWv8.s:2608   .debug_str:0000000000000768 .LASF109
     /tmp/cc6nxWv8.s:2295   .debug_loc:00000000000000d5 .LLST7
     /tmp/cc6nxWv8.s:229    .text:00000000000000f8 .LVL18
     /tmp/cc6nxWv8.s:2544   .debug_str:00000000000004b8 .LASF111
     /tmp/cc6nxWv8.s:2536   .debug_str:0000000000000478 .LASF113
     /tmp/cc6nxWv8.s:144    .text:0000000000000088 .LFB30
     /tmp/cc6nxWv8.s:192    .text:00000000000000c8 .LFE30
     /tmp/cc6nxWv8.s:2306   .debug_loc:000000000000010b .LLST2
     /tmp/cc6nxWv8.s:2325   .debug_loc:0000000000000158 .LLST3
     /tmp/cc6nxWv8.s:169    .text:00000000000000b0 .LVL13
     /tmp/cc6nxWv8.s:2614   .debug_str:0000000000000790 .LASF114
     /tmp/cc6nxWv8.s:2404   .debug_str:0000000000000112 .LASF115
     /tmp/cc6nxWv8.s:78     .text:000000000000003c .LFB29
     /tmp/cc6nxWv8.s:138    .text:0000000000000088 .LFE29
     /tmp/cc6nxWv8.s:2550   .debug_str:00000000000004d9 .LASF116
     /tmp/cc6nxWv8.s:2332   .debug_loc:000000000000017b .LLST0
     /tmp/cc6nxWv8.s:2606   .debug_str:0000000000000761 .LASF117
     /tmp/cc6nxWv8.s:2346   .debug_loc:00000000000001b4 .LLST1
     /tmp/cc6nxWv8.s:117    .text:0000000000000074 .LVL9
     /tmp/cc6nxWv8.s:2516   .debug_str:000000000000040a .LASF118
     /tmp/cc6nxWv8.s:2616   .debug_str:000000000000079a .LASF119
     /tmp/cc6nxWv8.s:10     .text:0000000000000000 .LFB28
     /tmp/cc6nxWv8.s:72     .text:000000000000003c .LFE28
     /tmp/cc6nxWv8.s:2482   .debug_str:0000000000000327 .LASF120
     /tmp/cc6nxWv8.s:2380   .debug_str:000000000000003e .LASF121
     /tmp/cc6nxWv8.s:2436   .debug_str:00000000000001f1 .LASF122
     /tmp/cc6nxWv8.s:2492   .debug_str:000000000000037c .LASF123
     /tmp/cc6nxWv8.s:2532   .debug_str:000000000000046d .LASF132
     /tmp/cc6nxWv8.s:2414   .debug_str:000000000000015e .LASF133
     /tmp/cc6nxWv8.s:2376   .debug_str:000000000000002a .LASF134
     /tmp/cc6nxWv8.s:201    .text:00000000000000c8 .LVL16
     /tmp/cc6nxWv8.s:227    .text:00000000000000f0 .LVL17
     /tmp/cc6nxWv8.s:244    .text:0000000000000104 .LVL20
     /tmp/cc6nxWv8.s:255    .text:0000000000000114 .LVL21
     /tmp/cc6nxWv8.s:237    .text:00000000000000fc .LVL19
     /tmp/cc6nxWv8.s:147    .text:0000000000000088 .LVL11
     /tmp/cc6nxWv8.s:167    .text:00000000000000a8 .LVL12
     /tmp/cc6nxWv8.s:177    .text:00000000000000b4 .LVL14
     /tmp/cc6nxWv8.s:182    .text:00000000000000b8 .LVL15
     /tmp/cc6nxWv8.s:81     .text:000000000000003c .LVL5
     /tmp/cc6nxWv8.s:102    .text:000000000000005c .LVL7
     /tmp/cc6nxWv8.s:98     .text:0000000000000058 .LVL6
     /tmp/cc6nxWv8.s:349    .debug_info:0000000000000000 .Ldebug_info0

UNDEFINED SYMBOLS
_ZN5Riscv14supervisorTrapEv
_Z11workerBodyAv
_Z11printStringPKc
