GAS LISTING /tmp/ccXZTknX.s 			page 1


   1              		.file	"Main.cpp"
   2              		.option pic
   3              		.option norelax
   4              		.text
   5              	.Ltext0:
   6              		.align	2
   7              		.globl	_Z7syscallP4args
   9              	_Z7syscallP4args:
  10              	.LFB30:
  11              		.file 1 "src/../h/syscall_c.h"
   1:src/../h/syscall_c.h **** //
   2:src/../h/syscall_c.h **** // Created by os on 6/19/22.
   3:src/../h/syscall_c.h **** //
   4:src/../h/syscall_c.h **** 
   5:src/../h/syscall_c.h **** #ifndef PROJECT_BASE_V1_1_SYSCALL_C_H
   6:src/../h/syscall_c.h **** #define PROJECT_BASE_V1_1_SYSCALL_C_H
   7:src/../h/syscall_c.h **** 
   8:src/../h/syscall_c.h **** 
   9:src/../h/syscall_c.h **** #include "../h/MemoryAllocator.hpp"
  10:src/../h/syscall_c.h **** 
  11:src/../h/syscall_c.h **** 
  12:src/../h/syscall_c.h **** 
  13:src/../h/syscall_c.h **** //extern "C" void supervisorTrap();
  14:src/../h/syscall_c.h **** 
  15:src/../h/syscall_c.h **** struct args{
  16:src/../h/syscall_c.h ****     uint64 a0;
  17:src/../h/syscall_c.h ****     uint64 a1;
  18:src/../h/syscall_c.h ****     uint64 a2;
  19:src/../h/syscall_c.h ****     uint64 a3;
  20:src/../h/syscall_c.h ****     uint64 a4;
  21:src/../h/syscall_c.h **** 
  22:src/../h/syscall_c.h **** };
  23:src/../h/syscall_c.h **** 
  24:src/../h/syscall_c.h **** void syscall(args* arg){
  12              		.loc 1 24 24
  13              		.cfi_startproc
  14              	.LVL0:
  15 0000 130101FF 		addi	sp,sp,-16
  16              		.cfi_def_cfa_offset 16
  17 0004 23348100 		sd	s0,8(sp)
  18              		.cfi_offset 8, -8
  19 0008 13040101 		addi	s0,sp,16
  20              		.cfi_def_cfa 8, 0
  25:src/../h/syscall_c.h ****     //should prepare arguments in registers
  26:src/../h/syscall_c.h ****     //should call interrupt routine with ecall
  27:src/../h/syscall_c.h **** 
  28:src/../h/syscall_c.h **** 
  29:src/../h/syscall_c.h ****     uint64 arg0 = arg->a0;
  21              		.loc 1 29 5
  22              		.loc 1 29 12 is_stmt 0
  23 000c 83350500 		ld	a1,0(a0)
  24              	.LVL1:
  30:src/../h/syscall_c.h ****     uint64 arg1 = arg->a1;
  25              		.loc 1 30 5 is_stmt 1
  26              		.loc 1 30 12 is_stmt 0
  27 0010 03368500 		ld	a2,8(a0)
  28              	.LVL2:
GAS LISTING /tmp/ccXZTknX.s 			page 2


  31:src/../h/syscall_c.h ****     uint64 arg2 = arg->a2;
  29              		.loc 1 31 5 is_stmt 1
  30              		.loc 1 31 12 is_stmt 0
  31 0014 83360501 		ld	a3,16(a0)
  32              	.LVL3:
  32:src/../h/syscall_c.h ****     uint64 arg3 = arg->a3;
  33              		.loc 1 32 5 is_stmt 1
  34              		.loc 1 32 12 is_stmt 0
  35 0018 03378501 		ld	a4,24(a0)
  36              	.LVL4:
  33:src/../h/syscall_c.h ****     uint64 arg4 = arg->a4;
  37              		.loc 1 33 5 is_stmt 1
  38              		.loc 1 33 12 is_stmt 0
  39 001c 83370502 		ld	a5,32(a0)
  40              	.LVL5:
  34:src/../h/syscall_c.h **** 
  35:src/../h/syscall_c.h ****     //lock this section?
  36:src/../h/syscall_c.h ****     __asm__ volatile("mv a0, %0" : : "r" (arg0));
  41              		.loc 1 36 5 is_stmt 1
  42              		.loc 1 36 49 is_stmt 0
  43              	#APP
  44              	# 36 "src/../h/syscall_c.h" 1
  37              	    __asm__ volatile("mv a1, %0" : : "r" (arg1));
  45              		mv a0, a1
  46              	# 0 "" 2
  47              		.loc 1 37 5 is_stmt 1
  48              		.loc 1 37 49 is_stmt 0
  49              	# 37 "src/../h/syscall_c.h" 1
  38              	    __asm__ volatile("mv a2, %0" : : "r" (arg2));
  50              		mv a1, a2
  51              	# 0 "" 2
  52              		.loc 1 38 5 is_stmt 1
  53              		.loc 1 38 49 is_stmt 0
  54              	# 38 "src/../h/syscall_c.h" 1
  39              	    __asm__ volatile("mv a3, %0" : : "r" (arg3));
  55              		mv a2, a3
  56              	# 0 "" 2
  57              		.loc 1 39 5 is_stmt 1
  58              		.loc 1 39 49 is_stmt 0
  59              	# 39 "src/../h/syscall_c.h" 1
  40              	    __asm__ volatile("mv a4, %0" : : "r" (arg4));
  60              		mv a3, a4
  61              	# 0 "" 2
  62              		.loc 1 40 5 is_stmt 1
  63              		.loc 1 40 49 is_stmt 0
  64              	# 40 "src/../h/syscall_c.h" 1
  41              	
  42:src/../h/syscall_c.h **** 
  43:src/../h/syscall_c.h **** 
  44:src/../h/syscall_c.h **** //    Riscv::ms_sstatus(Riscv::SSTATUS_SIE);
  45:src/../h/syscall_c.h ****     __asm__ volatile ("ecall");
  65              		mv a4, a5
  66              	# 0 "" 2
  67              		.loc 1 45 5 is_stmt 1
  68              		.loc 1 45 31 is_stmt 0
  69              	# 45 "src/../h/syscall_c.h" 1
  46              	
GAS LISTING /tmp/ccXZTknX.s 			page 3


  47:src/../h/syscall_c.h **** 
  48:src/../h/syscall_c.h **** }
  70              		ecall
  71              	# 0 "" 2
  72              		.loc 1 48 1
  73              	#NO_APP
  74 0038 03348100 		ld	s0,8(sp)
  75              		.cfi_restore 8
  76              		.cfi_def_cfa 2, 16
  77 003c 13010101 		addi	sp,sp,16
  78              		.cfi_def_cfa_offset 0
  79 0040 67800000 		jr	ra
  80              		.cfi_endproc
  81              	.LFE30:
  83              		.align	2
  84              		.globl	_Z9mem_allocm
  86              	_Z9mem_allocm:
  87              	.LFB31:
  49:src/../h/syscall_c.h **** 
  50:src/../h/syscall_c.h **** void* mem_alloc (size_t size){
  88              		.loc 1 50 30 is_stmt 1
  89              		.cfi_startproc
  90              	.LVL6:
  91 0044 130101FC 		addi	sp,sp,-64
  92              		.cfi_def_cfa_offset 64
  93 0048 233C1102 		sd	ra,56(sp)
  94 004c 23388102 		sd	s0,48(sp)
  95              		.cfi_offset 1, -8
  96              		.cfi_offset 8, -16
  97 0050 13040104 		addi	s0,sp,64
  98              		.cfi_def_cfa 8, 0
  51:src/../h/syscall_c.h ****     //prepares parameters to arguments
  52:src/../h/syscall_c.h ****     //executes system call instruction
  53:src/../h/syscall_c.h ****     args arg;
  99              		.loc 1 53 5
  54:src/../h/syscall_c.h ****     arg.a0=0x01;
 100              		.loc 1 54 5
 101              		.loc 1 54 11 is_stmt 0
 102 0054 93071000 		li	a5,1
 103 0058 2334F4FC 		sd	a5,-56(s0)
  55:src/../h/syscall_c.h **** 
  56:src/../h/syscall_c.h ****     size_t blocks = size/MEM_BLOCK_SIZE;
 104              		.loc 1 56 5 is_stmt 1
 105              		.loc 1 56 12 is_stmt 0
 106 005c 93576500 		srli	a5,a0,6
 107              	.LVL7:
  57:src/../h/syscall_c.h ****     if(size%MEM_BLOCK_SIZE!=0)blocks++;
 108              		.loc 1 57 5 is_stmt 1
 109              		.loc 1 57 12 is_stmt 0
 110 0060 1375F503 		andi	a0,a0,63
 111              	.LVL8:
 112              		.loc 1 57 5
 113 0064 63040500 		beqz	a0,.L4
 114              		.loc 1 57 31 is_stmt 1 discriminator 1
 115              		.loc 1 57 37 is_stmt 0 discriminator 1
 116 0068 93871700 		addi	a5,a5,1
 117              	.LVL9:
GAS LISTING /tmp/ccXZTknX.s 			page 4


 118              	.L4:
  58:src/../h/syscall_c.h ****     arg.a1=blocks;
 119              		.loc 1 58 5 is_stmt 1
 120              		.loc 1 58 11 is_stmt 0
 121 006c 2338F4FC 		sd	a5,-48(s0)
  59:src/../h/syscall_c.h **** 
  60:src/../h/syscall_c.h ****     syscall(&arg);
 122              		.loc 1 60 5 is_stmt 1
 123              		.loc 1 60 12 is_stmt 0
 124 0070 130584FC 		addi	a0,s0,-56
 125 0074 97000000 		call	_Z7syscallP4args
 125      E7800000 
 126              	.LVL10:
  61:src/../h/syscall_c.h **** 
  62:src/../h/syscall_c.h ****     uint64 ret;
 127              		.loc 1 62 5 is_stmt 1
  63:src/../h/syscall_c.h ****     __asm__ volatile("mv %0, a0" : "=r" (ret));
 128              		.loc 1 63 5
 129              		.loc 1 63 47 is_stmt 0
 130              	#APP
 131              	# 63 "src/../h/syscall_c.h" 1
  64              	
 132              		mv a0, a0
 133              	# 0 "" 2
 134              	.LVL11:
  65:src/../h/syscall_c.h ****     return (void*)ret;
 135              		.loc 1 65 5 is_stmt 1
  66:src/../h/syscall_c.h **** }
 136              		.loc 1 66 1 is_stmt 0
 137              	#NO_APP
 138 0080 83308103 		ld	ra,56(sp)
 139              		.cfi_restore 1
 140 0084 03340103 		ld	s0,48(sp)
 141              		.cfi_restore 8
 142              		.cfi_def_cfa 2, 64
 143 0088 13010104 		addi	sp,sp,64
 144              		.cfi_def_cfa_offset 0
 145 008c 67800000 		jr	ra
 146              		.cfi_endproc
 147              	.LFE31:
 149              		.align	2
 150              		.globl	_Z8mem_freePv
 152              	_Z8mem_freePv:
 153              	.LFB32:
  67:src/../h/syscall_c.h **** 
  68:src/../h/syscall_c.h **** int mem_free (void* p){
 154              		.loc 1 68 23 is_stmt 1
 155              		.cfi_startproc
 156              	.LVL12:
 157 0090 130101FC 		addi	sp,sp,-64
 158              		.cfi_def_cfa_offset 64
 159 0094 233C1102 		sd	ra,56(sp)
 160 0098 23388102 		sd	s0,48(sp)
 161              		.cfi_offset 1, -8
 162              		.cfi_offset 8, -16
 163 009c 13040104 		addi	s0,sp,64
 164              		.cfi_def_cfa 8, 0
GAS LISTING /tmp/ccXZTknX.s 			page 5


  69:src/../h/syscall_c.h ****     args arg;
 165              		.loc 1 69 5
  70:src/../h/syscall_c.h ****     arg.a0=0x02;
 166              		.loc 1 70 5
 167              		.loc 1 70 11 is_stmt 0
 168 00a0 93072000 		li	a5,2
 169 00a4 2334F4FC 		sd	a5,-56(s0)
  71:src/../h/syscall_c.h ****     arg.a1=(uint64)p;
 170              		.loc 1 71 5 is_stmt 1
 171              		.loc 1 71 11 is_stmt 0
 172 00a8 2338A4FC 		sd	a0,-48(s0)
  72:src/../h/syscall_c.h **** 
  73:src/../h/syscall_c.h ****     syscall(&arg);
 173              		.loc 1 73 5 is_stmt 1
 174              		.loc 1 73 12 is_stmt 0
 175 00ac 130584FC 		addi	a0,s0,-56
 176              	.LVL13:
 177 00b0 97000000 		call	_Z7syscallP4args
 177      E7800000 
 178              	.LVL14:
  74:src/../h/syscall_c.h ****     uint64 ret;
 179              		.loc 1 74 5 is_stmt 1
  75:src/../h/syscall_c.h ****     __asm__ volatile("mv %0, a0" : "=r" (ret));
 180              		.loc 1 75 5
 181              		.loc 1 75 47 is_stmt 0
 182              	#APP
 183              	# 75 "src/../h/syscall_c.h" 1
  76              	    return (int)ret;
 184              		mv a0, a0
 185              	# 0 "" 2
 186              	.LVL15:
 187              		.loc 1 76 5 is_stmt 1
  77:src/../h/syscall_c.h **** }
 188              		.loc 1 77 1 is_stmt 0
 189              	#NO_APP
 190 00bc 1B050500 		sext.w	a0,a0
 191              	.LVL16:
 192 00c0 83308103 		ld	ra,56(sp)
 193              		.cfi_restore 1
 194 00c4 03340103 		ld	s0,48(sp)
 195              		.cfi_restore 8
 196              		.cfi_def_cfa 2, 64
 197 00c8 13010104 		addi	sp,sp,64
 198              		.cfi_def_cfa_offset 0
 199 00cc 67800000 		jr	ra
 200              		.cfi_endproc
 201              	.LFE32:
 203              		.align	2
 204              		.globl	_Z13thread_createPP7_threadPFvPvES2_
 206              	_Z13thread_createPP7_threadPFvPvES2_:
 207              	.LFB33:
  78:src/../h/syscall_c.h **** 
  79:src/../h/syscall_c.h **** class _thread;
  80:src/../h/syscall_c.h **** typedef _thread* thread_t;  //thread_t je pokazivac, a handle je pokazivac na pokazivac tipa _threa
  81:src/../h/syscall_c.h **** int thread_create (
  82:src/../h/syscall_c.h ****         thread_t* handle,
  83:src/../h/syscall_c.h ****         void(*start_routine)(void*),
GAS LISTING /tmp/ccXZTknX.s 			page 6


  84:src/../h/syscall_c.h ****         void* arg
  85:src/../h/syscall_c.h **** ){
 208              		.loc 1 85 2 is_stmt 1
 209              		.cfi_startproc
 210              	.LVL17:
 211 00d0 130101FA 		addi	sp,sp,-96
 212              		.cfi_def_cfa_offset 96
 213 00d4 233C1104 		sd	ra,88(sp)
 214 00d8 23388104 		sd	s0,80(sp)
 215 00dc 23349104 		sd	s1,72(sp)
 216 00e0 23302105 		sd	s2,64(sp)
 217 00e4 233C3103 		sd	s3,56(sp)
 218              		.cfi_offset 1, -8
 219              		.cfi_offset 8, -16
 220              		.cfi_offset 9, -24
 221              		.cfi_offset 18, -32
 222              		.cfi_offset 19, -40
 223 00e8 13040106 		addi	s0,sp,96
 224              		.cfi_def_cfa 8, 0
 225 00ec 93090500 		mv	s3,a0
 226 00f0 13890500 		mv	s2,a1
 227 00f4 93040600 		mv	s1,a2
  86:src/../h/syscall_c.h **** 
  87:src/../h/syscall_c.h ****     uint64* stack =(uint64*) mem_alloc(DEFAULT_STACK_SIZE* sizeof(uint64));
 228              		.loc 1 87 5
 229              		.loc 1 87 39 is_stmt 0
 230 00f8 37850000 		li	a0,32768
 231              	.LVL18:
 232 00fc 97000000 		call	_Z9mem_allocm
 232      E7800000 
 233              	.LVL19:
  88:src/../h/syscall_c.h ****     args myArgs;
 234              		.loc 1 88 5 is_stmt 1
  89:src/../h/syscall_c.h ****     myArgs.a0=0x11;
 235              		.loc 1 89 5
 236              		.loc 1 89 14 is_stmt 0
 237 0104 93071001 		li	a5,17
 238 0108 2334F4FA 		sd	a5,-88(s0)
  90:src/../h/syscall_c.h ****     myArgs.a1=(uint64)handle;   //on address handle there is thread_t adress
 239              		.loc 1 90 5 is_stmt 1
 240              		.loc 1 90 14 is_stmt 0
 241 010c 233834FB 		sd	s3,-80(s0)
  91:src/../h/syscall_c.h ****     myArgs.a2=(uint64)start_routine;
 242              		.loc 1 91 5 is_stmt 1
 243              		.loc 1 91 14 is_stmt 0
 244 0110 233C24FB 		sd	s2,-72(s0)
  92:src/../h/syscall_c.h ****     myArgs.a3=(uint64)arg;
 245              		.loc 1 92 5 is_stmt 1
 246              		.loc 1 92 14 is_stmt 0
 247 0114 233094FC 		sd	s1,-64(s0)
  93:src/../h/syscall_c.h ****     myArgs.a4=(uint64)stack;
 248              		.loc 1 93 5 is_stmt 1
 249              		.loc 1 93 14 is_stmt 0
 250 0118 2334A4FC 		sd	a0,-56(s0)
  94:src/../h/syscall_c.h **** 
  95:src/../h/syscall_c.h ****     syscall(&myArgs);
 251              		.loc 1 95 5 is_stmt 1
GAS LISTING /tmp/ccXZTknX.s 			page 7


 252              		.loc 1 95 12 is_stmt 0
 253 011c 130584FA 		addi	a0,s0,-88
 254              	.LVL20:
 255 0120 97000000 		call	_Z7syscallP4args
 255      E7800000 
 256              	.LVL21:
  96:src/../h/syscall_c.h ****     uint64 ret;
 257              		.loc 1 96 5 is_stmt 1
  97:src/../h/syscall_c.h ****     __asm__ volatile("mv %0, a0" : "=r" (ret)); //the ret value is future handle
 258              		.loc 1 97 5
 259              		.loc 1 97 47 is_stmt 0
 260              	#APP
 261              	# 97 "src/../h/syscall_c.h" 1
  98              	
 262              		mv a0, a0
 263              	# 0 "" 2
 264              	.LVL22:
  99:src/../h/syscall_c.h ****     return ret;
 265              		.loc 1 99 5 is_stmt 1
 100:src/../h/syscall_c.h **** 
 101:src/../h/syscall_c.h **** 
 102:src/../h/syscall_c.h **** }
 266              		.loc 1 102 1 is_stmt 0
 267              	#NO_APP
 268 012c 1B050500 		sext.w	a0,a0
 269              	.LVL23:
 270 0130 83308105 		ld	ra,88(sp)
 271              		.cfi_restore 1
 272 0134 03340105 		ld	s0,80(sp)
 273              		.cfi_restore 8
 274              		.cfi_def_cfa 2, 96
 275 0138 83348104 		ld	s1,72(sp)
 276              		.cfi_restore 9
 277              	.LVL24:
 278 013c 03390104 		ld	s2,64(sp)
 279              		.cfi_restore 18
 280              	.LVL25:
 281 0140 83398103 		ld	s3,56(sp)
 282              		.cfi_restore 19
 283              	.LVL26:
 284 0144 13010106 		addi	sp,sp,96
 285              		.cfi_def_cfa_offset 0
 286 0148 67800000 		jr	ra
 287              		.cfi_endproc
 288              	.LFE33:
 290              		.align	2
 291              		.globl	_Z11thread_exitv
 293              	_Z11thread_exitv:
 294              	.LFB34:
 103:src/../h/syscall_c.h **** 
 104:src/../h/syscall_c.h **** int thread_exit (){
 295              		.loc 1 104 19 is_stmt 1
 296              		.cfi_startproc
 297 014c 130101FC 		addi	sp,sp,-64
 298              		.cfi_def_cfa_offset 64
 299 0150 233C1102 		sd	ra,56(sp)
 300 0154 23388102 		sd	s0,48(sp)
GAS LISTING /tmp/ccXZTknX.s 			page 8


 301              		.cfi_offset 1, -8
 302              		.cfi_offset 8, -16
 303 0158 13040104 		addi	s0,sp,64
 304              		.cfi_def_cfa 8, 0
 105:src/../h/syscall_c.h ****     args myArgs;
 305              		.loc 1 105 5
 106:src/../h/syscall_c.h ****     myArgs.a0=0x12;
 306              		.loc 1 106 5
 307              		.loc 1 106 14 is_stmt 0
 308 015c 93072001 		li	a5,18
 309 0160 2334F4FC 		sd	a5,-56(s0)
 107:src/../h/syscall_c.h **** 
 108:src/../h/syscall_c.h ****     syscall(&myArgs);
 310              		.loc 1 108 5 is_stmt 1
 311              		.loc 1 108 12 is_stmt 0
 312 0164 130584FC 		addi	a0,s0,-56
 313 0168 97000000 		call	_Z7syscallP4args
 313      E7800000 
 314              	.LVL27:
 109:src/../h/syscall_c.h **** 
 110:src/../h/syscall_c.h ****     return 0;
 315              		.loc 1 110 5 is_stmt 1
 111:src/../h/syscall_c.h **** }
 316              		.loc 1 111 1 is_stmt 0
 317 0170 13050000 		li	a0,0
 318 0174 83308103 		ld	ra,56(sp)
 319              		.cfi_restore 1
 320 0178 03340103 		ld	s0,48(sp)
 321              		.cfi_restore 8
 322              		.cfi_def_cfa 2, 64
 323 017c 13010104 		addi	sp,sp,64
 324              		.cfi_def_cfa_offset 0
 325 0180 67800000 		jr	ra
 326              		.cfi_endproc
 327              	.LFE34:
 329              		.align	2
 330              		.globl	_Z15thread_dispatchv
 332              	_Z15thread_dispatchv:
 333              	.LFB35:
 112:src/../h/syscall_c.h **** 
 113:src/../h/syscall_c.h **** 
 114:src/../h/syscall_c.h **** void thread_dispatch (){
 334              		.loc 1 114 24 is_stmt 1
 335              		.cfi_startproc
 336 0184 130101FC 		addi	sp,sp,-64
 337              		.cfi_def_cfa_offset 64
 338 0188 233C1102 		sd	ra,56(sp)
 339 018c 23388102 		sd	s0,48(sp)
 340              		.cfi_offset 1, -8
 341              		.cfi_offset 8, -16
 342 0190 13040104 		addi	s0,sp,64
 343              		.cfi_def_cfa 8, 0
 115:src/../h/syscall_c.h ****     args myArgs;
 344              		.loc 1 115 5
 116:src/../h/syscall_c.h ****     myArgs.a0=0x13;
 345              		.loc 1 116 5
 346              		.loc 1 116 14 is_stmt 0
GAS LISTING /tmp/ccXZTknX.s 			page 9


 347 0194 93073001 		li	a5,19
 348 0198 2334F4FC 		sd	a5,-56(s0)
 117:src/../h/syscall_c.h **** 
 118:src/../h/syscall_c.h ****     syscall(&myArgs);
 349              		.loc 1 118 5 is_stmt 1
 350              		.loc 1 118 12 is_stmt 0
 351 019c 130584FC 		addi	a0,s0,-56
 352 01a0 97000000 		call	_Z7syscallP4args
 352      E7800000 
 353              	.LVL28:
 119:src/../h/syscall_c.h **** 
 120:src/../h/syscall_c.h **** 
 121:src/../h/syscall_c.h **** }
 354              		.loc 1 121 1
 355 01a8 83308103 		ld	ra,56(sp)
 356              		.cfi_restore 1
 357 01ac 03340103 		ld	s0,48(sp)
 358              		.cfi_restore 8
 359              		.cfi_def_cfa 2, 64
 360 01b0 13010104 		addi	sp,sp,64
 361              		.cfi_def_cfa_offset 0
 362 01b4 67800000 		jr	ra
 363              		.cfi_endproc
 364              	.LFE35:
 366              		.section	.rodata.str1.8,"aMS",@progbits,1
 367              		.align	3
 368              	.LC0:
 369 0000 74687265 		.string	"thread created"
 369      61642063 
 369      72656174 
 369      656400
 370 000f 00       		.align	3
 371              	.LC1:
 372 0010 66696E69 		.string	"finished \n"
 372      73686564 
 372      200A00
 373              		.text
 374              		.align	2
 375              		.globl	main
 377              	main:
 378              	.LFB48:
 379              		.file 2 "src/Main.cpp"
   1:src/Main.cpp  **** //
   2:src/Main.cpp  **** // Created by os on 6/18/22.
   3:src/Main.cpp  **** //
   4:src/Main.cpp  **** 
   5:src/Main.cpp  **** #include "../h/Riscv.hpp"
   6:src/Main.cpp  **** #include "../h/List.hpp"
   7:src/Main.cpp  **** #include "../h/syscall_c.h"
   8:src/Main.cpp  **** #include "../h/Print.hpp"
   9:src/Main.cpp  **** #include "../h/workers.hpp"
  10:src/Main.cpp  **** #include "../h/_thread.hpp"
  11:src/Main.cpp  **** 
  12:src/Main.cpp  **** int main(){
 380              		.loc 2 12 11 is_stmt 1
 381              		.cfi_startproc
 382 01b8 130101FD 		addi	sp,sp,-48
GAS LISTING /tmp/ccXZTknX.s 			page 10


 383              		.cfi_def_cfa_offset 48
 384 01bc 23341102 		sd	ra,40(sp)
 385 01c0 23308102 		sd	s0,32(sp)
 386              		.cfi_offset 1, -8
 387              		.cfi_offset 8, -16
 388 01c4 13040103 		addi	s0,sp,48
 389              		.cfi_def_cfa 8, 0
  13:src/Main.cpp  **** 
  14:src/Main.cpp  **** 
  15:src/Main.cpp  ****     Riscv::w_stvec((uint64)&Riscv::supervisorTrap);
 390              		.loc 2 15 5
 391              		.loc 2 15 19 is_stmt 0
 392 01c8 97070000 		la	a5,_ZN5Riscv14supervisorTrapEv
 392      83B70700 
 393              	.LVL29:
 394              	.LBB8:
 395              	.LBB9:
 396              		.file 3 "src/../h/Riscv.hpp"
   1:src/../h/Riscv.hpp **** //
   2:src/../h/Riscv.hpp **** // Created by os on 6/17/22.
   3:src/../h/Riscv.hpp **** //
   4:src/../h/Riscv.hpp **** 
   5:src/../h/Riscv.hpp **** #ifndef PROJECT_BASE_V1_1_RISCV_HPP
   6:src/../h/Riscv.hpp **** #define PROJECT_BASE_V1_1_RISCV_HPP
   7:src/../h/Riscv.hpp **** 
   8:src/../h/Riscv.hpp **** #include "../lib/hw.h"
   9:src/../h/Riscv.hpp **** 
  10:src/../h/Riscv.hpp **** 
  11:src/../h/Riscv.hpp **** class Riscv
  12:src/../h/Riscv.hpp **** {
  13:src/../h/Riscv.hpp **** public:
  14:src/../h/Riscv.hpp **** 
  15:src/../h/Riscv.hpp ****     // pop sstatus.spp and sstatus.spie bits (has to be a non inline function)
  16:src/../h/Riscv.hpp ****     static void popSppSpie();
  17:src/../h/Riscv.hpp **** 
  18:src/../h/Riscv.hpp ****     // read register scause
  19:src/../h/Riscv.hpp ****     static uint64 r_scause();
  20:src/../h/Riscv.hpp **** 
  21:src/../h/Riscv.hpp ****     // write register scause
  22:src/../h/Riscv.hpp ****     static void w_scause(uint64 scause);
  23:src/../h/Riscv.hpp **** 
  24:src/../h/Riscv.hpp ****     // read register sepc
  25:src/../h/Riscv.hpp ****     static uint64 r_sepc();
  26:src/../h/Riscv.hpp **** 
  27:src/../h/Riscv.hpp ****     // write register sepc
  28:src/../h/Riscv.hpp ****     static void w_sepc(uint64 sepc);
  29:src/../h/Riscv.hpp **** 
  30:src/../h/Riscv.hpp ****     // read register stvec
  31:src/../h/Riscv.hpp ****     static uint64 r_stvec();
  32:src/../h/Riscv.hpp **** 
  33:src/../h/Riscv.hpp ****     // write register stvec
  34:src/../h/Riscv.hpp ****     static void w_stvec(uint64 stvec);
  35:src/../h/Riscv.hpp **** 
  36:src/../h/Riscv.hpp ****     // read register stval
  37:src/../h/Riscv.hpp ****     static uint64 r_stval();
  38:src/../h/Riscv.hpp **** 
  39:src/../h/Riscv.hpp ****     // write register stval
GAS LISTING /tmp/ccXZTknX.s 			page 11


  40:src/../h/Riscv.hpp ****     static void w_stval(uint64 stval);
  41:src/../h/Riscv.hpp **** 
  42:src/../h/Riscv.hpp ****     enum BitMaskSip
  43:src/../h/Riscv.hpp ****     {
  44:src/../h/Riscv.hpp ****         SIP_SSIP = (1 << 1),
  45:src/../h/Riscv.hpp ****         SIP_STIP = (1 << 5),
  46:src/../h/Riscv.hpp ****         SIP_SEIP = (1 << 9),
  47:src/../h/Riscv.hpp ****     };
  48:src/../h/Riscv.hpp **** 
  49:src/../h/Riscv.hpp ****     // mask set register sip
  50:src/../h/Riscv.hpp ****     static void ms_sip(uint64 mask);
  51:src/../h/Riscv.hpp **** 
  52:src/../h/Riscv.hpp ****     // mask clear register sip
  53:src/../h/Riscv.hpp ****     static void mc_sip(uint64 mask);
  54:src/../h/Riscv.hpp **** 
  55:src/../h/Riscv.hpp ****     // read register sip
  56:src/../h/Riscv.hpp ****     static uint64 r_sip();
  57:src/../h/Riscv.hpp **** 
  58:src/../h/Riscv.hpp ****     // write register sip
  59:src/../h/Riscv.hpp ****     static void w_sip(uint64 sip);
  60:src/../h/Riscv.hpp **** 
  61:src/../h/Riscv.hpp ****     enum BitMaskSstatus
  62:src/../h/Riscv.hpp ****     {
  63:src/../h/Riscv.hpp ****         SSTATUS_SIE = (1 << 1),
  64:src/../h/Riscv.hpp ****         SSTATUS_SPIE = (1 << 5),
  65:src/../h/Riscv.hpp ****         SSTATUS_SPP = (1 << 8),
  66:src/../h/Riscv.hpp ****     };
  67:src/../h/Riscv.hpp **** 
  68:src/../h/Riscv.hpp ****     // mask set register sstatus
  69:src/../h/Riscv.hpp ****     static void ms_sstatus(uint64 mask);
  70:src/../h/Riscv.hpp **** 
  71:src/../h/Riscv.hpp ****     // mask clear register sstatus
  72:src/../h/Riscv.hpp ****     static void mc_sstatus(uint64 mask);
  73:src/../h/Riscv.hpp **** 
  74:src/../h/Riscv.hpp ****     // read register sstatus
  75:src/../h/Riscv.hpp ****     static uint64 r_sstatus();
  76:src/../h/Riscv.hpp **** 
  77:src/../h/Riscv.hpp ****     // write register sstatus
  78:src/../h/Riscv.hpp ****     static void w_sstatus(uint64 sstatus);
  79:src/../h/Riscv.hpp **** 
  80:src/../h/Riscv.hpp ****     // supervisor trap
  81:src/../h/Riscv.hpp ****     static void supervisorTrap();
  82:src/../h/Riscv.hpp **** 
  83:src/../h/Riscv.hpp **** private:
  84:src/../h/Riscv.hpp **** 
  85:src/../h/Riscv.hpp ****     // supervisor trap handler
  86:src/../h/Riscv.hpp ****     static void handleSupervisorTrap();
  87:src/../h/Riscv.hpp **** 
  88:src/../h/Riscv.hpp **** //    static void syscallHandler();
  89:src/../h/Riscv.hpp **** 
  90:src/../h/Riscv.hpp **** };
  91:src/../h/Riscv.hpp **** 
  92:src/../h/Riscv.hpp **** inline uint64 Riscv::r_scause()
  93:src/../h/Riscv.hpp **** {
  94:src/../h/Riscv.hpp ****     uint64 volatile scause;
  95:src/../h/Riscv.hpp ****     __asm__ volatile ("csrr %[scause], scause" : [scause] "=r"(scause));
  96:src/../h/Riscv.hpp ****     return scause;
GAS LISTING /tmp/ccXZTknX.s 			page 12


  97:src/../h/Riscv.hpp **** }
  98:src/../h/Riscv.hpp **** 
  99:src/../h/Riscv.hpp **** inline void Riscv::w_scause(uint64 scause)
 100:src/../h/Riscv.hpp **** {
 101:src/../h/Riscv.hpp ****     __asm__ volatile ("csrw scause, %[scause]" : : [scause] "r"(scause));
 102:src/../h/Riscv.hpp **** }
 103:src/../h/Riscv.hpp **** 
 104:src/../h/Riscv.hpp **** inline uint64 Riscv::r_sepc()
 105:src/../h/Riscv.hpp **** {
 106:src/../h/Riscv.hpp ****     uint64 volatile sepc;
 107:src/../h/Riscv.hpp ****     __asm__ volatile ("csrr %[sepc], sepc" : [sepc] "=r"(sepc));
 108:src/../h/Riscv.hpp ****     return sepc;
 109:src/../h/Riscv.hpp **** }
 110:src/../h/Riscv.hpp **** 
 111:src/../h/Riscv.hpp **** inline void Riscv::w_sepc(uint64 sepc)
 112:src/../h/Riscv.hpp **** {
 113:src/../h/Riscv.hpp ****     __asm__ volatile ("csrw sepc, %[sepc]" : : [sepc] "r"(sepc));
 114:src/../h/Riscv.hpp **** }
 115:src/../h/Riscv.hpp **** 
 116:src/../h/Riscv.hpp **** inline uint64 Riscv::r_stvec()
 117:src/../h/Riscv.hpp **** {
 118:src/../h/Riscv.hpp ****     uint64 volatile stvec;
 119:src/../h/Riscv.hpp ****     __asm__ volatile ("csrr %[stvec], stvec" : [stvec] "=r"(stvec));
 120:src/../h/Riscv.hpp ****     return stvec;
 121:src/../h/Riscv.hpp **** }
 122:src/../h/Riscv.hpp **** 
 123:src/../h/Riscv.hpp **** inline void Riscv::w_stvec(uint64 stvec)
 124:src/../h/Riscv.hpp **** {
 125:src/../h/Riscv.hpp ****     __asm__ volatile ("csrw stvec, %[stvec]" : : [stvec] "r"(stvec));
 397              		.loc 3 125 5 is_stmt 1
 398              		.loc 3 125 69 is_stmt 0
 399              	#APP
 400              	# 125 "src/../h/Riscv.hpp" 1
 126              	}
 401              		csrw stvec, a5
 402              	# 0 "" 2
 403              	.LVL30:
 404              	#NO_APP
 405              	.LBE9:
 406              	.LBE8:
  16:src/Main.cpp  **** 
  17:src/Main.cpp  ****     _thread* threads[3];
 407              		.loc 2 17 5 is_stmt 1
  18:src/Main.cpp  **** 
  19:src/Main.cpp  ****     if(!thread_create(&threads[0], nullptr, nullptr)){
 408              		.loc 2 19 5
 409              		.loc 2 19 22 is_stmt 0
 410 01d4 13060000 		li	a2,0
 411 01d8 93050000 		li	a1,0
 412 01dc 130584FD 		addi	a0,s0,-40
 413 01e0 97000000 		call	_Z13thread_createPP7_threadPFvPvES2_
 413      E7800000 
 414              	.LVL31:
 415              		.loc 2 19 5
 416 01e8 63000506 		beqz	a0,.L22
 417              	.L15:
  20:src/Main.cpp  ****         printString("thread created");
GAS LISTING /tmp/ccXZTknX.s 			page 13


  21:src/Main.cpp  ****     }
  22:src/Main.cpp  **** //    threads[0]->start();
  23:src/Main.cpp  ****     _thread::running=threads[0];
 418              		.loc 2 23 5 is_stmt 1
 419              		.loc 2 23 21 is_stmt 0
 420 01ec 033784FD 		ld	a4,-40(s0)
 421 01f0 97070000 		la	a5,_ZN7_thread7runningE
 421      83B70700 
 422 01f8 23B0E700 		sd	a4,0(a5)
  24:src/Main.cpp  **** 
  25:src/Main.cpp  ****     if(!thread_create(&threads[1], workerBodyA, nullptr)){
 423              		.loc 2 25 5 is_stmt 1
 424              		.loc 2 25 22 is_stmt 0
 425 01fc 13060000 		li	a2,0
 426 0200 97050000 		la	a1,_Z11workerBodyAPv
 426      83B50500 
 427 0208 130504FE 		addi	a0,s0,-32
 428 020c 97000000 		call	_Z13thread_createPP7_threadPFvPvES2_
 428      E7800000 
 429              	.LVL32:
 430              		.loc 2 25 5
 431 0214 63040504 		beqz	a0,.L23
 432              	.L16:
  26:src/Main.cpp  ****         printString("thread created");
  27:src/Main.cpp  ****     }
  28:src/Main.cpp  **** //    threads[1]->start();
  29:src/Main.cpp  **** 
  30:src/Main.cpp  ****     if(!thread_create(&threads[2], workerBodyB, nullptr)){
 433              		.loc 2 30 5 is_stmt 1
 434              		.loc 2 30 22 is_stmt 0
 435 0218 13060000 		li	a2,0
 436 021c 97050000 		la	a1,_Z11workerBodyBPv
 436      83B50500 
 437 0224 130584FE 		addi	a0,s0,-24
 438 0228 97000000 		call	_Z13thread_createPP7_threadPFvPvES2_
 438      E7800000 
 439              	.LVL33:
 440              		.loc 2 30 5
 441 0230 63140504 		bnez	a0,.L20
  31:src/Main.cpp  ****         printString("thread created");
 442              		.loc 2 31 9 is_stmt 1
 443              		.loc 2 31 20 is_stmt 0
 444 0234 17050000 		lla	a0,.LC0
 444      13050500 
 445 023c 97000000 		call	_Z11printStringPKc@plt
 445      E7800000 
 446              	.LVL34:
 447 0244 6F004003 		j	.L20
 448              	.L22:
  20:src/Main.cpp  ****     }
 449              		.loc 2 20 9 is_stmt 1
  20:src/Main.cpp  ****     }
 450              		.loc 2 20 20 is_stmt 0
 451 0248 17050000 		lla	a0,.LC0
 451      13050500 
 452 0250 97000000 		call	_Z11printStringPKc@plt
 452      E7800000 
GAS LISTING /tmp/ccXZTknX.s 			page 14


 453              	.LVL35:
 454 0258 6FF05FF9 		j	.L15
 455              	.L23:
  26:src/Main.cpp  ****         printString("thread created");
 456              		.loc 2 26 9 is_stmt 1
  26:src/Main.cpp  ****         printString("thread created");
 457              		.loc 2 26 20 is_stmt 0
 458 025c 17050000 		lla	a0,.LC0
 458      13050500 
 459 0264 97000000 		call	_Z11printStringPKc@plt
 459      E7800000 
 460              	.LVL36:
 461 026c 6FF0DFFA 		j	.L16
 462              	.L18:
  32:src/Main.cpp  ****     }
  33:src/Main.cpp  **** //    threads[2]->start();
  34:src/Main.cpp  **** 
  35:src/Main.cpp  ****     while(!(threads[1]->isFinished() && threads[2]->isFinished())){
  36:src/Main.cpp  ****         _thread::yield();
 463              		.loc 2 36 9 is_stmt 1 discriminator 3
 464              		.loc 2 36 23 is_stmt 0 discriminator 3
 465 0270 97000000 		call	_ZN7_thread5yieldEv@plt
 465      E7800000 
 466              	.LVL37:
 467              	.L20:
  35:src/Main.cpp  ****         _thread::yield();
 468              		.loc 2 35 5 is_stmt 1
  35:src/Main.cpp  ****         _thread::yield();
 469              		.loc 2 35 11
  35:src/Main.cpp  ****         _thread::yield();
 470              		.loc 2 35 22 is_stmt 0
 471 0278 833704FE 		ld	a5,-32(s0)
 472              	.LVL38:
 473              	.LBB10:
 474              	.LBB11:
 475              		.file 4 "src/../h/_thread.hpp"
   1:src/../h/_thread.hpp **** //
   2:src/../h/_thread.hpp **** // Created by os on 6/20/22.
   3:src/../h/_thread.hpp **** //
   4:src/../h/_thread.hpp **** 
   5:src/../h/_thread.hpp **** #ifndef PROJECT_BASE_V1_1__THREAD_HPP
   6:src/../h/_thread.hpp **** #define PROJECT_BASE_V1_1__THREAD_HPP
   7:src/../h/_thread.hpp **** 
   8:src/../h/_thread.hpp **** #include "../lib/hw.h"
   9:src/../h/_thread.hpp **** #include "Scheduler.hpp"
  10:src/../h/_thread.hpp **** #include "MemoryAllocator.hpp"
  11:src/../h/_thread.hpp **** 
  12:src/../h/_thread.hpp **** class _thread {
  13:src/../h/_thread.hpp **** public:
  14:src/../h/_thread.hpp ****     ~_thread() {
  15:src/../h/_thread.hpp ****         MemoryAllocator::kmem_free(stack);
  16:src/../h/_thread.hpp ****     }
  17:src/../h/_thread.hpp **** 
  18:src/../h/_thread.hpp ****     bool isFinished() const { return finished; }
 476              		.loc 4 18 31 is_stmt 1
 477              		.loc 4 18 38 is_stmt 0
 478 027c 83C78702 		lbu	a5,40(a5)
GAS LISTING /tmp/ccXZTknX.s 			page 15


 479              	.LVL39:
 480              	.LBE11:
 481              	.LBE10:
  35:src/Main.cpp  ****         _thread::yield();
 482              		.loc 2 35 11
 483 0280 E38807FE 		beqz	a5,.L18
  35:src/Main.cpp  ****         _thread::yield();
 484              		.loc 2 35 50 discriminator 2
 485 0284 833784FE 		ld	a5,-24(s0)
 486              	.LVL40:
 487              	.LBB12:
 488              	.LBB13:
 489              		.loc 4 18 31 is_stmt 1 discriminator 2
 490              		.loc 4 18 38 is_stmt 0 discriminator 2
 491 0288 83C78702 		lbu	a5,40(a5)
 492              	.LVL41:
 493              	.LBE13:
 494              	.LBE12:
  35:src/Main.cpp  ****         _thread::yield();
 495              		.loc 2 35 11 discriminator 2
 496 028c E38207FE 		beqz	a5,.L18
  37:src/Main.cpp  ****     }
  38:src/Main.cpp  **** 
  39:src/Main.cpp  **** 
  40:src/Main.cpp  ****     printString("finished \n");
 497              		.loc 2 40 5 is_stmt 1
 498              		.loc 2 40 16 is_stmt 0
 499 0290 17050000 		lla	a0,.LC1
 499      13050500 
 500 0298 97000000 		call	_Z11printStringPKc@plt
 500      E7800000 
 501              	.LVL42:
  41:src/Main.cpp  **** 
  42:src/Main.cpp  ****     return 0;
 502              		.loc 2 42 5 is_stmt 1
  43:src/Main.cpp  **** }
 503              		.loc 2 43 1 is_stmt 0
 504 02a0 13050000 		li	a0,0
 505 02a4 83308102 		ld	ra,40(sp)
 506              		.cfi_restore 1
 507 02a8 03340102 		ld	s0,32(sp)
 508              		.cfi_restore 8
 509              		.cfi_def_cfa 2, 48
 510 02ac 13010103 		addi	sp,sp,48
 511              		.cfi_def_cfa_offset 0
 512 02b0 67800000 		jr	ra
 513              		.cfi_endproc
 514              	.LFE48:
 516              	.Letext0:
 517              		.file 5 "src/../h/../lib/hw.h"
 518              		.file 6 "src/../h/Print.hpp"
GAS LISTING /tmp/ccXZTknX.s 			page 16


DEFINED SYMBOLS
                            *ABS*:0000000000000000 Main.cpp
     /tmp/ccXZTknX.s:9      .text:0000000000000000 _Z7syscallP4args
     /tmp/ccXZTknX.s:13     .text:0000000000000000 .L0 
     /tmp/ccXZTknX.s:15     .text:0000000000000000 .L0 
     /tmp/ccXZTknX.s:16     .text:0000000000000004 .L0 
     /tmp/ccXZTknX.s:18     .text:0000000000000008 .L0 
     /tmp/ccXZTknX.s:20     .text:000000000000000c .L0 
     /tmp/ccXZTknX.s:22     .text:000000000000000c .L0 
     /tmp/ccXZTknX.s:23     .text:000000000000000c .L0 
     /tmp/ccXZTknX.s:26     .text:0000000000000010 .L0 
     /tmp/ccXZTknX.s:27     .text:0000000000000010 .L0 
     /tmp/ccXZTknX.s:30     .text:0000000000000014 .L0 
     /tmp/ccXZTknX.s:31     .text:0000000000000014 .L0 
     /tmp/ccXZTknX.s:34     .text:0000000000000018 .L0 
     /tmp/ccXZTknX.s:35     .text:0000000000000018 .L0 
     /tmp/ccXZTknX.s:38     .text:000000000000001c .L0 
     /tmp/ccXZTknX.s:39     .text:000000000000001c .L0 
     /tmp/ccXZTknX.s:42     .text:0000000000000020 .L0 
src/../h/syscall_c.h:36     .text:0000000000000020 .L0 
     /tmp/ccXZTknX.s:48     .text:0000000000000024 .L0 
src/../h/syscall_c.h:37     .text:0000000000000024 .L0 
     /tmp/ccXZTknX.s:53     .text:0000000000000028 .L0 
src/../h/syscall_c.h:38     .text:0000000000000028 .L0 
     /tmp/ccXZTknX.s:58     .text:000000000000002c .L0 
src/../h/syscall_c.h:39     .text:000000000000002c .L0 
     /tmp/ccXZTknX.s:63     .text:0000000000000030 .L0 
src/../h/syscall_c.h:40     .text:0000000000000030 .L0 
     /tmp/ccXZTknX.s:68     .text:0000000000000034 .L0 
src/../h/syscall_c.h:45     .text:0000000000000034 .L0 
     /tmp/ccXZTknX.s:74     .text:0000000000000038 .L0 
     /tmp/ccXZTknX.s:75     .text:000000000000003c .L0 
     /tmp/ccXZTknX.s:76     .text:000000000000003c .L0 
     /tmp/ccXZTknX.s:78     .text:0000000000000040 .L0 
     /tmp/ccXZTknX.s:80     .text:0000000000000044 .L0 
     /tmp/ccXZTknX.s:86     .text:0000000000000044 _Z9mem_allocm
     /tmp/ccXZTknX.s:89     .text:0000000000000044 .L0 
     /tmp/ccXZTknX.s:91     .text:0000000000000044 .L0 
     /tmp/ccXZTknX.s:92     .text:0000000000000048 .L0 
     /tmp/ccXZTknX.s:95     .text:0000000000000050 .L0 
     /tmp/ccXZTknX.s:96     .text:0000000000000050 .L0 
     /tmp/ccXZTknX.s:98     .text:0000000000000054 .L0 
     /tmp/ccXZTknX.s:100    .text:0000000000000054 .L0 
     /tmp/ccXZTknX.s:101    .text:0000000000000054 .L0 
     /tmp/ccXZTknX.s:102    .text:0000000000000054 .L0 
     /tmp/ccXZTknX.s:105    .text:000000000000005c .L0 
     /tmp/ccXZTknX.s:106    .text:000000000000005c .L0 
     /tmp/ccXZTknX.s:109    .text:0000000000000060 .L0 
     /tmp/ccXZTknX.s:110    .text:0000000000000060 .L0 
     /tmp/ccXZTknX.s:113    .text:0000000000000064 .L0 
     /tmp/ccXZTknX.s:115    .text:0000000000000068 .L0 
     /tmp/ccXZTknX.s:116    .text:0000000000000068 .L0 
     /tmp/ccXZTknX.s:120    .text:000000000000006c .L0 
     /tmp/ccXZTknX.s:121    .text:000000000000006c .L0 
     /tmp/ccXZTknX.s:123    .text:0000000000000070 .L0 
     /tmp/ccXZTknX.s:124    .text:0000000000000070 .L0 
     /tmp/ccXZTknX.s:128    .text:000000000000007c .L0 
GAS LISTING /tmp/ccXZTknX.s 			page 17


     /tmp/ccXZTknX.s:129    .text:000000000000007c .L0 
src/../h/syscall_c.h:63     .text:000000000000007c .L0 
     /tmp/ccXZTknX.s:136    .text:0000000000000080 .L0 
     /tmp/ccXZTknX.s:138    .text:0000000000000080 .L0 
     /tmp/ccXZTknX.s:139    .text:0000000000000084 .L0 
     /tmp/ccXZTknX.s:141    .text:0000000000000088 .L0 
     /tmp/ccXZTknX.s:142    .text:0000000000000088 .L0 
     /tmp/ccXZTknX.s:144    .text:000000000000008c .L0 
     /tmp/ccXZTknX.s:146    .text:0000000000000090 .L0 
     /tmp/ccXZTknX.s:152    .text:0000000000000090 _Z8mem_freePv
     /tmp/ccXZTknX.s:155    .text:0000000000000090 .L0 
     /tmp/ccXZTknX.s:157    .text:0000000000000090 .L0 
     /tmp/ccXZTknX.s:158    .text:0000000000000094 .L0 
     /tmp/ccXZTknX.s:161    .text:000000000000009c .L0 
     /tmp/ccXZTknX.s:162    .text:000000000000009c .L0 
     /tmp/ccXZTknX.s:164    .text:00000000000000a0 .L0 
     /tmp/ccXZTknX.s:166    .text:00000000000000a0 .L0 
     /tmp/ccXZTknX.s:167    .text:00000000000000a0 .L0 
     /tmp/ccXZTknX.s:168    .text:00000000000000a0 .L0 
     /tmp/ccXZTknX.s:171    .text:00000000000000a8 .L0 
     /tmp/ccXZTknX.s:172    .text:00000000000000a8 .L0 
     /tmp/ccXZTknX.s:174    .text:00000000000000ac .L0 
     /tmp/ccXZTknX.s:175    .text:00000000000000ac .L0 
     /tmp/ccXZTknX.s:180    .text:00000000000000b8 .L0 
     /tmp/ccXZTknX.s:181    .text:00000000000000b8 .L0 
src/../h/syscall_c.h:75     .text:00000000000000b8 .L0 
     /tmp/ccXZTknX.s:188    .text:00000000000000bc .L0 
     /tmp/ccXZTknX.s:190    .text:00000000000000bc .L0 
     /tmp/ccXZTknX.s:193    .text:00000000000000c4 .L0 
     /tmp/ccXZTknX.s:195    .text:00000000000000c8 .L0 
     /tmp/ccXZTknX.s:196    .text:00000000000000c8 .L0 
     /tmp/ccXZTknX.s:198    .text:00000000000000cc .L0 
     /tmp/ccXZTknX.s:200    .text:00000000000000d0 .L0 
     /tmp/ccXZTknX.s:206    .text:00000000000000d0 _Z13thread_createPP7_threadPFvPvES2_
     /tmp/ccXZTknX.s:209    .text:00000000000000d0 .L0 
     /tmp/ccXZTknX.s:211    .text:00000000000000d0 .L0 
     /tmp/ccXZTknX.s:212    .text:00000000000000d4 .L0 
     /tmp/ccXZTknX.s:218    .text:00000000000000e8 .L0 
     /tmp/ccXZTknX.s:219    .text:00000000000000e8 .L0 
     /tmp/ccXZTknX.s:220    .text:00000000000000e8 .L0 
     /tmp/ccXZTknX.s:221    .text:00000000000000e8 .L0 
     /tmp/ccXZTknX.s:222    .text:00000000000000e8 .L0 
     /tmp/ccXZTknX.s:224    .text:00000000000000ec .L0 
     /tmp/ccXZTknX.s:229    .text:00000000000000f8 .L0 
     /tmp/ccXZTknX.s:230    .text:00000000000000f8 .L0 
     /tmp/ccXZTknX.s:235    .text:0000000000000104 .L0 
     /tmp/ccXZTknX.s:236    .text:0000000000000104 .L0 
     /tmp/ccXZTknX.s:237    .text:0000000000000104 .L0 
     /tmp/ccXZTknX.s:240    .text:000000000000010c .L0 
     /tmp/ccXZTknX.s:241    .text:000000000000010c .L0 
     /tmp/ccXZTknX.s:243    .text:0000000000000110 .L0 
     /tmp/ccXZTknX.s:244    .text:0000000000000110 .L0 
     /tmp/ccXZTknX.s:246    .text:0000000000000114 .L0 
     /tmp/ccXZTknX.s:247    .text:0000000000000114 .L0 
     /tmp/ccXZTknX.s:249    .text:0000000000000118 .L0 
     /tmp/ccXZTknX.s:250    .text:0000000000000118 .L0 
     /tmp/ccXZTknX.s:252    .text:000000000000011c .L0 
GAS LISTING /tmp/ccXZTknX.s 			page 18


     /tmp/ccXZTknX.s:253    .text:000000000000011c .L0 
     /tmp/ccXZTknX.s:258    .text:0000000000000128 .L0 
     /tmp/ccXZTknX.s:259    .text:0000000000000128 .L0 
src/../h/syscall_c.h:97     .text:0000000000000128 .L0 
     /tmp/ccXZTknX.s:266    .text:000000000000012c .L0 
     /tmp/ccXZTknX.s:268    .text:000000000000012c .L0 
     /tmp/ccXZTknX.s:271    .text:0000000000000134 .L0 
     /tmp/ccXZTknX.s:273    .text:0000000000000138 .L0 
     /tmp/ccXZTknX.s:274    .text:0000000000000138 .L0 
     /tmp/ccXZTknX.s:276    .text:000000000000013c .L0 
     /tmp/ccXZTknX.s:279    .text:0000000000000140 .L0 
     /tmp/ccXZTknX.s:282    .text:0000000000000144 .L0 
     /tmp/ccXZTknX.s:285    .text:0000000000000148 .L0 
     /tmp/ccXZTknX.s:287    .text:000000000000014c .L0 
     /tmp/ccXZTknX.s:293    .text:000000000000014c _Z11thread_exitv
     /tmp/ccXZTknX.s:296    .text:000000000000014c .L0 
     /tmp/ccXZTknX.s:297    .text:000000000000014c .L0 
     /tmp/ccXZTknX.s:298    .text:0000000000000150 .L0 
     /tmp/ccXZTknX.s:301    .text:0000000000000158 .L0 
     /tmp/ccXZTknX.s:302    .text:0000000000000158 .L0 
     /tmp/ccXZTknX.s:304    .text:000000000000015c .L0 
     /tmp/ccXZTknX.s:306    .text:000000000000015c .L0 
     /tmp/ccXZTknX.s:307    .text:000000000000015c .L0 
     /tmp/ccXZTknX.s:308    .text:000000000000015c .L0 
     /tmp/ccXZTknX.s:311    .text:0000000000000164 .L0 
     /tmp/ccXZTknX.s:312    .text:0000000000000164 .L0 
     /tmp/ccXZTknX.s:316    .text:0000000000000170 .L0 
     /tmp/ccXZTknX.s:317    .text:0000000000000170 .L0 
     /tmp/ccXZTknX.s:319    .text:0000000000000178 .L0 
     /tmp/ccXZTknX.s:321    .text:000000000000017c .L0 
     /tmp/ccXZTknX.s:322    .text:000000000000017c .L0 
     /tmp/ccXZTknX.s:324    .text:0000000000000180 .L0 
     /tmp/ccXZTknX.s:326    .text:0000000000000184 .L0 
     /tmp/ccXZTknX.s:332    .text:0000000000000184 _Z15thread_dispatchv
     /tmp/ccXZTknX.s:335    .text:0000000000000184 .L0 
     /tmp/ccXZTknX.s:336    .text:0000000000000184 .L0 
     /tmp/ccXZTknX.s:337    .text:0000000000000188 .L0 
     /tmp/ccXZTknX.s:340    .text:0000000000000190 .L0 
     /tmp/ccXZTknX.s:341    .text:0000000000000190 .L0 
     /tmp/ccXZTknX.s:343    .text:0000000000000194 .L0 
     /tmp/ccXZTknX.s:345    .text:0000000000000194 .L0 
     /tmp/ccXZTknX.s:346    .text:0000000000000194 .L0 
     /tmp/ccXZTknX.s:347    .text:0000000000000194 .L0 
     /tmp/ccXZTknX.s:350    .text:000000000000019c .L0 
     /tmp/ccXZTknX.s:351    .text:000000000000019c .L0 
     /tmp/ccXZTknX.s:355    .text:00000000000001a8 .L0 
     /tmp/ccXZTknX.s:356    .text:00000000000001ac .L0 
     /tmp/ccXZTknX.s:358    .text:00000000000001b0 .L0 
     /tmp/ccXZTknX.s:359    .text:00000000000001b0 .L0 
     /tmp/ccXZTknX.s:361    .text:00000000000001b4 .L0 
     /tmp/ccXZTknX.s:363    .text:00000000000001b8 .L0 
     /tmp/ccXZTknX.s:377    .text:00000000000001b8 main
     /tmp/ccXZTknX.s:381    .text:00000000000001b8 .L0 
     /tmp/ccXZTknX.s:382    .text:00000000000001b8 .L0 
     /tmp/ccXZTknX.s:383    .text:00000000000001bc .L0 
     /tmp/ccXZTknX.s:386    .text:00000000000001c4 .L0 
     /tmp/ccXZTknX.s:387    .text:00000000000001c4 .L0 
GAS LISTING /tmp/ccXZTknX.s 			page 19


     /tmp/ccXZTknX.s:389    .text:00000000000001c8 .L0 
     /tmp/ccXZTknX.s:391    .text:00000000000001c8 .L0 
     /tmp/ccXZTknX.s:392    .text:00000000000001c8 .L0 
     /tmp/ccXZTknX.s:398    .text:00000000000001d0 .L0 
  src/../h/Riscv.hpp:125    .text:00000000000001d0 .L0 
     /tmp/ccXZTknX.s:408    .text:00000000000001d4 .L0 
     /tmp/ccXZTknX.s:409    .text:00000000000001d4 .L0 
     /tmp/ccXZTknX.s:410    .text:00000000000001d4 .L0 
     /tmp/ccXZTknX.s:416    .text:00000000000001e8 .L0 
     /tmp/ccXZTknX.s:419    .text:00000000000001ec .L0 
     /tmp/ccXZTknX.s:420    .text:00000000000001ec .L0 
     /tmp/ccXZTknX.s:424    .text:00000000000001fc .L0 
     /tmp/ccXZTknX.s:425    .text:00000000000001fc .L0 
     /tmp/ccXZTknX.s:431    .text:0000000000000214 .L0 
     /tmp/ccXZTknX.s:434    .text:0000000000000218 .L0 
     /tmp/ccXZTknX.s:435    .text:0000000000000218 .L0 
     /tmp/ccXZTknX.s:441    .text:0000000000000230 .L0 
     /tmp/ccXZTknX.s:443    .text:0000000000000234 .L0 
     /tmp/ccXZTknX.s:444    .text:0000000000000234 .L0 
     /tmp/ccXZTknX.s:450    .text:0000000000000248 .L0 
     /tmp/ccXZTknX.s:451    .text:0000000000000248 .L0 
     /tmp/ccXZTknX.s:457    .text:000000000000025c .L0 
     /tmp/ccXZTknX.s:458    .text:000000000000025c .L0 
     /tmp/ccXZTknX.s:464    .text:0000000000000270 .L0 
     /tmp/ccXZTknX.s:465    .text:0000000000000270 .L0 
     /tmp/ccXZTknX.s:469    .text:0000000000000278 .L0 
     /tmp/ccXZTknX.s:470    .text:0000000000000278 .L0 
     /tmp/ccXZTknX.s:471    .text:0000000000000278 .L0 
     /tmp/ccXZTknX.s:477    .text:000000000000027c .L0 
     /tmp/ccXZTknX.s:478    .text:000000000000027c .L0 
     /tmp/ccXZTknX.s:483    .text:0000000000000280 .L0 
     /tmp/ccXZTknX.s:485    .text:0000000000000284 .L0 
     /tmp/ccXZTknX.s:490    .text:0000000000000288 .L0 
     /tmp/ccXZTknX.s:491    .text:0000000000000288 .L0 
     /tmp/ccXZTknX.s:496    .text:000000000000028c .L0 
     /tmp/ccXZTknX.s:498    .text:0000000000000290 .L0 
     /tmp/ccXZTknX.s:499    .text:0000000000000290 .L0 
     /tmp/ccXZTknX.s:503    .text:00000000000002a0 .L0 
     /tmp/ccXZTknX.s:504    .text:00000000000002a0 .L0 
     /tmp/ccXZTknX.s:506    .text:00000000000002a8 .L0 
     /tmp/ccXZTknX.s:508    .text:00000000000002ac .L0 
     /tmp/ccXZTknX.s:509    .text:00000000000002ac .L0 
     /tmp/ccXZTknX.s:511    .text:00000000000002b0 .L0 
     /tmp/ccXZTknX.s:513    .text:00000000000002b4 .L0 
     /tmp/ccXZTknX.s:519    .text:00000000000002b4 .L0 
     /tmp/ccXZTknX.s:392    .text:00000000000001c8 .L0 
     /tmp/ccXZTknX.s:421    .text:00000000000001f0 .L0 
     /tmp/ccXZTknX.s:426    .text:0000000000000200 .L0 
     /tmp/ccXZTknX.s:436    .text:000000000000021c .L0 
     /tmp/ccXZTknX.s:368    .rodata.str1.8:0000000000000000 .LC0
     /tmp/ccXZTknX.s:444    .text:0000000000000234 .L0 
     /tmp/ccXZTknX.s:451    .text:0000000000000248 .L0 
     /tmp/ccXZTknX.s:458    .text:000000000000025c .L0 
     /tmp/ccXZTknX.s:371    .rodata.str1.8:0000000000000010 .LC1
     /tmp/ccXZTknX.s:499    .text:0000000000000290 .L0 
     /tmp/ccXZTknX.s:118    .text:000000000000006c .L4
     /tmp/ccXZTknX.s:448    .text:0000000000000248 .L22
GAS LISTING /tmp/ccXZTknX.s 			page 20


     /tmp/ccXZTknX.s:455    .text:000000000000025c .L23
     /tmp/ccXZTknX.s:467    .text:0000000000000278 .L20
     /tmp/ccXZTknX.s:417    .text:00000000000001ec .L15
     /tmp/ccXZTknX.s:432    .text:0000000000000218 .L16
     /tmp/ccXZTknX.s:462    .text:0000000000000270 .L18
     /tmp/ccXZTknX.s:1743   .debug_abbrev:0000000000000000 .Ldebug_abbrev0
     /tmp/ccXZTknX.s:2999   .debug_str:00000000000005f6 .LASF127
     /tmp/ccXZTknX.s:2977   .debug_str:0000000000000585 .LASF128
     /tmp/ccXZTknX.s:2905   .debug_str:0000000000000324 .LASF129
     /tmp/ccXZTknX.s:5      .text:0000000000000000 .Ltext0
     /tmp/ccXZTknX.s:516    .text:00000000000002b4 .Letext0
     /tmp/ccXZTknX.s:2793   .debug_line:0000000000000000 .Ldebug_line0
     /tmp/ccXZTknX.s:2867   .debug_str:0000000000000204 .LASF0
     /tmp/ccXZTknX.s:2891   .debug_str:00000000000002dc .LASF1
     /tmp/ccXZTknX.s:2953   .debug_str:00000000000004ca .LASF2
     /tmp/ccXZTknX.s:2959   .debug_str:000000000000050b .LASF4
     /tmp/ccXZTknX.s:2873   .debug_str:000000000000022b .LASF3
     /tmp/ccXZTknX.s:2801   .debug_str:0000000000000026 .LASF5
     /tmp/ccXZTknX.s:2925   .debug_str:00000000000003d3 .LASF6
     /tmp/ccXZTknX.s:2881   .debug_str:0000000000000293 .LASF7
     /tmp/ccXZTknX.s:2849   .debug_str:0000000000000163 .LASF8
     /tmp/ccXZTknX.s:2853   .debug_str:000000000000018f .LASF9
     /tmp/ccXZTknX.s:2821   .debug_str:00000000000000a6 .LASF10
     /tmp/ccXZTknX.s:2841   .debug_str:0000000000000141 .LASF11
     /tmp/ccXZTknX.s:2827   .debug_str:00000000000000d5 .LASF12
     /tmp/ccXZTknX.s:2819   .debug_str:0000000000000096 .LASF13
     /tmp/ccXZTknX.s:2985   .debug_str:00000000000005ad .LASF14
     /tmp/ccXZTknX.s:2839   .debug_str:000000000000012b .LASF15
     /tmp/ccXZTknX.s:2973   .debug_str:000000000000055e .LASF16
     /tmp/ccXZTknX.s:3041   .debug_str:00000000000007ab .LASF54
     /tmp/ccXZTknX.s:2859   .debug_str:00000000000001c6 .LASF49
     /tmp/ccXZTknX.s:2865   .debug_str:00000000000001ec .LASF51
     /tmp/ccXZTknX.s:3025   .debug_str:0000000000000745 .LASF17
     /tmp/ccXZTknX.s:3013   .debug_str:0000000000000717 .LASF19
     /tmp/ccXZTknX.s:2949   .debug_str:00000000000004b6 .LASF21
     /tmp/ccXZTknX.s:2919   .debug_str:00000000000003a8 .LASF23
     /tmp/ccXZTknX.s:2933   .debug_str:0000000000000422 .LASF18
     /tmp/ccXZTknX.s:2935   .debug_str:0000000000000429 .LASF20
     /tmp/ccXZTknX.s:2915   .debug_str:000000000000038d .LASF22
     /tmp/ccXZTknX.s:2883   .debug_str:00000000000002a6 .LASF24
     /tmp/ccXZTknX.s:3051   .debug_str:0000000000000804 .LASF25
     /tmp/ccXZTknX.s:3003   .debug_str:00000000000006cb .LASF26
     /tmp/ccXZTknX.s:2911   .debug_str:0000000000000371 .LASF27
     /tmp/ccXZTknX.s:2917   .debug_str:0000000000000394 .LASF28
     /tmp/ccXZTknX.s:2897   .debug_str:0000000000000302 .LASF29
     /tmp/ccXZTknX.s:2939   .debug_str:0000000000000462 .LASF30
     /tmp/ccXZTknX.s:3071   .debug_str:000000000000087c .LASF31
     /tmp/ccXZTknX.s:2871   .debug_str:0000000000000217 .LASF32
     /tmp/ccXZTknX.s:2981   .debug_str:0000000000000599 .LASF33
     /tmp/ccXZTknX.s:2961   .debug_str:0000000000000512 .LASF34
     /tmp/ccXZTknX.s:2963   .debug_str:0000000000000525 .LASF35
     /tmp/ccXZTknX.s:2823   .debug_str:00000000000000b5 .LASF36
     /tmp/ccXZTknX.s:2837   .debug_str:0000000000000125 .LASF37
     /tmp/ccXZTknX.s:2861   .debug_str:00000000000001d1 .LASF38
     /tmp/ccXZTknX.s:2869   .debug_str:0000000000000211 .LASF39
     /tmp/ccXZTknX.s:2833   .debug_str:000000000000010a .LASF40
     /tmp/ccXZTknX.s:2803   .debug_str:000000000000002d .LASF41
GAS LISTING /tmp/ccXZTknX.s 			page 21


     /tmp/ccXZTknX.s:2955   .debug_str:00000000000004d8 .LASF42
     /tmp/ccXZTknX.s:2951   .debug_str:00000000000004bf .LASF43
     /tmp/ccXZTknX.s:3067   .debug_str:0000000000000857 .LASF44
     /tmp/ccXZTknX.s:3043   .debug_str:00000000000007b1 .LASF45
     /tmp/ccXZTknX.s:3055   .debug_str:0000000000000813 .LASF46
     /tmp/ccXZTknX.s:3039   .debug_str:00000000000007a1 .LASF47
     /tmp/ccXZTknX.s:2907   .debug_str:0000000000000354 .LASF48
     /tmp/ccXZTknX.s:3049   .debug_str:00000000000007f5 .LASF50
     /tmp/ccXZTknX.s:2851   .debug_str:0000000000000173 .LASF52
     /tmp/ccXZTknX.s:2929   .debug_str:00000000000003f9 .LASF93
     /tmp/ccXZTknX.s:2877   .debug_str:0000000000000269 .LASF95
     /tmp/ccXZTknX.s:3065   .debug_str:0000000000000852 .LASF59
     /tmp/ccXZTknX.s:3037   .debug_str:0000000000000798 .LASF53
     /tmp/ccXZTknX.s:2805   .debug_str:0000000000000038 .LASF55
     /tmp/ccXZTknX.s:3061   .debug_str:0000000000000845 .LASF130
     /tmp/ccXZTknX.s:2815   .debug_str:0000000000000073 .LASF56
     /tmp/ccXZTknX.s:2809   .debug_str:000000000000004c .LASF57
     /tmp/ccXZTknX.s:2901   .debug_str:0000000000000310 .LASF58
     /tmp/ccXZTknX.s:2993   .debug_str:00000000000005db .LASF60
     /tmp/ccXZTknX.s:2987   .debug_str:00000000000005b9 .LASF61
     /tmp/ccXZTknX.s:2885   .debug_str:00000000000002b9 .LASF63
     /tmp/ccXZTknX.s:2995   .debug_str:00000000000005e3 .LASF65
     /tmp/ccXZTknX.s:2957   .debug_str:00000000000004f0 .LASF67
     /tmp/ccXZTknX.s:2807   .debug_str:0000000000000040 .LASF62
     /tmp/ccXZTknX.s:3033   .debug_str:0000000000000776 .LASF64
     /tmp/ccXZTknX.s:2895   .debug_str:00000000000002f5 .LASF66
     /tmp/ccXZTknX.s:2817   .debug_str:0000000000000079 .LASF68
     /tmp/ccXZTknX.s:2983   .debug_str:00000000000005a0 .LASF69
     /tmp/ccXZTknX.s:2937   .debug_str:000000000000043c .LASF70
     /tmp/ccXZTknX.s:2923   .debug_str:00000000000003ce .LASF131
     /tmp/ccXZTknX.s:2893   .debug_str:00000000000002ef .LASF71
     /tmp/ccXZTknX.s:2913   .debug_str:0000000000000379 .LASF72
     /tmp/ccXZTknX.s:3063   .debug_str:000000000000084c .LASF73
     /tmp/ccXZTknX.s:2931   .debug_str:000000000000040e .LASF74
     /tmp/ccXZTknX.s:2997   .debug_str:00000000000005ee .LASF132
     /tmp/ccXZTknX.s:3029   .debug_str:000000000000075c .LASF75
     /tmp/ccXZTknX.s:3031   .debug_str:0000000000000762 .LASF76
     /tmp/ccXZTknX.s:2825   .debug_str:00000000000000c8 .LASF77
     /tmp/ccXZTknX.s:3009   .debug_str:00000000000006f3 .LASF78
     /tmp/ccXZTknX.s:3069   .debug_str:000000000000086f .LASF79
     /tmp/ccXZTknX.s:2947   .debug_str:00000000000004a6 .LASF80
     /tmp/ccXZTknX.s:2813   .debug_str:0000000000000063 .LASF81
     /tmp/ccXZTknX.s:3059   .debug_str:0000000000000835 .LASF82
     /tmp/ccXZTknX.s:2799   .debug_str:0000000000000016 .LASF83
     /tmp/ccXZTknX.s:3001   .debug_str:00000000000006ba .LASF84
     /tmp/ccXZTknX.s:2971   .debug_str:000000000000054b .LASF85
     /tmp/ccXZTknX.s:2795   .debug_str:0000000000000000 .LASF86
     /tmp/ccXZTknX.s:2857   .debug_str:00000000000001ab .LASF87
     /tmp/ccXZTknX.s:2797   .debug_str:0000000000000011 .LASF88
     /tmp/ccXZTknX.s:2969   .debug_str:0000000000000545 .LASF89
     /tmp/ccXZTknX.s:3011   .debug_str:000000000000070f .LASF90
     /tmp/ccXZTknX.s:3005   .debug_str:00000000000006df .LASF91
     /tmp/ccXZTknX.s:2991   .debug_str:00000000000005d2 .LASF92
     /tmp/ccXZTknX.s:2811   .debug_str:0000000000000055 .LASF94
     /tmp/ccXZTknX.s:2941   .debug_str:0000000000000476 .LASF96
     /tmp/ccXZTknX.s:2829   .debug_str:00000000000000e5 .LASF133
     /tmp/ccXZTknX.s:2875   .debug_str:000000000000023d .LASF134
GAS LISTING /tmp/ccXZTknX.s 			page 22


     /tmp/ccXZTknX.s:2835   .debug_str:000000000000011c .LASF97
     /tmp/ccXZTknX.s:2831   .debug_str:00000000000000f3 .LASF98
     /tmp/ccXZTknX.s:2967   .debug_str:0000000000000534 .LASF99
     /tmp/ccXZTknX.s:2843   .debug_str:0000000000000150 .LASF100
     /tmp/ccXZTknX.s:3035   .debug_str:0000000000000791 .LASF101
     /tmp/ccXZTknX.s:2943   .debug_str:0000000000000493 .LASF102
     /tmp/ccXZTknX.s:2847   .debug_str:000000000000015e .LASF103
     /tmp/ccXZTknX.s:378    .text:00000000000001b8 .LFB48
     /tmp/ccXZTknX.s:514    .text:00000000000002b4 .LFE48
     /tmp/ccXZTknX.s:2965   .debug_str:000000000000052c .LASF104
     /tmp/ccXZTknX.s:394    .text:00000000000001d0 .LBB8
     /tmp/ccXZTknX.s:406    .text:00000000000001d4 .LBE8
     /tmp/ccXZTknX.s:473    .text:000000000000027c .LBB10
     /tmp/ccXZTknX.s:481    .text:0000000000000280 .LBE10
     /tmp/ccXZTknX.s:2646   .debug_loc:0000000000000000 .LLST9
     /tmp/ccXZTknX.s:487    .text:0000000000000288 .LBB12
     /tmp/ccXZTknX.s:494    .text:000000000000028c .LBE12
     /tmp/ccXZTknX.s:2653   .debug_loc:0000000000000023 .LLST10
     /tmp/ccXZTknX.s:414    .text:00000000000001e8 .LVL31
     /tmp/ccXZTknX.s:429    .text:0000000000000214 .LVL32
     /tmp/ccXZTknX.s:439    .text:0000000000000230 .LVL33
     /tmp/ccXZTknX.s:446    .text:0000000000000244 .LVL34
     /tmp/ccXZTknX.s:453    .text:0000000000000258 .LVL35
     /tmp/ccXZTknX.s:460    .text:000000000000026c .LVL36
     /tmp/ccXZTknX.s:466    .text:0000000000000278 .LVL37
     /tmp/ccXZTknX.s:501    .text:00000000000002a0 .LVL42
     /tmp/ccXZTknX.s:2845   .debug_str:0000000000000159 .LASF135
     /tmp/ccXZTknX.s:2989   .debug_str:00000000000005c2 .LASF105
     /tmp/ccXZTknX.s:3045   .debug_str:00000000000007bb .LASF106
     /tmp/ccXZTknX.s:333    .text:0000000000000184 .LFB35
     /tmp/ccXZTknX.s:364    .text:00000000000001b8 .LFE35
     /tmp/ccXZTknX.s:2979   .debug_str:0000000000000592 .LASF107
     /tmp/ccXZTknX.s:353    .text:00000000000001a8 .LVL28
     /tmp/ccXZTknX.s:2903   .debug_str:0000000000000318 .LASF108
     /tmp/ccXZTknX.s:2975   .debug_str:0000000000000574 .LASF110
     /tmp/ccXZTknX.s:294    .text:000000000000014c .LFB34
     /tmp/ccXZTknX.s:327    .text:0000000000000184 .LFE34
     /tmp/ccXZTknX.s:314    .text:0000000000000170 .LVL27
     /tmp/ccXZTknX.s:3027   .debug_str:000000000000074e .LASF109
     /tmp/ccXZTknX.s:3047   .debug_str:00000000000007d0 .LASF111
     /tmp/ccXZTknX.s:207    .text:00000000000000d0 .LFB33
     /tmp/ccXZTknX.s:288    .text:000000000000014c .LFE33
     /tmp/ccXZTknX.s:3053   .debug_str:000000000000080c .LASF112
     /tmp/ccXZTknX.s:2660   .debug_loc:0000000000000046 .LLST4
     /tmp/ccXZTknX.s:2887   .debug_str:00000000000002c9 .LASF113
     /tmp/ccXZTknX.s:2678   .debug_loc:0000000000000092 .LLST5
     /tmp/ccXZTknX.s:2696   .debug_loc:00000000000000de .LLST6
     /tmp/ccXZTknX.s:2714   .debug_loc:000000000000012a .LLST7
     /tmp/ccXZTknX.s:2726   .debug_loc:0000000000000161 .LLST8
     /tmp/ccXZTknX.s:233    .text:0000000000000104 .LVL19
     /tmp/ccXZTknX.s:256    .text:0000000000000128 .LVL21
     /tmp/ccXZTknX.s:2863   .debug_str:00000000000001e3 .LASF114
     /tmp/ccXZTknX.s:2945   .debug_str:0000000000000498 .LASF115
     /tmp/ccXZTknX.s:153    .text:0000000000000090 .LFB32
     /tmp/ccXZTknX.s:201    .text:00000000000000d0 .LFE32
     /tmp/ccXZTknX.s:2733   .debug_loc:0000000000000184 .LLST2
     /tmp/ccXZTknX.s:2752   .debug_loc:00000000000001d1 .LLST3
GAS LISTING /tmp/ccXZTknX.s 			page 23


     /tmp/ccXZTknX.s:178    .text:00000000000000b8 .LVL14
     /tmp/ccXZTknX.s:3007   .debug_str:00000000000006e9 .LASF116
     /tmp/ccXZTknX.s:2855   .debug_str:000000000000019d .LASF117
     /tmp/ccXZTknX.s:87     .text:0000000000000044 .LFB31
     /tmp/ccXZTknX.s:147    .text:0000000000000090 .LFE31
     /tmp/ccXZTknX.s:2889   .debug_str:00000000000002d7 .LASF118
     /tmp/ccXZTknX.s:2759   .debug_loc:00000000000001f4 .LLST0
     /tmp/ccXZTknX.s:2909   .debug_str:000000000000036a .LASF119
     /tmp/ccXZTknX.s:2773   .debug_loc:000000000000022d .LLST1
     /tmp/ccXZTknX.s:126    .text:000000000000007c .LVL10
     /tmp/ccXZTknX.s:2879   .debug_str:000000000000028b .LASF120
     /tmp/ccXZTknX.s:2921   .debug_str:00000000000003bd .LASF121
     /tmp/ccXZTknX.s:10     .text:0000000000000000 .LFB30
     /tmp/ccXZTknX.s:81     .text:0000000000000044 .LFE30
     /tmp/ccXZTknX.s:3015   .debug_str:000000000000072c .LASF122
     /tmp/ccXZTknX.s:3017   .debug_str:0000000000000731 .LASF123
     /tmp/ccXZTknX.s:3019   .debug_str:0000000000000736 .LASF124
     /tmp/ccXZTknX.s:3021   .debug_str:000000000000073b .LASF125
     /tmp/ccXZTknX.s:3023   .debug_str:0000000000000740 .LASF126
     /tmp/ccXZTknX.s:2899   .debug_str:000000000000030a .LASF136
     /tmp/ccXZTknX.s:2927   .debug_str:00000000000003e6 .LASF137
     /tmp/ccXZTknX.s:3057   .debug_str:0000000000000829 .LASF138
     /tmp/ccXZTknX.s:472    .text:000000000000027c .LVL38
     /tmp/ccXZTknX.s:479    .text:0000000000000280 .LVL39
     /tmp/ccXZTknX.s:486    .text:0000000000000288 .LVL40
     /tmp/ccXZTknX.s:492    .text:000000000000028c .LVL41
     /tmp/ccXZTknX.s:210    .text:00000000000000d0 .LVL17
     /tmp/ccXZTknX.s:231    .text:00000000000000fc .LVL18
     /tmp/ccXZTknX.s:283    .text:0000000000000144 .LVL26
     /tmp/ccXZTknX.s:280    .text:0000000000000140 .LVL25
     /tmp/ccXZTknX.s:277    .text:000000000000013c .LVL24
     /tmp/ccXZTknX.s:254    .text:0000000000000120 .LVL20
     /tmp/ccXZTknX.s:264    .text:000000000000012c .LVL22
     /tmp/ccXZTknX.s:269    .text:0000000000000130 .LVL23
     /tmp/ccXZTknX.s:156    .text:0000000000000090 .LVL12
     /tmp/ccXZTknX.s:176    .text:00000000000000b0 .LVL13
     /tmp/ccXZTknX.s:186    .text:00000000000000bc .LVL15
     /tmp/ccXZTknX.s:191    .text:00000000000000c0 .LVL16
     /tmp/ccXZTknX.s:90     .text:0000000000000044 .LVL6
     /tmp/ccXZTknX.s:111    .text:0000000000000064 .LVL8
     /tmp/ccXZTknX.s:107    .text:0000000000000060 .LVL7
     /tmp/ccXZTknX.s:520    .debug_info:0000000000000000 .Ldebug_info0

UNDEFINED SYMBOLS
_ZN5Riscv14supervisorTrapEv
_ZN7_thread7runningE
_Z11workerBodyAPv
_Z11workerBodyBPv
_Z11printStringPKc
_ZN7_thread5yieldEv
