GAS LISTING /tmp/cc5heBtZ.s 			page 1


   1              		.file	"Main.cpp"
   2              		.option pic
   3              		.option norelax
   4              		.text
   5              	.Ltext0:
   6              		.align	2
   7              		.globl	_Z7syscallP4args
   9              	_Z7syscallP4args:
  10              	.LFB28:
  11              		.file 1 "src/../h/syscall_c.h"
   1:src/../h/syscall_c.h **** //
   2:src/../h/syscall_c.h **** // Created by os on 6/19/22.
   3:src/../h/syscall_c.h **** //
   4:src/../h/syscall_c.h **** 
   5:src/../h/syscall_c.h **** #ifndef PROJECT_BASE_V1_1_SYSCALL_C_H
   6:src/../h/syscall_c.h **** #define PROJECT_BASE_V1_1_SYSCALL_C_H
   7:src/../h/syscall_c.h **** 
   8:src/../h/syscall_c.h **** 
   9:src/../h/syscall_c.h **** #include "../h/MemoryAllocator.hpp"
  10:src/../h/syscall_c.h **** 
  11:src/../h/syscall_c.h **** 
  12:src/../h/syscall_c.h **** 
  13:src/../h/syscall_c.h **** //extern "C" void supervisorTrap();
  14:src/../h/syscall_c.h **** 
  15:src/../h/syscall_c.h **** struct args{
  16:src/../h/syscall_c.h ****     uint64 a0;
  17:src/../h/syscall_c.h ****     uint64 a1;
  18:src/../h/syscall_c.h ****     uint64 a2;
  19:src/../h/syscall_c.h ****     uint64 a3;
  20:src/../h/syscall_c.h **** 
  21:src/../h/syscall_c.h **** };
  22:src/../h/syscall_c.h **** 
  23:src/../h/syscall_c.h **** void syscall(args* arg){
  12              		.loc 1 23 24
  13              		.cfi_startproc
  14              	.LVL0:
  15 0000 130101FF 		addi	sp,sp,-16
  16              		.cfi_def_cfa_offset 16
  17 0004 23348100 		sd	s0,8(sp)
  18              		.cfi_offset 8, -8
  19 0008 13040101 		addi	s0,sp,16
  20              		.cfi_def_cfa 8, 0
  24:src/../h/syscall_c.h ****     //should prepare arguments in registers
  25:src/../h/syscall_c.h ****     //should call interrupt routine with ecall
  26:src/../h/syscall_c.h **** 
  27:src/../h/syscall_c.h **** 
  28:src/../h/syscall_c.h ****     uint64 arg0 = arg->a0;
  21              		.loc 1 28 5
  22              		.loc 1 28 12 is_stmt 0
  23 000c 03360500 		ld	a2,0(a0)
  24              	.LVL1:
  29:src/../h/syscall_c.h ****     uint64 arg1 = arg->a1;
  25              		.loc 1 29 5 is_stmt 1
  26              		.loc 1 29 12 is_stmt 0
  27 0010 83368500 		ld	a3,8(a0)
  28              	.LVL2:
  30:src/../h/syscall_c.h ****     uint64 arg2 = arg->a2;
GAS LISTING /tmp/cc5heBtZ.s 			page 2


  29              		.loc 1 30 5 is_stmt 1
  30              		.loc 1 30 12 is_stmt 0
  31 0014 03370501 		ld	a4,16(a0)
  32              	.LVL3:
  31:src/../h/syscall_c.h ****     uint64 arg3 = arg->a3;
  33              		.loc 1 31 5 is_stmt 1
  34              		.loc 1 31 12 is_stmt 0
  35 0018 83378501 		ld	a5,24(a0)
  36              	.LVL4:
  32:src/../h/syscall_c.h **** 
  33:src/../h/syscall_c.h ****     //lock this section?
  34:src/../h/syscall_c.h ****     __asm__ volatile("mv a0, %0" : : "r" (arg0));
  37              		.loc 1 34 5 is_stmt 1
  38              		.loc 1 34 49 is_stmt 0
  39              	#APP
  40              	# 34 "src/../h/syscall_c.h" 1
  35              	    __asm__ volatile("mv a1, %0" : : "r" (arg1));
  41              		mv a0, a2
  42              	# 0 "" 2
  43              		.loc 1 35 5 is_stmt 1
  44              		.loc 1 35 49 is_stmt 0
  45              	# 35 "src/../h/syscall_c.h" 1
  36              	    __asm__ volatile("mv a2, %0" : : "r" (arg2));
  46              		mv a1, a3
  47              	# 0 "" 2
  48              		.loc 1 36 5 is_stmt 1
  49              		.loc 1 36 49 is_stmt 0
  50              	# 36 "src/../h/syscall_c.h" 1
  37              	    __asm__ volatile("mv a3, %0" : : "r" (arg3));
  51              		mv a2, a4
  52              	# 0 "" 2
  53              		.loc 1 37 5 is_stmt 1
  54              		.loc 1 37 49 is_stmt 0
  55              	# 37 "src/../h/syscall_c.h" 1
  38              	
  39:src/../h/syscall_c.h **** 
  40:src/../h/syscall_c.h **** 
  41:src/../h/syscall_c.h **** //    Riscv::ms_sstatus(Riscv::SSTATUS_SIE);
  42:src/../h/syscall_c.h ****     __asm__ volatile ("ecall");
  56              		mv a3, a5
  57              	# 0 "" 2
  58              		.loc 1 42 5 is_stmt 1
  59              		.loc 1 42 31 is_stmt 0
  60              	# 42 "src/../h/syscall_c.h" 1
  43              	
  44:src/../h/syscall_c.h **** 
  45:src/../h/syscall_c.h **** }
  61              		ecall
  62              	# 0 "" 2
  63              		.loc 1 45 1
  64              	#NO_APP
  65 0030 03348100 		ld	s0,8(sp)
  66              		.cfi_restore 8
  67              		.cfi_def_cfa 2, 16
  68 0034 13010101 		addi	sp,sp,16
  69              		.cfi_def_cfa_offset 0
  70 0038 67800000 		jr	ra
GAS LISTING /tmp/cc5heBtZ.s 			page 3


  71              		.cfi_endproc
  72              	.LFE28:
  74              		.align	2
  75              		.globl	_Z9mem_allocm
  77              	_Z9mem_allocm:
  78              	.LFB29:
  46:src/../h/syscall_c.h **** 
  47:src/../h/syscall_c.h **** void* mem_alloc (size_t size){
  79              		.loc 1 47 30 is_stmt 1
  80              		.cfi_startproc
  81              	.LVL5:
  82 003c 130101FD 		addi	sp,sp,-48
  83              		.cfi_def_cfa_offset 48
  84 0040 23341102 		sd	ra,40(sp)
  85 0044 23308102 		sd	s0,32(sp)
  86              		.cfi_offset 1, -8
  87              		.cfi_offset 8, -16
  88 0048 13040103 		addi	s0,sp,48
  89              		.cfi_def_cfa 8, 0
  48:src/../h/syscall_c.h ****     //prepares parameters to arguments
  49:src/../h/syscall_c.h ****     //executes system call instruction
  50:src/../h/syscall_c.h ****     args arg;
  90              		.loc 1 50 5
  51:src/../h/syscall_c.h ****     arg.a0=0x01;
  91              		.loc 1 51 5
  92              		.loc 1 51 11 is_stmt 0
  93 004c 93071000 		li	a5,1
  94 0050 2338F4FC 		sd	a5,-48(s0)
  52:src/../h/syscall_c.h **** 
  53:src/../h/syscall_c.h ****     size_t blocks = size/MEM_BLOCK_SIZE;
  95              		.loc 1 53 5 is_stmt 1
  96              		.loc 1 53 12 is_stmt 0
  97 0054 93576500 		srli	a5,a0,6
  98              	.LVL6:
  54:src/../h/syscall_c.h ****     if(size%MEM_BLOCK_SIZE!=0)blocks++;
  99              		.loc 1 54 5 is_stmt 1
 100              		.loc 1 54 12 is_stmt 0
 101 0058 1375F503 		andi	a0,a0,63
 102              	.LVL7:
 103              		.loc 1 54 5
 104 005c 63040500 		beqz	a0,.L4
 105              		.loc 1 54 31 is_stmt 1 discriminator 1
 106              		.loc 1 54 37 is_stmt 0 discriminator 1
 107 0060 93871700 		addi	a5,a5,1
 108              	.LVL8:
 109              	.L4:
  55:src/../h/syscall_c.h ****     arg.a1=blocks;
 110              		.loc 1 55 5 is_stmt 1
 111              		.loc 1 55 11 is_stmt 0
 112 0064 233CF4FC 		sd	a5,-40(s0)
  56:src/../h/syscall_c.h **** 
  57:src/../h/syscall_c.h ****     syscall(&arg);
 113              		.loc 1 57 5 is_stmt 1
 114              		.loc 1 57 12 is_stmt 0
 115 0068 130504FD 		addi	a0,s0,-48
 116 006c 97000000 		call	_Z7syscallP4args
 116      E7800000 
GAS LISTING /tmp/cc5heBtZ.s 			page 4


 117              	.LVL9:
  58:src/../h/syscall_c.h **** 
  59:src/../h/syscall_c.h ****     uint64 ret;
 118              		.loc 1 59 5 is_stmt 1
  60:src/../h/syscall_c.h ****     __asm__ volatile("mv %0, a0" : "=r" (ret));
 119              		.loc 1 60 5
 120              		.loc 1 60 47 is_stmt 0
 121              	#APP
 122              	# 60 "src/../h/syscall_c.h" 1
  61              	
 123              		mv a0, a0
 124              	# 0 "" 2
 125              	.LVL10:
  62:src/../h/syscall_c.h ****     return (void*)ret;
 126              		.loc 1 62 5 is_stmt 1
  63:src/../h/syscall_c.h **** }
 127              		.loc 1 63 1 is_stmt 0
 128              	#NO_APP
 129 0078 83308102 		ld	ra,40(sp)
 130              		.cfi_restore 1
 131 007c 03340102 		ld	s0,32(sp)
 132              		.cfi_restore 8
 133              		.cfi_def_cfa 2, 48
 134 0080 13010103 		addi	sp,sp,48
 135              		.cfi_def_cfa_offset 0
 136 0084 67800000 		jr	ra
 137              		.cfi_endproc
 138              	.LFE29:
 140              		.align	2
 141              		.globl	_Z8mem_freePv
 143              	_Z8mem_freePv:
 144              	.LFB30:
  64:src/../h/syscall_c.h **** 
  65:src/../h/syscall_c.h **** int mem_free (void* p){
 145              		.loc 1 65 23 is_stmt 1
 146              		.cfi_startproc
 147              	.LVL11:
 148 0088 130101FD 		addi	sp,sp,-48
 149              		.cfi_def_cfa_offset 48
 150 008c 23341102 		sd	ra,40(sp)
 151 0090 23308102 		sd	s0,32(sp)
 152              		.cfi_offset 1, -8
 153              		.cfi_offset 8, -16
 154 0094 13040103 		addi	s0,sp,48
 155              		.cfi_def_cfa 8, 0
  66:src/../h/syscall_c.h ****     args arg;
 156              		.loc 1 66 5
  67:src/../h/syscall_c.h ****     arg.a0=0x02;
 157              		.loc 1 67 5
 158              		.loc 1 67 11 is_stmt 0
 159 0098 93072000 		li	a5,2
 160 009c 2338F4FC 		sd	a5,-48(s0)
  68:src/../h/syscall_c.h ****     arg.a1=(uint64)p;
 161              		.loc 1 68 5 is_stmt 1
 162              		.loc 1 68 11 is_stmt 0
 163 00a0 233CA4FC 		sd	a0,-40(s0)
  69:src/../h/syscall_c.h **** 
GAS LISTING /tmp/cc5heBtZ.s 			page 5


  70:src/../h/syscall_c.h ****     syscall(&arg);
 164              		.loc 1 70 5 is_stmt 1
 165              		.loc 1 70 12 is_stmt 0
 166 00a4 130504FD 		addi	a0,s0,-48
 167              	.LVL12:
 168 00a8 97000000 		call	_Z7syscallP4args
 168      E7800000 
 169              	.LVL13:
  71:src/../h/syscall_c.h ****     uint64 ret;
 170              		.loc 1 71 5 is_stmt 1
  72:src/../h/syscall_c.h ****     __asm__ volatile("mv %0, a0" : "=r" (ret));
 171              		.loc 1 72 5
 172              		.loc 1 72 47 is_stmt 0
 173              	#APP
 174              	# 72 "src/../h/syscall_c.h" 1
  73              	    return (int)ret;
 175              		mv a0, a0
 176              	# 0 "" 2
 177              	.LVL14:
 178              		.loc 1 73 5 is_stmt 1
  74:src/../h/syscall_c.h **** }
 179              		.loc 1 74 1 is_stmt 0
 180              	#NO_APP
 181 00b4 1B050500 		sext.w	a0,a0
 182              	.LVL15:
 183 00b8 83308102 		ld	ra,40(sp)
 184              		.cfi_restore 1
 185 00bc 03340102 		ld	s0,32(sp)
 186              		.cfi_restore 8
 187              		.cfi_def_cfa 2, 48
 188 00c0 13010103 		addi	sp,sp,48
 189              		.cfi_def_cfa_offset 0
 190 00c4 67800000 		jr	ra
 191              		.cfi_endproc
 192              	.LFE30:
 194              		.align	2
 195              		.globl	_Z13thread_createPP7_threadPFvPvES2_
 197              	_Z13thread_createPP7_threadPFvPvES2_:
 198              	.LFB31:
  75:src/../h/syscall_c.h **** 
  76:src/../h/syscall_c.h **** class _thread;
  77:src/../h/syscall_c.h **** typedef _thread* thread_t;  //thread_t je pokazivac, a handle je pokazivac na pokazivac tipa _threa
  78:src/../h/syscall_c.h **** int thread_create (
  79:src/../h/syscall_c.h ****         thread_t* handle,
  80:src/../h/syscall_c.h ****         void(*start_routine)(void*),
  81:src/../h/syscall_c.h ****         void* arg
  82:src/../h/syscall_c.h **** ){
 199              		.loc 1 82 2 is_stmt 1
 200              		.cfi_startproc
 201              	.LVL16:
 202 00c8 130101FD 		addi	sp,sp,-48
 203              		.cfi_def_cfa_offset 48
 204 00cc 23341102 		sd	ra,40(sp)
 205 00d0 23308102 		sd	s0,32(sp)
 206              		.cfi_offset 1, -8
 207              		.cfi_offset 8, -16
 208 00d4 13040103 		addi	s0,sp,48
GAS LISTING /tmp/cc5heBtZ.s 			page 6


 209              		.cfi_def_cfa 8, 0
  83:src/../h/syscall_c.h ****     args myArgs;
 210              		.loc 1 83 5
  84:src/../h/syscall_c.h ****     myArgs.a0=0x11;
 211              		.loc 1 84 5
 212              		.loc 1 84 14 is_stmt 0
 213 00d8 93071001 		li	a5,17
 214 00dc 2338F4FC 		sd	a5,-48(s0)
  85:src/../h/syscall_c.h ****     myArgs.a1=(uint64)handle;   //on address handle there is thread_t adress
 215              		.loc 1 85 5 is_stmt 1
 216              		.loc 1 85 14 is_stmt 0
 217 00e0 233CA4FC 		sd	a0,-40(s0)
  86:src/../h/syscall_c.h ****     myArgs.a2=(uint64)start_routine;
 218              		.loc 1 86 5 is_stmt 1
 219              		.loc 1 86 14 is_stmt 0
 220 00e4 2330B4FE 		sd	a1,-32(s0)
  87:src/../h/syscall_c.h ****     myArgs.a3=(uint64)arg;
 221              		.loc 1 87 5 is_stmt 1
 222              		.loc 1 87 14 is_stmt 0
 223 00e8 2334C4FE 		sd	a2,-24(s0)
  88:src/../h/syscall_c.h **** 
  89:src/../h/syscall_c.h ****     syscall(&myArgs);
 224              		.loc 1 89 5 is_stmt 1
 225              		.loc 1 89 12 is_stmt 0
 226 00ec 130504FD 		addi	a0,s0,-48
 227              	.LVL17:
 228 00f0 97000000 		call	_Z7syscallP4args
 228      E7800000 
 229              	.LVL18:
  90:src/../h/syscall_c.h ****     uint64 ret;
 230              		.loc 1 90 5 is_stmt 1
  91:src/../h/syscall_c.h ****     __asm__ volatile("mv %0, a0" : "=r" (ret));
 231              		.loc 1 91 5
 232              		.loc 1 91 47 is_stmt 0
 233              	#APP
 234              	# 91 "src/../h/syscall_c.h" 1
  92              	    if((thread_t*)ret != nullptr){
 235              		mv a5, a0
 236              	# 0 "" 2
 237              	.LVL19:
 238              		.loc 1 92 5 is_stmt 1
 239              	#NO_APP
 240 00fc 638C0700 		beqz	a5,.L10
  93:src/../h/syscall_c.h ****         handle = (thread_t*)&ret;
  94:src/../h/syscall_c.h ****         return 0;
 241              		.loc 1 94 16 is_stmt 0
 242 0100 13050000 		li	a0,0
 243              	.L9:
 244              	.LVL20:
  95:src/../h/syscall_c.h ****     }
  96:src/../h/syscall_c.h ****     else{
  97:src/../h/syscall_c.h ****         return -1;
  98:src/../h/syscall_c.h ****     }
  99:src/../h/syscall_c.h ****     return (int)ret;
 100:src/../h/syscall_c.h **** }
 245              		.loc 1 100 1
 246 0104 83308102 		ld	ra,40(sp)
GAS LISTING /tmp/cc5heBtZ.s 			page 7


 247              		.cfi_remember_state
 248              		.cfi_restore 1
 249 0108 03340102 		ld	s0,32(sp)
 250              		.cfi_restore 8
 251              		.cfi_def_cfa 2, 48
 252 010c 13010103 		addi	sp,sp,48
 253              		.cfi_def_cfa_offset 0
 254 0110 67800000 		jr	ra
 255              	.LVL21:
 256              	.L10:
 257              		.cfi_restore_state
  97:src/../h/syscall_c.h ****     }
 258              		.loc 1 97 17
 259 0114 1305F0FF 		li	a0,-1
 260 0118 6FF0DFFE 		j	.L9
 261              		.cfi_endproc
 262              	.LFE31:
 264              		.section	.rodata.str1.8,"aMS",@progbits,1
 265              		.align	3
 266              	.LC0:
 267 0000 6D61696E 		.string	"main created \n"
 267      20637265 
 267      61746564 
 267      200A00
 268 000f 00       		.align	3
 269              	.LC1:
 270 0010 6572726F 		.string	"error main\n"
 270      72206D61 
 270      696E0A00 
 271 001c 00000000 		.align	3
 272              	.LC2:
 273 0020 74687265 		.string	"thread created \n"
 273      61642063 
 273      72656174 
 273      6564200A 
 273      00
 274 0031 00000000 		.align	3
 274      000000
 275              	.LC3:
 276 0038 6572726F 		.string	"error worker a\n"
 276      7220776F 
 276      726B6572 
 276      20610A00 
 277              		.text
 278              		.align	2
 279              		.globl	main
 281              	main:
 282              	.LFB44:
 283              		.file 2 "src/Main.cpp"
   1:src/Main.cpp  **** //
   2:src/Main.cpp  **** // Created by os on 6/18/22.
   3:src/Main.cpp  **** //
   4:src/Main.cpp  **** 
   5:src/Main.cpp  **** #include "../h/Riscv.hpp"
   6:src/Main.cpp  **** #include "../h/List.hpp"
   7:src/Main.cpp  **** #include "../h/syscall_c.h"
   8:src/Main.cpp  **** #include "../h/Print.hpp"
GAS LISTING /tmp/cc5heBtZ.s 			page 8


   9:src/Main.cpp  **** #include "../h/workers.hpp"
  10:src/Main.cpp  **** #include "../h/_thread.hpp"
  11:src/Main.cpp  **** 
  12:src/Main.cpp  **** int main(){
 284              		.loc 2 12 11 is_stmt 1
 285              		.cfi_startproc
 286 011c 130101FD 		addi	sp,sp,-48
 287              		.cfi_def_cfa_offset 48
 288 0120 23341102 		sd	ra,40(sp)
 289 0124 23308102 		sd	s0,32(sp)
 290              		.cfi_offset 1, -8
 291              		.cfi_offset 8, -16
 292 0128 13040103 		addi	s0,sp,48
 293              		.cfi_def_cfa 8, 0
  13:src/Main.cpp  **** 
  14:src/Main.cpp  **** //    Riscv::w_stvec((uint64)&supervisorTrap);
  15:src/Main.cpp  **** //    Riscv::ms_sstatus(Riscv::SSTATUS_SIE);
  16:src/Main.cpp  **** //    __asm__ volatile ("ecall");
  17:src/Main.cpp  ****     Riscv::w_stvec((uint64)&Riscv::supervisorTrap);
 294              		.loc 2 17 5
 295              		.loc 2 17 19 is_stmt 0
 296 012c 97070000 		la	a5,_ZN5Riscv14supervisorTrapEv
 296      83B70700 
 297              	.LVL22:
 298              	.LBB4:
 299              	.LBB5:
 300              		.file 3 "src/../h/Riscv.hpp"
   1:src/../h/Riscv.hpp **** //
   2:src/../h/Riscv.hpp **** // Created by os on 6/17/22.
   3:src/../h/Riscv.hpp **** //
   4:src/../h/Riscv.hpp **** 
   5:src/../h/Riscv.hpp **** #ifndef PROJECT_BASE_V1_1_RISCV_HPP
   6:src/../h/Riscv.hpp **** #define PROJECT_BASE_V1_1_RISCV_HPP
   7:src/../h/Riscv.hpp **** 
   8:src/../h/Riscv.hpp **** #include "../lib/hw.h"
   9:src/../h/Riscv.hpp **** 
  10:src/../h/Riscv.hpp **** 
  11:src/../h/Riscv.hpp **** class Riscv
  12:src/../h/Riscv.hpp **** {
  13:src/../h/Riscv.hpp **** public:
  14:src/../h/Riscv.hpp **** 
  15:src/../h/Riscv.hpp ****     // pop sstatus.spp and sstatus.spie bits (has to be a non inline function)
  16:src/../h/Riscv.hpp ****     static void popSppSpie();
  17:src/../h/Riscv.hpp **** 
  18:src/../h/Riscv.hpp ****     // read register scause
  19:src/../h/Riscv.hpp ****     static uint64 r_scause();
  20:src/../h/Riscv.hpp **** 
  21:src/../h/Riscv.hpp ****     // write register scause
  22:src/../h/Riscv.hpp ****     static void w_scause(uint64 scause);
  23:src/../h/Riscv.hpp **** 
  24:src/../h/Riscv.hpp ****     // read register sepc
  25:src/../h/Riscv.hpp ****     static uint64 r_sepc();
  26:src/../h/Riscv.hpp **** 
  27:src/../h/Riscv.hpp ****     // write register sepc
  28:src/../h/Riscv.hpp ****     static void w_sepc(uint64 sepc);
  29:src/../h/Riscv.hpp **** 
  30:src/../h/Riscv.hpp ****     // read register stvec
GAS LISTING /tmp/cc5heBtZ.s 			page 9


  31:src/../h/Riscv.hpp ****     static uint64 r_stvec();
  32:src/../h/Riscv.hpp **** 
  33:src/../h/Riscv.hpp ****     // write register stvec
  34:src/../h/Riscv.hpp ****     static void w_stvec(uint64 stvec);
  35:src/../h/Riscv.hpp **** 
  36:src/../h/Riscv.hpp ****     // read register stval
  37:src/../h/Riscv.hpp ****     static uint64 r_stval();
  38:src/../h/Riscv.hpp **** 
  39:src/../h/Riscv.hpp ****     // write register stval
  40:src/../h/Riscv.hpp ****     static void w_stval(uint64 stval);
  41:src/../h/Riscv.hpp **** 
  42:src/../h/Riscv.hpp ****     enum BitMaskSip
  43:src/../h/Riscv.hpp ****     {
  44:src/../h/Riscv.hpp ****         SIP_SSIP = (1 << 1),
  45:src/../h/Riscv.hpp ****         SIP_STIP = (1 << 5),
  46:src/../h/Riscv.hpp ****         SIP_SEIP = (1 << 9),
  47:src/../h/Riscv.hpp ****     };
  48:src/../h/Riscv.hpp **** 
  49:src/../h/Riscv.hpp ****     // mask set register sip
  50:src/../h/Riscv.hpp ****     static void ms_sip(uint64 mask);
  51:src/../h/Riscv.hpp **** 
  52:src/../h/Riscv.hpp ****     // mask clear register sip
  53:src/../h/Riscv.hpp ****     static void mc_sip(uint64 mask);
  54:src/../h/Riscv.hpp **** 
  55:src/../h/Riscv.hpp ****     // read register sip
  56:src/../h/Riscv.hpp ****     static uint64 r_sip();
  57:src/../h/Riscv.hpp **** 
  58:src/../h/Riscv.hpp ****     // write register sip
  59:src/../h/Riscv.hpp ****     static void w_sip(uint64 sip);
  60:src/../h/Riscv.hpp **** 
  61:src/../h/Riscv.hpp ****     enum BitMaskSstatus
  62:src/../h/Riscv.hpp ****     {
  63:src/../h/Riscv.hpp ****         SSTATUS_SIE = (1 << 1),
  64:src/../h/Riscv.hpp ****         SSTATUS_SPIE = (1 << 5),
  65:src/../h/Riscv.hpp ****         SSTATUS_SPP = (1 << 8),
  66:src/../h/Riscv.hpp ****     };
  67:src/../h/Riscv.hpp **** 
  68:src/../h/Riscv.hpp ****     // mask set register sstatus
  69:src/../h/Riscv.hpp ****     static void ms_sstatus(uint64 mask);
  70:src/../h/Riscv.hpp **** 
  71:src/../h/Riscv.hpp ****     // mask clear register sstatus
  72:src/../h/Riscv.hpp ****     static void mc_sstatus(uint64 mask);
  73:src/../h/Riscv.hpp **** 
  74:src/../h/Riscv.hpp ****     // read register sstatus
  75:src/../h/Riscv.hpp ****     static uint64 r_sstatus();
  76:src/../h/Riscv.hpp **** 
  77:src/../h/Riscv.hpp ****     // write register sstatus
  78:src/../h/Riscv.hpp ****     static void w_sstatus(uint64 sstatus);
  79:src/../h/Riscv.hpp **** 
  80:src/../h/Riscv.hpp ****     // supervisor trap
  81:src/../h/Riscv.hpp ****     static void supervisorTrap();
  82:src/../h/Riscv.hpp **** 
  83:src/../h/Riscv.hpp **** private:
  84:src/../h/Riscv.hpp **** 
  85:src/../h/Riscv.hpp ****     // supervisor trap handler
  86:src/../h/Riscv.hpp ****     static void handleSupervisorTrap();
  87:src/../h/Riscv.hpp **** 
GAS LISTING /tmp/cc5heBtZ.s 			page 10


  88:src/../h/Riscv.hpp ****     static void syscallHandler();
  89:src/../h/Riscv.hpp **** 
  90:src/../h/Riscv.hpp **** };
  91:src/../h/Riscv.hpp **** 
  92:src/../h/Riscv.hpp **** inline uint64 Riscv::r_scause()
  93:src/../h/Riscv.hpp **** {
  94:src/../h/Riscv.hpp ****     uint64 volatile scause;
  95:src/../h/Riscv.hpp ****     __asm__ volatile ("csrr %[scause], scause" : [scause] "=r"(scause));
  96:src/../h/Riscv.hpp ****     return scause;
  97:src/../h/Riscv.hpp **** }
  98:src/../h/Riscv.hpp **** 
  99:src/../h/Riscv.hpp **** inline void Riscv::w_scause(uint64 scause)
 100:src/../h/Riscv.hpp **** {
 101:src/../h/Riscv.hpp ****     __asm__ volatile ("csrw scause, %[scause]" : : [scause] "r"(scause));
 102:src/../h/Riscv.hpp **** }
 103:src/../h/Riscv.hpp **** 
 104:src/../h/Riscv.hpp **** inline uint64 Riscv::r_sepc()
 105:src/../h/Riscv.hpp **** {
 106:src/../h/Riscv.hpp ****     uint64 volatile sepc;
 107:src/../h/Riscv.hpp ****     __asm__ volatile ("csrr %[sepc], sepc" : [sepc] "=r"(sepc));
 108:src/../h/Riscv.hpp ****     return sepc;
 109:src/../h/Riscv.hpp **** }
 110:src/../h/Riscv.hpp **** 
 111:src/../h/Riscv.hpp **** inline void Riscv::w_sepc(uint64 sepc)
 112:src/../h/Riscv.hpp **** {
 113:src/../h/Riscv.hpp ****     __asm__ volatile ("csrw sepc, %[sepc]" : : [sepc] "r"(sepc));
 114:src/../h/Riscv.hpp **** }
 115:src/../h/Riscv.hpp **** 
 116:src/../h/Riscv.hpp **** inline uint64 Riscv::r_stvec()
 117:src/../h/Riscv.hpp **** {
 118:src/../h/Riscv.hpp ****     uint64 volatile stvec;
 119:src/../h/Riscv.hpp ****     __asm__ volatile ("csrr %[stvec], stvec" : [stvec] "=r"(stvec));
 120:src/../h/Riscv.hpp ****     return stvec;
 121:src/../h/Riscv.hpp **** }
 122:src/../h/Riscv.hpp **** 
 123:src/../h/Riscv.hpp **** inline void Riscv::w_stvec(uint64 stvec)
 124:src/../h/Riscv.hpp **** {
 125:src/../h/Riscv.hpp ****     __asm__ volatile ("csrw stvec, %[stvec]" : : [stvec] "r"(stvec));
 301              		.loc 3 125 5 is_stmt 1
 302              		.loc 3 125 69 is_stmt 0
 303              	#APP
 304              	# 125 "src/../h/Riscv.hpp" 1
 126              	}
 305              		csrw stvec, a5
 306              	# 0 "" 2
 307              	.LVL23:
 308              	#NO_APP
 309              	.LBE5:
 310              	.LBE4:
  18:src/Main.cpp  **** 
  19:src/Main.cpp  **** //    void* ptr;
  20:src/Main.cpp  **** //    ptr = mem_alloc(300);
  21:src/Main.cpp  **** //    if(ptr!=nullptr){
  22:src/Main.cpp  **** //        printString("allocated \n");
  23:src/Main.cpp  **** //    }
  24:src/Main.cpp  **** //    if(!mem_free(ptr)){
  25:src/Main.cpp  **** //        printString("successfully freed \n");
GAS LISTING /tmp/cc5heBtZ.s 			page 11


  26:src/Main.cpp  **** //    }
  27:src/Main.cpp  **** //    else{
  28:src/Main.cpp  **** //        printString("not freed \n");
  29:src/Main.cpp  **** //    }
  30:src/Main.cpp  **** 
  31:src/Main.cpp  ****     _thread* threads[3];
 311              		.loc 2 31 5 is_stmt 1
  32:src/Main.cpp  ****     _thread* ptr;
 312              		.loc 2 32 5
  33:src/Main.cpp  ****     if(!thread_create(&ptr, nullptr, nullptr)){
 313              		.loc 2 33 5
 314              		.loc 2 33 22 is_stmt 0
 315 0138 13060000 		li	a2,0
 316 013c 93050000 		li	a1,0
 317 0140 130504FD 		addi	a0,s0,-48
 318 0144 97000000 		call	_Z13thread_createPP7_threadPFvPvES2_
 318      E7800000 
 319              	.LVL24:
 320              		.loc 2 33 5
 321 014c 631A050A 		bnez	a0,.L13
  34:src/Main.cpp  ****         printString("main created \n");
 322              		.loc 2 34 9 is_stmt 1
 323              		.loc 2 34 20 is_stmt 0
 324 0150 17050000 		lla	a0,.LC0
 324      13050500 
 325 0158 97000000 		call	_Z11printStringPKc@plt
 325      E7800000 
 326              	.LVL25:
 327              	.L14:
  35:src/Main.cpp  **** 
  36:src/Main.cpp  ****     } else{
  37:src/Main.cpp  ****         printString("error main\n");
  38:src/Main.cpp  **** 
  39:src/Main.cpp  ****     }
  40:src/Main.cpp  ****     int x=2;
 328              		.loc 2 40 5 is_stmt 1
  41:src/Main.cpp  ****     printInteger(x);
 329              		.loc 2 41 5
 330              		.loc 2 41 17 is_stmt 0
 331 0160 13052000 		li	a0,2
 332 0164 97000000 		call	_Z12printIntegerm@plt
 332      E7800000 
 333              	.LVL26:
  42:src/Main.cpp  **** 
  43:src/Main.cpp  ****     _thread::running=ptr;
 334              		.loc 2 43 5 is_stmt 1
 335              		.loc 2 43 21 is_stmt 0
 336 016c 033504FD 		ld	a0,-48(s0)
 337 0170 97070000 		la	a5,_ZN7_thread7runningE
 337      83B70700 
 338 0178 23B0A700 		sd	a0,0(a5)
  44:src/Main.cpp  ****     ptr->start();
 339              		.loc 2 44 5 is_stmt 1
 340              		.loc 2 44 15 is_stmt 0
 341 017c 97000000 		call	_ZN7_thread5startEv@plt
 341      E7800000 
 342              	.LVL27:
GAS LISTING /tmp/cc5heBtZ.s 			page 12


  45:src/Main.cpp  ****     //doesnt load thread adress to handle!!!
  46:src/Main.cpp  **** 
  47:src/Main.cpp  ****     if(!thread_create(&threads[1], reinterpret_cast<void (*)(void *)>(workerBodyA), nullptr)){
 343              		.loc 2 47 5 is_stmt 1
 344              		.loc 2 47 22 is_stmt 0
 345 0184 13060000 		li	a2,0
 346 0188 97050000 		la	a1,_Z11workerBodyAv
 346      83B50500 
 347 0190 130504FE 		addi	a0,s0,-32
 348 0194 97000000 		call	_Z13thread_createPP7_threadPFvPvES2_
 348      E7800000 
 349              	.LVL28:
 350              		.loc 2 47 5
 351 019c 631C0506 		bnez	a0,.L15
  48:src/Main.cpp  ****         printString("thread created \n");
 352              		.loc 2 48 9 is_stmt 1
 353              		.loc 2 48 20 is_stmt 0
 354 01a0 17050000 		lla	a0,.LC2
 354      13050500 
 355 01a8 97000000 		call	_Z11printStringPKc@plt
 355      E7800000 
 356              	.LVL29:
 357              	.L16:
  49:src/Main.cpp  **** 
  50:src/Main.cpp  ****     } else{
  51:src/Main.cpp  ****         printString("error worker a\n");
  52:src/Main.cpp  ****     }
  53:src/Main.cpp  **** 
  54:src/Main.cpp  ****     threads[1]->start();
 358              		.loc 2 54 5 is_stmt 1
 359              		.loc 2 54 22 is_stmt 0
 360 01b0 033504FE 		ld	a0,-32(s0)
 361 01b4 97000000 		call	_ZN7_thread5startEv@plt
 361      E7800000 
 362              	.LVL30:
  55:src/Main.cpp  **** 
  56:src/Main.cpp  ****     if(!thread_create(&threads[2], reinterpret_cast<void (*)(void *)>(workerBodyB), nullptr)){
 363              		.loc 2 56 5 is_stmt 1
 364              		.loc 2 56 22 is_stmt 0
 365 01bc 13060000 		li	a2,0
 366 01c0 97050000 		la	a1,_Z11workerBodyBv
 366      83B50500 
 367 01c8 130584FE 		addi	a0,s0,-24
 368 01cc 97000000 		call	_Z13thread_createPP7_threadPFvPvES2_
 368      E7800000 
 369              	.LVL31:
 370              		.loc 2 56 5
 371 01d4 631A0504 		bnez	a0,.L17
  57:src/Main.cpp  ****         printString("thread created \n");
 372              		.loc 2 57 9 is_stmt 1
 373              		.loc 2 57 20 is_stmt 0
 374 01d8 17050000 		lla	a0,.LC2
 374      13050500 
 375 01e0 97000000 		call	_Z11printStringPKc@plt
 375      E7800000 
 376              	.LVL32:
 377              	.L18:
GAS LISTING /tmp/cc5heBtZ.s 			page 13


  58:src/Main.cpp  **** 
  59:src/Main.cpp  ****     } else{
  60:src/Main.cpp  ****         printString("error worker a\n");
  61:src/Main.cpp  **** 
  62:src/Main.cpp  ****     }
  63:src/Main.cpp  ****     threads[2]->start();
 378              		.loc 2 63 5 is_stmt 1
 379              		.loc 2 63 22 is_stmt 0
 380 01e8 033584FE 		ld	a0,-24(s0)
 381 01ec 97000000 		call	_ZN7_thread5startEv@plt
 381      E7800000 
 382              	.LVL33:
 383              	.L19:
  64:src/Main.cpp  **** 
  65:src/Main.cpp  ****     while (true)
 384              		.loc 2 65 5 is_stmt 1
  66:src/Main.cpp  ****     {
  67:src/Main.cpp  ****         _thread::yield();   //u uposlenom cekanju radimo yield
 385              		.loc 2 67 9
 386              		.loc 2 67 23 is_stmt 0
 387 01f4 97000000 		call	_ZN7_thread5yieldEv@plt
 387      E7800000 
 388              	.LVL34:
 389 01fc 6FF09FFF 		j	.L19
 390              	.LVL35:
 391              	.L13:
  37:src/Main.cpp  **** 
 392              		.loc 2 37 9 is_stmt 1
  37:src/Main.cpp  **** 
 393              		.loc 2 37 20 is_stmt 0
 394 0200 17050000 		lla	a0,.LC1
 394      13050500 
 395 0208 97000000 		call	_Z11printStringPKc@plt
 395      E7800000 
 396              	.LVL36:
 397 0210 6FF01FF5 		j	.L14
 398              	.LVL37:
 399              	.L15:
  51:src/Main.cpp  ****     }
 400              		.loc 2 51 9 is_stmt 1
  51:src/Main.cpp  ****     }
 401              		.loc 2 51 20 is_stmt 0
 402 0214 17050000 		lla	a0,.LC3
 402      13050500 
 403 021c 97000000 		call	_Z11printStringPKc@plt
 403      E7800000 
 404              	.LVL38:
 405 0224 6FF0DFF8 		j	.L16
 406              	.L17:
  60:src/Main.cpp  **** 
 407              		.loc 2 60 9 is_stmt 1
  60:src/Main.cpp  **** 
 408              		.loc 2 60 20 is_stmt 0
 409 0228 17050000 		lla	a0,.LC3
 409      13050500 
 410 0230 97000000 		call	_Z11printStringPKc@plt
 410      E7800000 
GAS LISTING /tmp/cc5heBtZ.s 			page 14


 411              	.LVL39:
 412 0238 6FF01FFB 		j	.L18
 413              		.cfi_endproc
 414              	.LFE44:
 416              	.Letext0:
 417              		.file 4 "src/../h/../lib/hw.h"
 418              		.file 5 "src/../h/_thread.hpp"
 419              		.file 6 "src/../h/Print.hpp"
GAS LISTING /tmp/cc5heBtZ.s 			page 15


DEFINED SYMBOLS
                            *ABS*:0000000000000000 Main.cpp
     /tmp/cc5heBtZ.s:9      .text:0000000000000000 _Z7syscallP4args
     /tmp/cc5heBtZ.s:13     .text:0000000000000000 .L0 
     /tmp/cc5heBtZ.s:15     .text:0000000000000000 .L0 
     /tmp/cc5heBtZ.s:16     .text:0000000000000004 .L0 
     /tmp/cc5heBtZ.s:18     .text:0000000000000008 .L0 
     /tmp/cc5heBtZ.s:20     .text:000000000000000c .L0 
     /tmp/cc5heBtZ.s:22     .text:000000000000000c .L0 
     /tmp/cc5heBtZ.s:23     .text:000000000000000c .L0 
     /tmp/cc5heBtZ.s:26     .text:0000000000000010 .L0 
     /tmp/cc5heBtZ.s:27     .text:0000000000000010 .L0 
     /tmp/cc5heBtZ.s:30     .text:0000000000000014 .L0 
     /tmp/cc5heBtZ.s:31     .text:0000000000000014 .L0 
     /tmp/cc5heBtZ.s:34     .text:0000000000000018 .L0 
     /tmp/cc5heBtZ.s:35     .text:0000000000000018 .L0 
     /tmp/cc5heBtZ.s:38     .text:000000000000001c .L0 
src/../h/syscall_c.h:34     .text:000000000000001c .L0 
     /tmp/cc5heBtZ.s:44     .text:0000000000000020 .L0 
src/../h/syscall_c.h:35     .text:0000000000000020 .L0 
     /tmp/cc5heBtZ.s:49     .text:0000000000000024 .L0 
src/../h/syscall_c.h:36     .text:0000000000000024 .L0 
     /tmp/cc5heBtZ.s:54     .text:0000000000000028 .L0 
src/../h/syscall_c.h:37     .text:0000000000000028 .L0 
     /tmp/cc5heBtZ.s:59     .text:000000000000002c .L0 
src/../h/syscall_c.h:42     .text:000000000000002c .L0 
     /tmp/cc5heBtZ.s:65     .text:0000000000000030 .L0 
     /tmp/cc5heBtZ.s:66     .text:0000000000000034 .L0 
     /tmp/cc5heBtZ.s:67     .text:0000000000000034 .L0 
     /tmp/cc5heBtZ.s:69     .text:0000000000000038 .L0 
     /tmp/cc5heBtZ.s:71     .text:000000000000003c .L0 
     /tmp/cc5heBtZ.s:77     .text:000000000000003c _Z9mem_allocm
     /tmp/cc5heBtZ.s:80     .text:000000000000003c .L0 
     /tmp/cc5heBtZ.s:82     .text:000000000000003c .L0 
     /tmp/cc5heBtZ.s:83     .text:0000000000000040 .L0 
     /tmp/cc5heBtZ.s:86     .text:0000000000000048 .L0 
     /tmp/cc5heBtZ.s:87     .text:0000000000000048 .L0 
     /tmp/cc5heBtZ.s:89     .text:000000000000004c .L0 
     /tmp/cc5heBtZ.s:91     .text:000000000000004c .L0 
     /tmp/cc5heBtZ.s:92     .text:000000000000004c .L0 
     /tmp/cc5heBtZ.s:93     .text:000000000000004c .L0 
     /tmp/cc5heBtZ.s:96     .text:0000000000000054 .L0 
     /tmp/cc5heBtZ.s:97     .text:0000000000000054 .L0 
     /tmp/cc5heBtZ.s:100    .text:0000000000000058 .L0 
     /tmp/cc5heBtZ.s:101    .text:0000000000000058 .L0 
     /tmp/cc5heBtZ.s:104    .text:000000000000005c .L0 
     /tmp/cc5heBtZ.s:106    .text:0000000000000060 .L0 
     /tmp/cc5heBtZ.s:107    .text:0000000000000060 .L0 
     /tmp/cc5heBtZ.s:111    .text:0000000000000064 .L0 
     /tmp/cc5heBtZ.s:112    .text:0000000000000064 .L0 
     /tmp/cc5heBtZ.s:114    .text:0000000000000068 .L0 
     /tmp/cc5heBtZ.s:115    .text:0000000000000068 .L0 
     /tmp/cc5heBtZ.s:119    .text:0000000000000074 .L0 
     /tmp/cc5heBtZ.s:120    .text:0000000000000074 .L0 
src/../h/syscall_c.h:60     .text:0000000000000074 .L0 
     /tmp/cc5heBtZ.s:127    .text:0000000000000078 .L0 
     /tmp/cc5heBtZ.s:129    .text:0000000000000078 .L0 
GAS LISTING /tmp/cc5heBtZ.s 			page 16


     /tmp/cc5heBtZ.s:130    .text:000000000000007c .L0 
     /tmp/cc5heBtZ.s:132    .text:0000000000000080 .L0 
     /tmp/cc5heBtZ.s:133    .text:0000000000000080 .L0 
     /tmp/cc5heBtZ.s:135    .text:0000000000000084 .L0 
     /tmp/cc5heBtZ.s:137    .text:0000000000000088 .L0 
     /tmp/cc5heBtZ.s:143    .text:0000000000000088 _Z8mem_freePv
     /tmp/cc5heBtZ.s:146    .text:0000000000000088 .L0 
     /tmp/cc5heBtZ.s:148    .text:0000000000000088 .L0 
     /tmp/cc5heBtZ.s:149    .text:000000000000008c .L0 
     /tmp/cc5heBtZ.s:152    .text:0000000000000094 .L0 
     /tmp/cc5heBtZ.s:153    .text:0000000000000094 .L0 
     /tmp/cc5heBtZ.s:155    .text:0000000000000098 .L0 
     /tmp/cc5heBtZ.s:157    .text:0000000000000098 .L0 
     /tmp/cc5heBtZ.s:158    .text:0000000000000098 .L0 
     /tmp/cc5heBtZ.s:159    .text:0000000000000098 .L0 
     /tmp/cc5heBtZ.s:162    .text:00000000000000a0 .L0 
     /tmp/cc5heBtZ.s:163    .text:00000000000000a0 .L0 
     /tmp/cc5heBtZ.s:165    .text:00000000000000a4 .L0 
     /tmp/cc5heBtZ.s:166    .text:00000000000000a4 .L0 
     /tmp/cc5heBtZ.s:171    .text:00000000000000b0 .L0 
     /tmp/cc5heBtZ.s:172    .text:00000000000000b0 .L0 
src/../h/syscall_c.h:72     .text:00000000000000b0 .L0 
     /tmp/cc5heBtZ.s:179    .text:00000000000000b4 .L0 
     /tmp/cc5heBtZ.s:181    .text:00000000000000b4 .L0 
     /tmp/cc5heBtZ.s:184    .text:00000000000000bc .L0 
     /tmp/cc5heBtZ.s:186    .text:00000000000000c0 .L0 
     /tmp/cc5heBtZ.s:187    .text:00000000000000c0 .L0 
     /tmp/cc5heBtZ.s:189    .text:00000000000000c4 .L0 
     /tmp/cc5heBtZ.s:191    .text:00000000000000c8 .L0 
     /tmp/cc5heBtZ.s:197    .text:00000000000000c8 _Z13thread_createPP7_threadPFvPvES2_
     /tmp/cc5heBtZ.s:200    .text:00000000000000c8 .L0 
     /tmp/cc5heBtZ.s:202    .text:00000000000000c8 .L0 
     /tmp/cc5heBtZ.s:203    .text:00000000000000cc .L0 
     /tmp/cc5heBtZ.s:206    .text:00000000000000d4 .L0 
     /tmp/cc5heBtZ.s:207    .text:00000000000000d4 .L0 
     /tmp/cc5heBtZ.s:209    .text:00000000000000d8 .L0 
     /tmp/cc5heBtZ.s:211    .text:00000000000000d8 .L0 
     /tmp/cc5heBtZ.s:212    .text:00000000000000d8 .L0 
     /tmp/cc5heBtZ.s:213    .text:00000000000000d8 .L0 
     /tmp/cc5heBtZ.s:216    .text:00000000000000e0 .L0 
     /tmp/cc5heBtZ.s:217    .text:00000000000000e0 .L0 
     /tmp/cc5heBtZ.s:219    .text:00000000000000e4 .L0 
     /tmp/cc5heBtZ.s:220    .text:00000000000000e4 .L0 
     /tmp/cc5heBtZ.s:222    .text:00000000000000e8 .L0 
     /tmp/cc5heBtZ.s:223    .text:00000000000000e8 .L0 
     /tmp/cc5heBtZ.s:225    .text:00000000000000ec .L0 
     /tmp/cc5heBtZ.s:226    .text:00000000000000ec .L0 
     /tmp/cc5heBtZ.s:231    .text:00000000000000f8 .L0 
     /tmp/cc5heBtZ.s:232    .text:00000000000000f8 .L0 
src/../h/syscall_c.h:91     .text:00000000000000f8 .L0 
     /tmp/cc5heBtZ.s:240    .text:00000000000000fc .L0 
     /tmp/cc5heBtZ.s:242    .text:0000000000000100 .L0 
     /tmp/cc5heBtZ.s:246    .text:0000000000000104 .L0 
     /tmp/cc5heBtZ.s:247    .text:0000000000000108 .L0 
     /tmp/cc5heBtZ.s:248    .text:0000000000000108 .L0 
     /tmp/cc5heBtZ.s:250    .text:000000000000010c .L0 
     /tmp/cc5heBtZ.s:251    .text:000000000000010c .L0 
GAS LISTING /tmp/cc5heBtZ.s 			page 17


     /tmp/cc5heBtZ.s:253    .text:0000000000000110 .L0 
     /tmp/cc5heBtZ.s:257    .text:0000000000000114 .L0 
     /tmp/cc5heBtZ.s:259    .text:0000000000000114 .L0 
     /tmp/cc5heBtZ.s:261    .text:000000000000011c .L0 
     /tmp/cc5heBtZ.s:281    .text:000000000000011c main
     /tmp/cc5heBtZ.s:285    .text:000000000000011c .L0 
     /tmp/cc5heBtZ.s:286    .text:000000000000011c .L0 
     /tmp/cc5heBtZ.s:287    .text:0000000000000120 .L0 
     /tmp/cc5heBtZ.s:290    .text:0000000000000128 .L0 
     /tmp/cc5heBtZ.s:291    .text:0000000000000128 .L0 
     /tmp/cc5heBtZ.s:293    .text:000000000000012c .L0 
     /tmp/cc5heBtZ.s:295    .text:000000000000012c .L0 
     /tmp/cc5heBtZ.s:296    .text:000000000000012c .L0 
     /tmp/cc5heBtZ.s:302    .text:0000000000000134 .L0 
  src/../h/Riscv.hpp:125    .text:0000000000000134 .L0 
     /tmp/cc5heBtZ.s:312    .text:0000000000000138 .L0 
     /tmp/cc5heBtZ.s:313    .text:0000000000000138 .L0 
     /tmp/cc5heBtZ.s:314    .text:0000000000000138 .L0 
     /tmp/cc5heBtZ.s:315    .text:0000000000000138 .L0 
     /tmp/cc5heBtZ.s:321    .text:000000000000014c .L0 
     /tmp/cc5heBtZ.s:323    .text:0000000000000150 .L0 
     /tmp/cc5heBtZ.s:324    .text:0000000000000150 .L0 
     /tmp/cc5heBtZ.s:329    .text:0000000000000160 .L0 
     /tmp/cc5heBtZ.s:330    .text:0000000000000160 .L0 
     /tmp/cc5heBtZ.s:331    .text:0000000000000160 .L0 
     /tmp/cc5heBtZ.s:335    .text:000000000000016c .L0 
     /tmp/cc5heBtZ.s:336    .text:000000000000016c .L0 
     /tmp/cc5heBtZ.s:340    .text:000000000000017c .L0 
     /tmp/cc5heBtZ.s:341    .text:000000000000017c .L0 
     /tmp/cc5heBtZ.s:344    .text:0000000000000184 .L0 
     /tmp/cc5heBtZ.s:345    .text:0000000000000184 .L0 
     /tmp/cc5heBtZ.s:351    .text:000000000000019c .L0 
     /tmp/cc5heBtZ.s:353    .text:00000000000001a0 .L0 
     /tmp/cc5heBtZ.s:354    .text:00000000000001a0 .L0 
     /tmp/cc5heBtZ.s:359    .text:00000000000001b0 .L0 
     /tmp/cc5heBtZ.s:360    .text:00000000000001b0 .L0 
     /tmp/cc5heBtZ.s:364    .text:00000000000001bc .L0 
     /tmp/cc5heBtZ.s:365    .text:00000000000001bc .L0 
     /tmp/cc5heBtZ.s:371    .text:00000000000001d4 .L0 
     /tmp/cc5heBtZ.s:373    .text:00000000000001d8 .L0 
     /tmp/cc5heBtZ.s:374    .text:00000000000001d8 .L0 
     /tmp/cc5heBtZ.s:379    .text:00000000000001e8 .L0 
     /tmp/cc5heBtZ.s:380    .text:00000000000001e8 .L0 
     /tmp/cc5heBtZ.s:385    .text:00000000000001f4 .L0 
     /tmp/cc5heBtZ.s:386    .text:00000000000001f4 .L0 
     /tmp/cc5heBtZ.s:387    .text:00000000000001f4 .L0 
     /tmp/cc5heBtZ.s:393    .text:0000000000000200 .L0 
     /tmp/cc5heBtZ.s:394    .text:0000000000000200 .L0 
     /tmp/cc5heBtZ.s:401    .text:0000000000000214 .L0 
     /tmp/cc5heBtZ.s:402    .text:0000000000000214 .L0 
     /tmp/cc5heBtZ.s:408    .text:0000000000000228 .L0 
     /tmp/cc5heBtZ.s:409    .text:0000000000000228 .L0 
     /tmp/cc5heBtZ.s:413    .text:000000000000023c .L0 
     /tmp/cc5heBtZ.s:420    .text:000000000000023c .L0 
     /tmp/cc5heBtZ.s:296    .text:000000000000012c .L0 
     /tmp/cc5heBtZ.s:266    .rodata.str1.8:0000000000000000 .LC0
     /tmp/cc5heBtZ.s:324    .text:0000000000000150 .L0 
GAS LISTING /tmp/cc5heBtZ.s 			page 18


     /tmp/cc5heBtZ.s:337    .text:0000000000000170 .L0 
     /tmp/cc5heBtZ.s:346    .text:0000000000000188 .L0 
     /tmp/cc5heBtZ.s:272    .rodata.str1.8:0000000000000020 .LC2
     /tmp/cc5heBtZ.s:354    .text:00000000000001a0 .L0 
     /tmp/cc5heBtZ.s:366    .text:00000000000001c0 .L0 
     /tmp/cc5heBtZ.s:374    .text:00000000000001d8 .L0 
     /tmp/cc5heBtZ.s:269    .rodata.str1.8:0000000000000010 .LC1
     /tmp/cc5heBtZ.s:394    .text:0000000000000200 .L0 
     /tmp/cc5heBtZ.s:275    .rodata.str1.8:0000000000000038 .LC3
     /tmp/cc5heBtZ.s:402    .text:0000000000000214 .L0 
     /tmp/cc5heBtZ.s:409    .text:0000000000000228 .L0 
     /tmp/cc5heBtZ.s:109    .text:0000000000000064 .L4
     /tmp/cc5heBtZ.s:256    .text:0000000000000114 .L10
     /tmp/cc5heBtZ.s:243    .text:0000000000000104 .L9
     /tmp/cc5heBtZ.s:391    .text:0000000000000200 .L13
     /tmp/cc5heBtZ.s:399    .text:0000000000000214 .L15
     /tmp/cc5heBtZ.s:406    .text:0000000000000228 .L17
     /tmp/cc5heBtZ.s:383    .text:00000000000001f4 .L19
     /tmp/cc5heBtZ.s:327    .text:0000000000000160 .L14
     /tmp/cc5heBtZ.s:357    .text:00000000000001b0 .L16
     /tmp/cc5heBtZ.s:377    .text:00000000000001e8 .L18
     /tmp/cc5heBtZ.s:1578   .debug_abbrev:0000000000000000 .Ldebug_abbrev0
     /tmp/cc5heBtZ.s:2816   .debug_str:000000000000064b .LASF128
     /tmp/cc5heBtZ.s:2690   .debug_str:00000000000002dc .LASF129
     /tmp/cc5heBtZ.s:2602   .debug_str:0000000000000043 .LASF130
     /tmp/cc5heBtZ.s:5      .text:0000000000000000 .Ltext0
     /tmp/cc5heBtZ.s:416    .text:000000000000023c .Letext0
     /tmp/cc5heBtZ.s:2586   .debug_line:0000000000000000 .Ldebug_line0
     /tmp/cc5heBtZ.s:2724   .debug_str:00000000000003ce .LASF0
     /tmp/cc5heBtZ.s:2744   .debug_str:0000000000000437 .LASF1
     /tmp/cc5heBtZ.s:2708   .debug_str:0000000000000362 .LASF2
     /tmp/cc5heBtZ.s:2674   .debug_str:0000000000000277 .LASF4
     /tmp/cc5heBtZ.s:2786   .debug_str:0000000000000550 .LASF3
     /tmp/cc5heBtZ.s:2608   .debug_str:000000000000009f .LASF5
     /tmp/cc5heBtZ.s:2748   .debug_str:0000000000000451 .LASF6
     /tmp/cc5heBtZ.s:2722   .debug_str:00000000000003bb .LASF7
     /tmp/cc5heBtZ.s:2832   .debug_str:0000000000000781 .LASF8
     /tmp/cc5heBtZ.s:2662   .debug_str:0000000000000204 .LASF9
     /tmp/cc5heBtZ.s:2762   .debug_str:000000000000049e .LASF10
     /tmp/cc5heBtZ.s:2820   .debug_str:0000000000000728 .LASF11
     /tmp/cc5heBtZ.s:2610   .debug_str:00000000000000a6 .LASF12
     /tmp/cc5heBtZ.s:2592   .debug_str:0000000000000011 .LASF13
     /tmp/cc5heBtZ.s:2620   .debug_str:00000000000000f6 .LASF14
     /tmp/cc5heBtZ.s:2778   .debug_str:000000000000050c .LASF15
     /tmp/cc5heBtZ.s:2626   .debug_str:0000000000000120 .LASF16
     /tmp/cc5heBtZ.s:2740   .debug_str:0000000000000424 .LASF58
     /tmp/cc5heBtZ.s:2776   .debug_str:0000000000000501 .LASF49
     /tmp/cc5heBtZ.s:2852   .debug_str:0000000000000831 .LASF51
     /tmp/cc5heBtZ.s:2594   .debug_str:0000000000000021 .LASF17
     /tmp/cc5heBtZ.s:2798   .debug_str:00000000000005a4 .LASF19
     /tmp/cc5heBtZ.s:2638   .debug_str:0000000000000186 .LASF21
     /tmp/cc5heBtZ.s:2636   .debug_str:0000000000000171 .LASF23
     /tmp/cc5heBtZ.s:2790   .debug_str:0000000000000571 .LASF18
     /tmp/cc5heBtZ.s:2768   .debug_str:00000000000004d3 .LASF20
     /tmp/cc5heBtZ.s:2814   .debug_str:0000000000000644 .LASF22
     /tmp/cc5heBtZ.s:2804   .debug_str:00000000000005d8 .LASF24
     /tmp/cc5heBtZ.s:2652   .debug_str:00000000000001db .LASF25
GAS LISTING /tmp/cc5heBtZ.s 			page 19


     /tmp/cc5heBtZ.s:2628   .debug_str:0000000000000136 .LASF26
     /tmp/cc5heBtZ.s:2590   .debug_str:0000000000000009 .LASF27
     /tmp/cc5heBtZ.s:2668   .debug_str:0000000000000245 .LASF28
     /tmp/cc5heBtZ.s:2642   .debug_str:0000000000000197 .LASF29
     /tmp/cc5heBtZ.s:2612   .debug_str:00000000000000b6 .LASF30
     /tmp/cc5heBtZ.s:2856   .debug_str:0000000000000854 .LASF31
     /tmp/cc5heBtZ.s:2644   .debug_str:000000000000019f .LASF32
     /tmp/cc5heBtZ.s:2726   .debug_str:00000000000003db .LASF33
     /tmp/cc5heBtZ.s:2850   .debug_str:000000000000081e .LASF34
     /tmp/cc5heBtZ.s:2604   .debug_str:0000000000000073 .LASF35
     /tmp/cc5heBtZ.s:2650   .debug_str:00000000000001c8 .LASF36
     /tmp/cc5heBtZ.s:2660   .debug_str:00000000000001fe .LASF37
     /tmp/cc5heBtZ.s:2812   .debug_str:0000000000000632 .LASF38
     /tmp/cc5heBtZ.s:2692   .debug_str:00000000000002e9 .LASF39
     /tmp/cc5heBtZ.s:2860   .debug_str:000000000000086c .LASF40
     /tmp/cc5heBtZ.s:2854   .debug_str:0000000000000849 .LASF41
     /tmp/cc5heBtZ.s:2784   .debug_str:0000000000000538 .LASF42
     /tmp/cc5heBtZ.s:2684   .debug_str:00000000000002a7 .LASF43
     /tmp/cc5heBtZ.s:2800   .debug_str:00000000000005b9 .LASF44
     /tmp/cc5heBtZ.s:2618   .debug_str:00000000000000ec .LASF45
     /tmp/cc5heBtZ.s:2670   .debug_str:0000000000000259 .LASF46
     /tmp/cc5heBtZ.s:2714   .debug_str:0000000000000381 .LASF47
     /tmp/cc5heBtZ.s:2664   .debug_str:0000000000000212 .LASF48
     /tmp/cc5heBtZ.s:2792   .debug_str:0000000000000578 .LASF50
     /tmp/cc5heBtZ.s:2614   .debug_str:00000000000000ca .LASF52
     /tmp/cc5heBtZ.s:2840   .debug_str:00000000000007bd .LASF53
     /tmp/cc5heBtZ.s:2688   .debug_str:00000000000002ba .LASF55
     /tmp/cc5heBtZ.s:2788   .debug_str:0000000000000562 .LASF54
     /tmp/cc5heBtZ.s:2806   .debug_str:00000000000005eb .LASF56
     /tmp/cc5heBtZ.s:2732   .debug_str:00000000000003f1 .LASF63
     /tmp/cc5heBtZ.s:2588   .debug_str:0000000000000000 .LASF57
     /tmp/cc5heBtZ.s:2672   .debug_str:000000000000026f .LASF59
     /tmp/cc5heBtZ.s:2822   .debug_str:0000000000000737 .LASF131
     /tmp/cc5heBtZ.s:2760   .debug_str:0000000000000498 .LASF60
     /tmp/cc5heBtZ.s:2794   .debug_str:0000000000000587 .LASF61
     /tmp/cc5heBtZ.s:2676   .debug_str:000000000000027e .LASF62
     /tmp/cc5heBtZ.s:2598   .debug_str:0000000000000036 .LASF64
     /tmp/cc5heBtZ.s:2826   .debug_str:000000000000076a .LASF65
     /tmp/cc5heBtZ.s:2752   .debug_str:000000000000046f .LASF67
     /tmp/cc5heBtZ.s:2750   .debug_str:0000000000000464 .LASF69
     /tmp/cc5heBtZ.s:2706   .debug_str:0000000000000347 .LASF71
     /tmp/cc5heBtZ.s:2710   .debug_str:0000000000000370 .LASF66
     /tmp/cc5heBtZ.s:2704   .debug_str:000000000000032c .LASF68
     /tmp/cc5heBtZ.s:2700   .debug_str:000000000000031a .LASF70
     /tmp/cc5heBtZ.s:2764   .debug_str:00000000000004ad .LASF72
     /tmp/cc5heBtZ.s:2742   .debug_str:000000000000042a .LASF73
     /tmp/cc5heBtZ.s:2848   .debug_str:00000000000007fa .LASF74
     /tmp/cc5heBtZ.s:2770   .debug_str:00000000000004e6 .LASF132
     /tmp/cc5heBtZ.s:2780   .debug_str:0000000000000522 .LASF75
     /tmp/cc5heBtZ.s:2810   .debug_str:000000000000061e .LASF76
     /tmp/cc5heBtZ.s:2632   .debug_str:0000000000000158 .LASF77
     /tmp/cc5heBtZ.s:2796   .debug_str:0000000000000590 .LASF78
     /tmp/cc5heBtZ.s:2640   .debug_str:000000000000018f .LASF133
     /tmp/cc5heBtZ.s:2616   .debug_str:00000000000000e6 .LASF79
     /tmp/cc5heBtZ.s:2696   .debug_str:00000000000002fd .LASF80
     /tmp/cc5heBtZ.s:2718   .debug_str:000000000000039d .LASF81
     /tmp/cc5heBtZ.s:2734   .debug_str:00000000000003f6 .LASF82
GAS LISTING /tmp/cc5heBtZ.s 			page 20


     /tmp/cc5heBtZ.s:2846   .debug_str:00000000000007ed .LASF83
     /tmp/cc5heBtZ.s:2782   .debug_str:0000000000000528 .LASF84
     /tmp/cc5heBtZ.s:2858   .debug_str:000000000000085c .LASF85
     /tmp/cc5heBtZ.s:2646   .debug_str:00000000000001b3 .LASF86
     /tmp/cc5heBtZ.s:2622   .debug_str:0000000000000102 .LASF87
     /tmp/cc5heBtZ.s:2774   .debug_str:00000000000004f0 .LASF88
     /tmp/cc5heBtZ.s:2678   .debug_str:0000000000000286 .LASF89
     /tmp/cc5heBtZ.s:2720   .debug_str:00000000000003aa .LASF90
     /tmp/cc5heBtZ.s:2818   .debug_str:000000000000070f .LASF91
     /tmp/cc5heBtZ.s:2682   .debug_str:00000000000002a2 .LASF92
     /tmp/cc5heBtZ.s:2730   .debug_str:00000000000003eb .LASF93
     /tmp/cc5heBtZ.s:2686   .debug_str:00000000000002b2 .LASF94
     /tmp/cc5heBtZ.s:2736   .debug_str:0000000000000412 .LASF95
     /tmp/cc5heBtZ.s:2680   .debug_str:0000000000000299 .LASF96
     /tmp/cc5heBtZ.s:2694   .debug_str:00000000000002ef .LASF97
     /tmp/cc5heBtZ.s:2666   .debug_str:0000000000000228 .LASF98
     /tmp/cc5heBtZ.s:2842   .debug_str:00000000000007d2 .LASF134
     /tmp/cc5heBtZ.s:2824   .debug_str:000000000000073e .LASF135
     /tmp/cc5heBtZ.s:2728   .debug_str:00000000000003e2 .LASF99
     /tmp/cc5heBtZ.s:2808   .debug_str:0000000000000607 .LASF100
     /tmp/cc5heBtZ.s:2834   .debug_str:0000000000000791 .LASF101
     /tmp/cc5heBtZ.s:2698   .debug_str:0000000000000311 .LASF102
     /tmp/cc5heBtZ.s:2746   .debug_str:000000000000044a .LASF103
     /tmp/cc5heBtZ.s:2648   .debug_str:00000000000001c3 .LASF104
     /tmp/cc5heBtZ.s:2756   .debug_str:0000000000000485 .LASF105
     /tmp/cc5heBtZ.s:282    .text:000000000000011c .LFB44
     /tmp/cc5heBtZ.s:414    .text:000000000000023c .LFE44
     /tmp/cc5heBtZ.s:2658   .debug_str:00000000000001f6 .LASF106
     /tmp/cc5heBtZ.s:2448   .debug_loc:0000000000000000 .LLST8
     /tmp/cc5heBtZ.s:298    .text:0000000000000134 .LBB4
     /tmp/cc5heBtZ.s:310    .text:0000000000000138 .LBE4
     /tmp/cc5heBtZ.s:319    .text:000000000000014c .LVL24
     /tmp/cc5heBtZ.s:326    .text:0000000000000160 .LVL25
     /tmp/cc5heBtZ.s:333    .text:000000000000016c .LVL26
     /tmp/cc5heBtZ.s:342    .text:0000000000000184 .LVL27
     /tmp/cc5heBtZ.s:349    .text:000000000000019c .LVL28
     /tmp/cc5heBtZ.s:356    .text:00000000000001b0 .LVL29
     /tmp/cc5heBtZ.s:362    .text:00000000000001bc .LVL30
     /tmp/cc5heBtZ.s:369    .text:00000000000001d4 .LVL31
     /tmp/cc5heBtZ.s:376    .text:00000000000001e8 .LVL32
     /tmp/cc5heBtZ.s:382    .text:00000000000001f4 .LVL33
     /tmp/cc5heBtZ.s:388    .text:00000000000001fc .LVL34
     /tmp/cc5heBtZ.s:396    .text:0000000000000210 .LVL36
     /tmp/cc5heBtZ.s:404    .text:0000000000000224 .LVL38
     /tmp/cc5heBtZ.s:411    .text:0000000000000238 .LVL39
     /tmp/cc5heBtZ.s:2630   .debug_str:000000000000014a .LASF110
     /tmp/cc5heBtZ.s:2606   .debug_str:000000000000007a .LASF112
     /tmp/cc5heBtZ.s:198    .text:00000000000000c8 .LFB31
     /tmp/cc5heBtZ.s:262    .text:000000000000011c .LFE31
     /tmp/cc5heBtZ.s:2802   .debug_str:00000000000005d1 .LASF107
     /tmp/cc5heBtZ.s:2461   .debug_loc:0000000000000038 .LLST4
     /tmp/cc5heBtZ.s:2654   .debug_str:00000000000001e3 .LASF108
     /tmp/cc5heBtZ.s:2487   .debug_loc:000000000000009b .LLST5
     /tmp/cc5heBtZ.s:2501   .debug_loc:00000000000000d4 .LLST6
     /tmp/cc5heBtZ.s:2830   .debug_str:000000000000077a .LASF109
     /tmp/cc5heBtZ.s:2515   .debug_loc:000000000000010d .LLST7
     /tmp/cc5heBtZ.s:229    .text:00000000000000f8 .LVL18
GAS LISTING /tmp/cc5heBtZ.s 			page 21


     /tmp/cc5heBtZ.s:2766   .debug_str:00000000000004ca .LASF111
     /tmp/cc5heBtZ.s:2758   .debug_str:000000000000048a .LASF113
     /tmp/cc5heBtZ.s:144    .text:0000000000000088 .LFB30
     /tmp/cc5heBtZ.s:192    .text:00000000000000c8 .LFE30
     /tmp/cc5heBtZ.s:2526   .debug_loc:0000000000000143 .LLST2
     /tmp/cc5heBtZ.s:2545   .debug_loc:0000000000000190 .LLST3
     /tmp/cc5heBtZ.s:169    .text:00000000000000b0 .LVL13
     /tmp/cc5heBtZ.s:2836   .debug_str:00000000000007a2 .LASF114
     /tmp/cc5heBtZ.s:2624   .debug_str:0000000000000112 .LASF115
     /tmp/cc5heBtZ.s:78     .text:000000000000003c .LFB29
     /tmp/cc5heBtZ.s:138    .text:0000000000000088 .LFE29
     /tmp/cc5heBtZ.s:2772   .debug_str:00000000000004eb .LASF116
     /tmp/cc5heBtZ.s:2552   .debug_loc:00000000000001b3 .LLST0
     /tmp/cc5heBtZ.s:2828   .debug_str:0000000000000773 .LASF117
     /tmp/cc5heBtZ.s:2566   .debug_loc:00000000000001ec .LLST1
     /tmp/cc5heBtZ.s:117    .text:0000000000000074 .LVL9
     /tmp/cc5heBtZ.s:2738   .debug_str:000000000000041c .LASF118
     /tmp/cc5heBtZ.s:2838   .debug_str:00000000000007ac .LASF119
     /tmp/cc5heBtZ.s:10     .text:0000000000000000 .LFB28
     /tmp/cc5heBtZ.s:72     .text:000000000000003c .LFE28
     /tmp/cc5heBtZ.s:2702   .debug_str:0000000000000327 .LASF120
     /tmp/cc5heBtZ.s:2600   .debug_str:000000000000003e .LASF121
     /tmp/cc5heBtZ.s:2656   .debug_str:00000000000001f1 .LASF122
     /tmp/cc5heBtZ.s:2712   .debug_str:000000000000037c .LASF123
     /tmp/cc5heBtZ.s:2754   .debug_str:000000000000047f .LASF136
     /tmp/cc5heBtZ.s:2634   .debug_str:000000000000015e .LASF124
     /tmp/cc5heBtZ.s:2596   .debug_str:000000000000002a .LASF126
     /tmp/cc5heBtZ.s:2716   .debug_str:000000000000038b .LASF125
     /tmp/cc5heBtZ.s:2844   .debug_str:00000000000007e0 .LASF127
     /tmp/cc5heBtZ.s:390    .text:0000000000000200 .LVL35
     /tmp/cc5heBtZ.s:398    .text:0000000000000214 .LVL37
     /tmp/cc5heBtZ.s:201    .text:00000000000000c8 .LVL16
     /tmp/cc5heBtZ.s:227    .text:00000000000000f0 .LVL17
     /tmp/cc5heBtZ.s:244    .text:0000000000000104 .LVL20
     /tmp/cc5heBtZ.s:255    .text:0000000000000114 .LVL21
     /tmp/cc5heBtZ.s:237    .text:00000000000000fc .LVL19
     /tmp/cc5heBtZ.s:147    .text:0000000000000088 .LVL11
     /tmp/cc5heBtZ.s:167    .text:00000000000000a8 .LVL12
     /tmp/cc5heBtZ.s:177    .text:00000000000000b4 .LVL14
     /tmp/cc5heBtZ.s:182    .text:00000000000000b8 .LVL15
     /tmp/cc5heBtZ.s:81     .text:000000000000003c .LVL5
     /tmp/cc5heBtZ.s:102    .text:000000000000005c .LVL7
     /tmp/cc5heBtZ.s:98     .text:0000000000000058 .LVL6
     /tmp/cc5heBtZ.s:421    .debug_info:0000000000000000 .Ldebug_info0

UNDEFINED SYMBOLS
_ZN5Riscv14supervisorTrapEv
_Z11printStringPKc
_Z12printIntegerm
_ZN7_thread7runningE
_ZN7_thread5startEv
_Z11workerBodyAv
_Z11workerBodyBv
_ZN7_thread5yieldEv
