GAS LISTING /tmp/ccTehi3Q.s 			page 1


   1              		.file	"MemoryAllocator.cpp"
   2              		.option pic
   3              		.option norelax
   4              		.text
   5              	.Ltext0:
   6              		.align	2
   7              		.globl	_ZN15MemoryAllocator10kmem_allocEm
   9              	_ZN15MemoryAllocator10kmem_allocEm:
  10              	.LFB8:
  11              		.file 1 "src/MemoryAllocator.cpp"
   1:src/MemoryAllocator.cpp **** //
   2:src/MemoryAllocator.cpp **** // Created by os on 6/20/22.
   3:src/MemoryAllocator.cpp **** //
   4:src/MemoryAllocator.cpp **** 
   5:src/MemoryAllocator.cpp **** #include "../h/MemoryAllocator.hpp"
   6:src/MemoryAllocator.cpp **** 
   7:src/MemoryAllocator.cpp **** 
   8:src/MemoryAllocator.cpp **** 
   9:src/MemoryAllocator.cpp **** 
  10:src/MemoryAllocator.cpp **** MemoryAllocator* MemoryAllocator::instance= nullptr;
  11:src/MemoryAllocator.cpp **** 
  12:src/MemoryAllocator.cpp **** 
  13:src/MemoryAllocator.cpp **** void* MemoryAllocator::kmem_alloc(size_t size){
  12              		.loc 1 13 47
  13              		.cfi_startproc
  14              	.LVL0:
  15 0000 130101FF 		addi	sp,sp,-16
  16              		.cfi_def_cfa_offset 16
  17 0004 23348100 		sd	s0,8(sp)
  18              		.cfi_offset 8, -8
  19 0008 13040101 		addi	s0,sp,16
  20              		.cfi_def_cfa 8, 0
  21 000c 93070500 		mv	a5,a0
  14:src/MemoryAllocator.cpp ****     MemoryAllocator* ma = getInstance();
  22              		.loc 1 14 5
  23              	.LBB13:
  24              	.LBB14:
  25              		.file 2 "src/../h/MemoryAllocator.hpp"
   1:src/../h/MemoryAllocator.hpp **** //
   2:src/../h/MemoryAllocator.hpp **** // Created by os on 6/20/22.
   3:src/../h/MemoryAllocator.hpp **** //
   4:src/../h/MemoryAllocator.hpp **** 
   5:src/../h/MemoryAllocator.hpp **** #ifndef PROJECT_BASE_V1_1_MEMORYALLOCATOR_HPP
   6:src/../h/MemoryAllocator.hpp **** #define PROJECT_BASE_V1_1_MEMORYALLOCATOR_HPP
   7:src/../h/MemoryAllocator.hpp **** 
   8:src/../h/MemoryAllocator.hpp **** #include "../lib/mem.h"
   9:src/../h/MemoryAllocator.hpp **** #include "DoublyLinkedList.hpp"
  10:src/../h/MemoryAllocator.hpp **** #include "../lib/hw.h"
  11:src/../h/MemoryAllocator.hpp **** 
  12:src/../h/MemoryAllocator.hpp **** 
  13:src/../h/MemoryAllocator.hpp **** class MemoryAllocator {
  14:src/../h/MemoryAllocator.hpp **** public:
  15:src/../h/MemoryAllocator.hpp ****     typedef DoublyLinkedList<size_t>::Node FreeMem;
  16:src/../h/MemoryAllocator.hpp **** 
  17:src/../h/MemoryAllocator.hpp ****     static MemoryAllocator* getInstance(){
  18:src/../h/MemoryAllocator.hpp ****         if(instance == nullptr){
  26              		.loc 2 18 9
GAS LISTING /tmp/ccTehi3Q.s 			page 2


  27              		.loc 2 18 21 is_stmt 0
  28 0010 17070000 		ld	a4,.LANCHOR0
  28      03370700 
  29              		.loc 2 18 9
  30 0018 630E0706 		beqz	a4,.L18
  31              	.LVL1:
  32              	.L2:
  19:src/../h/MemoryAllocator.hpp ****             instance = (MemoryAllocator*)HEAP_START_ADDR;
  20:src/../h/MemoryAllocator.hpp **** 
  21:src/../h/MemoryAllocator.hpp ****             instance->freeList.head=(FreeMem*)((size_t)HEAP_START_ADDR+sizeof(MemoryAllocator));
  22:src/../h/MemoryAllocator.hpp ****             instance->freeList.head->address=(void*)((size_t)HEAP_START_ADDR+sizeof(MemoryAllocator
  23:src/../h/MemoryAllocator.hpp ****             instance->freeList.head->size = (size_t)HEAP_END_ADDR-((size_t)HEAP_START_ADDR+sizeof(M
  24:src/../h/MemoryAllocator.hpp ****             instance->freeList.head->next= nullptr;
  25:src/../h/MemoryAllocator.hpp ****             instance->freeList.head->prev= nullptr;
  26:src/../h/MemoryAllocator.hpp **** 
  27:src/../h/MemoryAllocator.hpp ****             instance->pcbList.head= nullptr;
  28:src/../h/MemoryAllocator.hpp ****         }
  29:src/../h/MemoryAllocator.hpp ****         return instance;
  33              		.loc 2 29 9 is_stmt 1
  34              		.loc 2 29 16 is_stmt 0
  35 001c 97060000 		ld	a3,.LANCHOR0
  35      83B60600 
  36              	.LVL2:
  37              	.LBE14:
  38              	.LBE13:
  15:src/MemoryAllocator.cpp ****     for(FreeMem* cur = ma->freeList.head; cur!=nullptr; cur=cur->next){
  39              		.loc 1 15 5 is_stmt 1
  40              	.LBB16:
  41              		.loc 1 15 18 is_stmt 0
  42 0024 03B50600 		ld	a0,0(a3)
  43              	.LVL3:
  44              	.L5:
  45              		.loc 1 15 46 is_stmt 1 discriminator 1
  46 0028 63000506 		beqz	a0,.L1
  47              	.LBB17:
  16:src/MemoryAllocator.cpp ****         if(cur->size<size) continue;
  48              		.loc 1 16 9
  49              		.loc 1 16 17 is_stmt 0
  50 002c 03370500 		ld	a4,0(a0)
  51              		.loc 1 16 9
  52 0030 6368F70C 		bltu	a4,a5,.L19
  17:src/MemoryAllocator.cpp ****         //Found
  18:src/MemoryAllocator.cpp **** 
  19:src/MemoryAllocator.cpp ****         if(cur->size-size<=sizeof(FreeMem)){
  53              		.loc 1 19 9 is_stmt 1
  54              	.LBB18:
  55              		.loc 1 19 21 is_stmt 0
  56 0034 3307F740 		sub	a4,a4,a5
  57              		.loc 1 19 9
  58 0038 13060002 		li	a2,32
  59 003c 6360E60E 		bgtu	a4,a2,.L6
  60              	.LBB19:
  20:src/MemoryAllocator.cpp ****             //No remaining fragment
  21:src/MemoryAllocator.cpp ****             if(cur->prev)cur->prev->next = cur->next;
  61              		.loc 1 21 13 is_stmt 1
  62              		.loc 1 21 21 is_stmt 0
  63 0040 03378501 		ld	a4,24(a0)
GAS LISTING /tmp/ccTehi3Q.s 			page 3


  64              		.loc 1 21 13
  65 0044 6302070C 		beqz	a4,.L7
  66              		.loc 1 21 26 is_stmt 1 discriminator 1
  67              		.loc 1 21 49 is_stmt 0 discriminator 1
  68 0048 03360501 		ld	a2,16(a0)
  69              		.loc 1 21 42 discriminator 1
  70 004c 2338C700 		sd	a2,16(a4)
  71              	.L8:
  22:src/MemoryAllocator.cpp ****             else ma->freeList.head = cur->next;
  23:src/MemoryAllocator.cpp ****             if(cur->next)cur->next->prev = cur->prev;
  72              		.loc 1 23 13 is_stmt 1
  73              		.loc 1 23 21 is_stmt 0
  74 0050 03370501 		ld	a4,16(a0)
  75              		.loc 1 23 13
  76 0054 63060700 		beqz	a4,.L9
  77              		.loc 1 23 26 is_stmt 1 discriminator 1
  78              		.loc 1 23 49 is_stmt 0 discriminator 1
  79 0058 03368501 		ld	a2,24(a0)
  80              		.loc 1 23 42 discriminator 1
  81 005c 233CC700 		sd	a2,24(a4)
  82              	.L9:
  24:src/MemoryAllocator.cpp **** 
  25:src/MemoryAllocator.cpp ****             //add process to the end of pcb list
  26:src/MemoryAllocator.cpp ****             FreeMem* proc = cur;
  83              		.loc 1 26 13 is_stmt 1
  84              	.LVL4:
  27:src/MemoryAllocator.cpp ****             proc->size=size;
  85              		.loc 1 27 13
  86              		.loc 1 27 23 is_stmt 0
  87 0060 2330F500 		sd	a5,0(a0)
  28:src/MemoryAllocator.cpp ****             proc->address=cur;
  88              		.loc 1 28 13 is_stmt 1
  89              		.loc 1 28 26 is_stmt 0
  90 0064 2334A500 		sd	a0,8(a0)
  29:src/MemoryAllocator.cpp ****             proc->next= nullptr;
  91              		.loc 1 29 13 is_stmt 1
  92              		.loc 1 29 23 is_stmt 0
  93 0068 23380500 		sd	zero,16(a0)
  30:src/MemoryAllocator.cpp ****             if (ma->pcbList.head == nullptr)
  94              		.loc 1 30 13 is_stmt 1
  95              	.LBB20:
  96              		.loc 1 30 29 is_stmt 0
  97 006c 83B70601 		ld	a5,16(a3)
  98              	.LVL5:
  99              		.loc 1 30 13
 100 0070 6382070A 		beqz	a5,.L20
 101              	.L10:
 102              	.LVL6:
 103              	.LBB21:
  31:src/MemoryAllocator.cpp ****             {
  32:src/MemoryAllocator.cpp ****                 ma->pcbList.head = cur;
  33:src/MemoryAllocator.cpp **** 
  34:src/MemoryAllocator.cpp ****             } else
  35:src/MemoryAllocator.cpp ****             {
  36:src/MemoryAllocator.cpp ****                 FreeMem* temp;
  37:src/MemoryAllocator.cpp ****                 for( temp = ma->pcbList.head; temp->next!=nullptr; temp=temp->next);
 104              		.loc 1 37 57 is_stmt 1 discriminator 3
GAS LISTING /tmp/ccTehi3Q.s 			page 4


 105 0074 13870700 		mv	a4,a5
 106              		.loc 1 37 53 is_stmt 0 discriminator 3
 107 0078 83B70701 		ld	a5,16(a5)
 108              	.LVL7:
 109              		.loc 1 37 57 discriminator 3
 110 007c E39C07FE 		bnez	a5,.L10
  38:src/MemoryAllocator.cpp ****                 temp->next=cur;
 111              		.loc 1 38 17 is_stmt 1
 112              		.loc 1 38 27 is_stmt 0
 113 0080 2338A700 		sd	a0,16(a4)
 114              	.LVL8:
 115              	.L11:
 116              	.LBE21:
 117              	.LBE20:
  39:src/MemoryAllocator.cpp ****             }
  40:src/MemoryAllocator.cpp **** 
  41:src/MemoryAllocator.cpp ****             return cur->address;
 118              		.loc 1 41 13 is_stmt 1
 119              		.loc 1 41 25 is_stmt 0
 120 0084 03358500 		ld	a0,8(a0)
 121              	.LVL9:
 122              	.L1:
 123              	.LBE19:
 124              	.LBE18:
 125              	.LBE17:
 126              	.LBE16:
  42:src/MemoryAllocator.cpp **** 
  43:src/MemoryAllocator.cpp ****         }
  44:src/MemoryAllocator.cpp ****         else{
  45:src/MemoryAllocator.cpp ****             FreeMem * newfrgm = (FreeMem *)((size_t)cur + size + sizeof(FreeMem));
  46:src/MemoryAllocator.cpp ****             if(cur->prev)cur->prev->next = newfrgm;
  47:src/MemoryAllocator.cpp ****             else ma->freeList.head = newfrgm;
  48:src/MemoryAllocator.cpp ****             if(cur->next) cur->next->prev = newfrgm;
  49:src/MemoryAllocator.cpp ****             newfrgm->prev = cur->prev;
  50:src/MemoryAllocator.cpp ****             newfrgm->next=cur->next;
  51:src/MemoryAllocator.cpp ****             newfrgm->size=cur->size-size-sizeof(FreeMem);
  52:src/MemoryAllocator.cpp ****             newfrgm->address= (void*)((size_t)cur + size + sizeof(FreeMem));
  53:src/MemoryAllocator.cpp **** 
  54:src/MemoryAllocator.cpp ****             //add process to the end of pcb list
  55:src/MemoryAllocator.cpp ****             FreeMem* proc = cur;
  56:src/MemoryAllocator.cpp ****             proc->size=size;
  57:src/MemoryAllocator.cpp ****             proc->address=cur;
  58:src/MemoryAllocator.cpp ****             proc->next= nullptr;
  59:src/MemoryAllocator.cpp ****             if (ma->pcbList.head == nullptr)
  60:src/MemoryAllocator.cpp ****             {
  61:src/MemoryAllocator.cpp ****                 ma->pcbList.head = cur;
  62:src/MemoryAllocator.cpp **** 
  63:src/MemoryAllocator.cpp ****             } else
  64:src/MemoryAllocator.cpp ****             {
  65:src/MemoryAllocator.cpp ****                 FreeMem* temp;
  66:src/MemoryAllocator.cpp ****                 for( temp = ma->pcbList.head; temp->next!=nullptr; temp=temp->next);
  67:src/MemoryAllocator.cpp ****                 temp->next=cur;
  68:src/MemoryAllocator.cpp ****             }
  69:src/MemoryAllocator.cpp **** 
  70:src/MemoryAllocator.cpp ****             return cur->address;
  71:src/MemoryAllocator.cpp ****         }
  72:src/MemoryAllocator.cpp ****     }
GAS LISTING /tmp/ccTehi3Q.s 			page 5


  73:src/MemoryAllocator.cpp ****     return nullptr;
  74:src/MemoryAllocator.cpp **** 
  75:src/MemoryAllocator.cpp ****     //initialize address at HEAP_START_ADRESS at the beginning
  76:src/MemoryAllocator.cpp ****     //ubaciti prvi element u listu i postaviti mu adresu na heap start adress + sizeof(freeMem)
  77:src/MemoryAllocator.cpp **** }
 127              		.loc 1 77 1
 128 0088 03348100 		ld	s0,8(sp)
 129              		.cfi_remember_state
 130              		.cfi_restore 8
 131              		.cfi_def_cfa 2, 16
 132 008c 13010101 		addi	sp,sp,16
 133              		.cfi_def_cfa_offset 0
 134 0090 67800000 		jr	ra
 135              	.LVL10:
 136              	.L18:
 137              		.cfi_restore_state
 138              	.LBB31:
 139              	.LBB15:
  19:src/../h/MemoryAllocator.hpp **** 
 140              		.loc 2 19 13 is_stmt 1
  19:src/../h/MemoryAllocator.hpp **** 
 141              		.loc 2 19 22 is_stmt 0
 142 0094 17060000 		la	a2,HEAP_START_ADDR
 142      03360600 
 143 009c 03370600 		ld	a4,0(a2)
 144 00a0 97060000 		lla	a3,.LANCHOR0
 144      93860600 
 145 00a8 23B0E600 		sd	a4,0(a3)
  21:src/../h/MemoryAllocator.hpp ****             instance->freeList.head->address=(void*)((size_t)HEAP_START_ADDR+sizeof(MemoryAllocator
 146              		.loc 2 21 13 is_stmt 1
  21:src/../h/MemoryAllocator.hpp ****             instance->freeList.head->address=(void*)((size_t)HEAP_START_ADDR+sizeof(MemoryAllocator
 147              		.loc 2 21 71 is_stmt 0
 148 00ac 93050702 		addi	a1,a4,32
  21:src/../h/MemoryAllocator.hpp ****             instance->freeList.head->address=(void*)((size_t)HEAP_START_ADDR+sizeof(MemoryAllocator
 149              		.loc 2 21 36
 150 00b0 2330B700 		sd	a1,0(a4)
  22:src/../h/MemoryAllocator.hpp ****             instance->freeList.head->size = (size_t)HEAP_END_ADDR-((size_t)HEAP_START_ADDR+sizeof(M
 151              		.loc 2 22 13 is_stmt 1
  22:src/../h/MemoryAllocator.hpp ****             instance->freeList.head->size = (size_t)HEAP_END_ADDR-((size_t)HEAP_START_ADDR+sizeof(M
 152              		.loc 2 22 77 is_stmt 0
 153 00b4 03360600 		ld	a2,0(a2)
 154 00b8 13050602 		addi	a0,a2,32
 155              	.LVL11:
  22:src/../h/MemoryAllocator.hpp ****             instance->freeList.head->size = (size_t)HEAP_END_ADDR-((size_t)HEAP_START_ADDR+sizeof(M
 156              		.loc 2 22 32
 157 00bc 03B70600 		ld	a4,0(a3)
 158 00c0 83350700 		ld	a1,0(a4)
  22:src/../h/MemoryAllocator.hpp ****             instance->freeList.head->size = (size_t)HEAP_END_ADDR-((size_t)HEAP_START_ADDR+sizeof(M
 159              		.loc 2 22 45
 160 00c4 23B4A500 		sd	a0,8(a1)
  23:src/../h/MemoryAllocator.hpp ****             instance->freeList.head->next= nullptr;
 161              		.loc 2 23 13 is_stmt 1
  23:src/../h/MemoryAllocator.hpp ****             instance->freeList.head->next= nullptr;
 162              		.loc 2 23 32 is_stmt 0
 163 00c8 83350700 		ld	a1,0(a4)
  23:src/../h/MemoryAllocator.hpp ****             instance->freeList.head->next= nullptr;
 164              		.loc 2 23 66
GAS LISTING /tmp/ccTehi3Q.s 			page 6


 165 00cc 17070000 		la	a4,HEAP_END_ADDR
 165      03370700 
 166 00d4 03370700 		ld	a4,0(a4)
 167 00d8 3307C740 		sub	a4,a4,a2
 168 00dc 130707FE 		addi	a4,a4,-32
  23:src/../h/MemoryAllocator.hpp ****             instance->freeList.head->next= nullptr;
 169              		.loc 2 23 43
 170 00e0 23B0E500 		sd	a4,0(a1)
  24:src/../h/MemoryAllocator.hpp ****             instance->freeList.head->prev= nullptr;
 171              		.loc 2 24 13 is_stmt 1
  24:src/../h/MemoryAllocator.hpp ****             instance->freeList.head->prev= nullptr;
 172              		.loc 2 24 32 is_stmt 0
 173 00e4 03B70600 		ld	a4,0(a3)
 174 00e8 83360700 		ld	a3,0(a4)
  24:src/../h/MemoryAllocator.hpp ****             instance->freeList.head->prev= nullptr;
 175              		.loc 2 24 42
 176 00ec 23B80600 		sd	zero,16(a3)
  25:src/../h/MemoryAllocator.hpp **** 
 177              		.loc 2 25 13 is_stmt 1
  25:src/../h/MemoryAllocator.hpp **** 
 178              		.loc 2 25 32 is_stmt 0
 179 00f0 83360700 		ld	a3,0(a4)
  25:src/../h/MemoryAllocator.hpp **** 
 180              		.loc 2 25 42
 181 00f4 23BC0600 		sd	zero,24(a3)
  27:src/../h/MemoryAllocator.hpp ****         }
 182              		.loc 2 27 13 is_stmt 1
  27:src/../h/MemoryAllocator.hpp ****         }
 183              		.loc 2 27 35 is_stmt 0
 184 00f8 23380700 		sd	zero,16(a4)
 185 00fc 6FF01FF2 		j	.L2
 186              	.LVL12:
 187              	.L19:
 188              	.LBE15:
 189              	.LBE31:
 190              	.LBB32:
 191              	.LBB29:
  16:src/MemoryAllocator.cpp ****         //Found
 192              		.loc 1 16 28 is_stmt 1 discriminator 1
 193              	.LBE29:
  15:src/MemoryAllocator.cpp ****         if(cur->size<size) continue;
 194              		.loc 1 15 5 discriminator 1
  15:src/MemoryAllocator.cpp ****         if(cur->size<size) continue;
 195              		.loc 1 15 60 is_stmt 0 discriminator 1
 196 0100 03350501 		ld	a0,16(a0)
 197              	.LVL13:
  15:src/MemoryAllocator.cpp ****         if(cur->size<size) continue;
 198              		.loc 1 15 5 discriminator 1
 199 0104 6FF05FF2 		j	.L5
 200              	.L7:
 201              	.LBB30:
 202              	.LBB28:
 203              	.LBB23:
  22:src/MemoryAllocator.cpp ****             if(cur->next)cur->next->prev = cur->prev;
 204              		.loc 1 22 18 is_stmt 1
  22:src/MemoryAllocator.cpp ****             if(cur->next)cur->next->prev = cur->prev;
 205              		.loc 1 22 43 is_stmt 0
GAS LISTING /tmp/ccTehi3Q.s 			page 7


 206 0108 03370501 		ld	a4,16(a0)
  22:src/MemoryAllocator.cpp ****             if(cur->next)cur->next->prev = cur->prev;
 207              		.loc 1 22 36
 208 010c 23B0E600 		sd	a4,0(a3)
 209 0110 6FF01FF4 		j	.L8
 210              	.LVL14:
 211              	.L20:
 212              	.LBB22:
  32:src/MemoryAllocator.cpp **** 
 213              		.loc 1 32 17 is_stmt 1
  32:src/MemoryAllocator.cpp **** 
 214              		.loc 1 32 34 is_stmt 0
 215 0114 23B8A600 		sd	a0,16(a3)
 216              	.LVL15:
 217 0118 6FF0DFF6 		j	.L11
 218              	.LVL16:
 219              	.L6:
 220              	.LBE22:
 221              	.LBE23:
 222              	.LBB24:
  45:src/MemoryAllocator.cpp ****             if(cur->prev)cur->prev->next = newfrgm;
 223              		.loc 1 45 13 is_stmt 1
  45:src/MemoryAllocator.cpp ****             if(cur->prev)cur->prev->next = newfrgm;
 224              		.loc 1 45 57 is_stmt 0
 225 011c B305F500 		add	a1,a0,a5
  45:src/MemoryAllocator.cpp ****             if(cur->prev)cur->prev->next = newfrgm;
 226              		.loc 1 45 64
 227 0120 13870502 		addi	a4,a1,32
 228              	.LVL17:
  46:src/MemoryAllocator.cpp ****             else ma->freeList.head = newfrgm;
 229              		.loc 1 46 13 is_stmt 1
  46:src/MemoryAllocator.cpp ****             else ma->freeList.head = newfrgm;
 230              		.loc 1 46 21 is_stmt 0
 231 0124 03368501 		ld	a2,24(a0)
  46:src/MemoryAllocator.cpp ****             else ma->freeList.head = newfrgm;
 232              		.loc 1 46 13
 233 0128 63020606 		beqz	a2,.L12
  46:src/MemoryAllocator.cpp ****             else ma->freeList.head = newfrgm;
 234              		.loc 1 46 26 is_stmt 1 discriminator 1
  46:src/MemoryAllocator.cpp ****             else ma->freeList.head = newfrgm;
 235              		.loc 1 46 42 is_stmt 0 discriminator 1
 236 012c 2338E600 		sd	a4,16(a2)
 237              	.L13:
  48:src/MemoryAllocator.cpp ****             newfrgm->prev = cur->prev;
 238              		.loc 1 48 13 is_stmt 1
  48:src/MemoryAllocator.cpp ****             newfrgm->prev = cur->prev;
 239              		.loc 1 48 21 is_stmt 0
 240 0130 03360501 		ld	a2,16(a0)
  48:src/MemoryAllocator.cpp ****             newfrgm->prev = cur->prev;
 241              		.loc 1 48 13
 242 0134 63040600 		beqz	a2,.L14
  48:src/MemoryAllocator.cpp ****             newfrgm->prev = cur->prev;
 243              		.loc 1 48 27 is_stmt 1 discriminator 1
  48:src/MemoryAllocator.cpp ****             newfrgm->prev = cur->prev;
 244              		.loc 1 48 43 is_stmt 0 discriminator 1
 245 0138 233CE600 		sd	a4,24(a2)
 246              	.L14:
GAS LISTING /tmp/ccTehi3Q.s 			page 8


  49:src/MemoryAllocator.cpp ****             newfrgm->next=cur->next;
 247              		.loc 1 49 13 is_stmt 1
  49:src/MemoryAllocator.cpp ****             newfrgm->next=cur->next;
 248              		.loc 1 49 34 is_stmt 0
 249 013c 03368501 		ld	a2,24(a0)
  49:src/MemoryAllocator.cpp ****             newfrgm->next=cur->next;
 250              		.loc 1 49 27
 251 0140 233CC700 		sd	a2,24(a4)
  50:src/MemoryAllocator.cpp ****             newfrgm->size=cur->size-size-sizeof(FreeMem);
 252              		.loc 1 50 13 is_stmt 1
  50:src/MemoryAllocator.cpp ****             newfrgm->size=cur->size-size-sizeof(FreeMem);
 253              		.loc 1 50 32 is_stmt 0
 254 0144 03360501 		ld	a2,16(a0)
  50:src/MemoryAllocator.cpp ****             newfrgm->size=cur->size-size-sizeof(FreeMem);
 255              		.loc 1 50 26
 256 0148 2338C700 		sd	a2,16(a4)
  51:src/MemoryAllocator.cpp ****             newfrgm->address= (void*)((size_t)cur + size + sizeof(FreeMem));
 257              		.loc 1 51 13 is_stmt 1
  51:src/MemoryAllocator.cpp ****             newfrgm->address= (void*)((size_t)cur + size + sizeof(FreeMem));
 258              		.loc 1 51 32 is_stmt 0
 259 014c 03360500 		ld	a2,0(a0)
  51:src/MemoryAllocator.cpp ****             newfrgm->address= (void*)((size_t)cur + size + sizeof(FreeMem));
 260              		.loc 1 51 36
 261 0150 3306F640 		sub	a2,a2,a5
  51:src/MemoryAllocator.cpp ****             newfrgm->address= (void*)((size_t)cur + size + sizeof(FreeMem));
 262              		.loc 1 51 41
 263 0154 130606FE 		addi	a2,a2,-32
  51:src/MemoryAllocator.cpp ****             newfrgm->address= (void*)((size_t)cur + size + sizeof(FreeMem));
 264              		.loc 1 51 26
 265 0158 23B0C502 		sd	a2,32(a1)
  52:src/MemoryAllocator.cpp **** 
 266              		.loc 1 52 13 is_stmt 1
  52:src/MemoryAllocator.cpp **** 
 267              		.loc 1 52 29 is_stmt 0
 268 015c 2334E700 		sd	a4,8(a4)
  55:src/MemoryAllocator.cpp ****             proc->size=size;
 269              		.loc 1 55 13 is_stmt 1
 270              	.LVL18:
  56:src/MemoryAllocator.cpp ****             proc->address=cur;
 271              		.loc 1 56 13
  56:src/MemoryAllocator.cpp ****             proc->address=cur;
 272              		.loc 1 56 23 is_stmt 0
 273 0160 2330F500 		sd	a5,0(a0)
  57:src/MemoryAllocator.cpp ****             proc->next= nullptr;
 274              		.loc 1 57 13 is_stmt 1
  57:src/MemoryAllocator.cpp ****             proc->next= nullptr;
 275              		.loc 1 57 26 is_stmt 0
 276 0164 2334A500 		sd	a0,8(a0)
  58:src/MemoryAllocator.cpp ****             if (ma->pcbList.head == nullptr)
 277              		.loc 1 58 13 is_stmt 1
  58:src/MemoryAllocator.cpp ****             if (ma->pcbList.head == nullptr)
 278              		.loc 1 58 23 is_stmt 0
 279 0168 23380500 		sd	zero,16(a0)
  59:src/MemoryAllocator.cpp ****             {
 280              		.loc 1 59 13 is_stmt 1
 281              	.LBB25:
  59:src/MemoryAllocator.cpp ****             {
GAS LISTING /tmp/ccTehi3Q.s 			page 9


 282              		.loc 1 59 29 is_stmt 0
 283 016c 83B70601 		ld	a5,16(a3)
 284              	.LVL19:
  59:src/MemoryAllocator.cpp ****             {
 285              		.loc 1 59 13
 286 0170 63820702 		beqz	a5,.L21
 287              	.LVL20:
 288              	.L15:
 289              	.LBB26:
  66:src/MemoryAllocator.cpp ****                 temp->next=cur;
 290              		.loc 1 66 57 is_stmt 1 discriminator 3
 291 0174 13870700 		mv	a4,a5
  66:src/MemoryAllocator.cpp ****                 temp->next=cur;
 292              		.loc 1 66 53 is_stmt 0 discriminator 3
 293 0178 83B70701 		ld	a5,16(a5)
 294              	.LVL21:
  66:src/MemoryAllocator.cpp ****                 temp->next=cur;
 295              		.loc 1 66 57 discriminator 3
 296 017c E39C07FE 		bnez	a5,.L15
  67:src/MemoryAllocator.cpp ****             }
 297              		.loc 1 67 17 is_stmt 1
  67:src/MemoryAllocator.cpp ****             }
 298              		.loc 1 67 27 is_stmt 0
 299 0180 2338A700 		sd	a0,16(a4)
 300              	.LVL22:
 301              	.L16:
 302              	.LBE26:
 303              	.LBE25:
  70:src/MemoryAllocator.cpp ****         }
 304              		.loc 1 70 13 is_stmt 1
  70:src/MemoryAllocator.cpp ****         }
 305              		.loc 1 70 25 is_stmt 0
 306 0184 03358500 		ld	a0,8(a0)
 307              	.LVL23:
 308 0188 6FF01FF0 		j	.L1
 309              	.LVL24:
 310              	.L12:
  47:src/MemoryAllocator.cpp ****             if(cur->next) cur->next->prev = newfrgm;
 311              		.loc 1 47 18 is_stmt 1
  47:src/MemoryAllocator.cpp ****             if(cur->next) cur->next->prev = newfrgm;
 312              		.loc 1 47 36 is_stmt 0
 313 018c 23B0E600 		sd	a4,0(a3)
 314 0190 6FF01FFA 		j	.L13
 315              	.LVL25:
 316              	.L21:
 317              	.LBB27:
  61:src/MemoryAllocator.cpp **** 
 318              		.loc 1 61 17 is_stmt 1
  61:src/MemoryAllocator.cpp **** 
 319              		.loc 1 61 34 is_stmt 0
 320 0194 23B8A600 		sd	a0,16(a3)
 321              	.LVL26:
 322 0198 6FF0DFFE 		j	.L16
 323              	.LBE27:
 324              	.LBE24:
 325              	.LBE28:
 326              	.LBE30:
GAS LISTING /tmp/ccTehi3Q.s 			page 10


 327              	.LBE32:
 328              		.cfi_endproc
 329              	.LFE8:
 331              		.align	2
 332              		.globl	_ZN15MemoryAllocator9tryToJoinEPN16DoublyLinkedListImE4NodeE
 334              	_ZN15MemoryAllocator9tryToJoinEPN16DoublyLinkedListImE4NodeE:
 335              	.LFB9:
  78:src/MemoryAllocator.cpp **** 
  79:src/MemoryAllocator.cpp **** //try to join cur with cur->next segment
  80:src/MemoryAllocator.cpp **** int MemoryAllocator::tryToJoin(FreeMem *cur) {
 336              		.loc 1 80 46 is_stmt 1
 337              		.cfi_startproc
 338              	.LVL27:
 339 019c 130101FF 		addi	sp,sp,-16
 340              		.cfi_def_cfa_offset 16
 341 01a0 23348100 		sd	s0,8(sp)
 342              		.cfi_offset 8, -8
 343 01a4 13040101 		addi	s0,sp,16
 344              		.cfi_def_cfa 8, 0
  81:src/MemoryAllocator.cpp ****     if(cur== nullptr)return 0;
 345              		.loc 1 81 5
 346 01a8 63060504 		beqz	a0,.L25
  82:src/MemoryAllocator.cpp ****     if(cur->next && (char*)cur+cur->size==(char*)(cur->next)){
 347              		.loc 1 82 5
 348              		.loc 1 82 13 is_stmt 0
 349 01ac 83370501 		ld	a5,16(a0)
 350              		.loc 1 82 5
 351 01b0 63860704 		beqz	a5,.L26
 352              		.loc 1 82 37 discriminator 1
 353 01b4 03370500 		ld	a4,0(a0)
 354              		.loc 1 82 31 discriminator 1
 355 01b8 B306E500 		add	a3,a0,a4
 356              		.loc 1 82 18 discriminator 1
 357 01bc 638AD700 		beq	a5,a3,.L29
  83:src/MemoryAllocator.cpp ****         //remove the cur->next segment
  84:src/MemoryAllocator.cpp ****         cur->size+=cur->next->size;
  85:src/MemoryAllocator.cpp ****         cur->next = cur->next->next;
  86:src/MemoryAllocator.cpp ****         if(cur->next)cur->next->prev=cur;
  87:src/MemoryAllocator.cpp ****         return 1;
  88:src/MemoryAllocator.cpp ****     }
  89:src/MemoryAllocator.cpp ****     else return 0;
 358              		.loc 1 89 17
 359 01c0 13050000 		li	a0,0
 360              	.LVL28:
 361              	.L23:
  90:src/MemoryAllocator.cpp **** }
 362              		.loc 1 90 1
 363 01c4 03348100 		ld	s0,8(sp)
 364              		.cfi_remember_state
 365              		.cfi_restore 8
 366              		.cfi_def_cfa 2, 16
 367 01c8 13010101 		addi	sp,sp,16
 368              		.cfi_def_cfa_offset 0
 369 01cc 67800000 		jr	ra
 370              	.LVL29:
 371              	.L29:
 372              		.cfi_restore_state
GAS LISTING /tmp/ccTehi3Q.s 			page 11


  84:src/MemoryAllocator.cpp ****         cur->next = cur->next->next;
 373              		.loc 1 84 9 is_stmt 1
  84:src/MemoryAllocator.cpp ****         cur->next = cur->next->next;
 374              		.loc 1 84 31 is_stmt 0
 375 01d0 83B60700 		ld	a3,0(a5)
  84:src/MemoryAllocator.cpp ****         cur->next = cur->next->next;
 376              		.loc 1 84 18
 377 01d4 3307D700 		add	a4,a4,a3
 378 01d8 2330E500 		sd	a4,0(a0)
  85:src/MemoryAllocator.cpp ****         if(cur->next)cur->next->prev=cur;
 379              		.loc 1 85 9 is_stmt 1
  85:src/MemoryAllocator.cpp ****         if(cur->next)cur->next->prev=cur;
 380              		.loc 1 85 32 is_stmt 0
 381 01dc 83B70701 		ld	a5,16(a5)
  85:src/MemoryAllocator.cpp ****         if(cur->next)cur->next->prev=cur;
 382              		.loc 1 85 19
 383 01e0 2338F500 		sd	a5,16(a0)
  86:src/MemoryAllocator.cpp ****         return 1;
 384              		.loc 1 86 9 is_stmt 1
 385 01e4 63840700 		beqz	a5,.L24
  86:src/MemoryAllocator.cpp ****         return 1;
 386              		.loc 1 86 22 discriminator 1
  86:src/MemoryAllocator.cpp ****         return 1;
 387              		.loc 1 86 37 is_stmt 0 discriminator 1
 388 01e8 23BCA700 		sd	a0,24(a5)
 389              	.L24:
  87:src/MemoryAllocator.cpp ****     }
 390              		.loc 1 87 9 is_stmt 1
  87:src/MemoryAllocator.cpp ****     }
 391              		.loc 1 87 16 is_stmt 0
 392 01ec 13051000 		li	a0,1
 393              	.LVL30:
 394 01f0 6FF05FFD 		j	.L23
 395              	.LVL31:
 396              	.L25:
  81:src/MemoryAllocator.cpp ****     if(cur->next && (char*)cur+cur->size==(char*)(cur->next)){
 397              		.loc 1 81 29
 398 01f4 13050000 		li	a0,0
 399              	.LVL32:
 400 01f8 6FF0DFFC 		j	.L23
 401              	.LVL33:
 402              	.L26:
  89:src/MemoryAllocator.cpp **** }
 403              		.loc 1 89 17
 404 01fc 13050000 		li	a0,0
 405              	.LVL34:
 406 0200 6FF05FFC 		j	.L23
 407              		.cfi_endproc
 408              	.LFE9:
 410              		.align	2
 411              		.globl	_ZN15MemoryAllocator9kmem_freeEPv
 413              	_ZN15MemoryAllocator9kmem_freeEPv:
 414              	.LFB10:
  91:src/MemoryAllocator.cpp **** 
  92:src/MemoryAllocator.cpp **** int MemoryAllocator::kmem_free(void* addr){
 415              		.loc 1 92 43 is_stmt 1
 416              		.cfi_startproc
GAS LISTING /tmp/ccTehi3Q.s 			page 12


 417              	.LVL35:
  93:src/MemoryAllocator.cpp ****     //find size of the process for deallocation
  94:src/MemoryAllocator.cpp ****     MemoryAllocator* ma = getInstance();
 418              		.loc 1 94 5
 419              	.LBB36:
 420              	.LBB37:
  18:src/../h/MemoryAllocator.hpp ****             instance = (MemoryAllocator*)HEAP_START_ADDR;
 421              		.loc 2 18 9
  18:src/../h/MemoryAllocator.hpp ****             instance = (MemoryAllocator*)HEAP_START_ADDR;
 422              		.loc 2 18 21 is_stmt 0
 423 0204 97070000 		ld	a5,.LANCHOR0
 423      83B70700 
  18:src/../h/MemoryAllocator.hpp ****             instance = (MemoryAllocator*)HEAP_START_ADDR;
 424              		.loc 2 18 9
 425 020c 63860702 		beqz	a5,.L51
 426              	.L31:
 427              		.loc 2 29 9 is_stmt 1
 428              		.loc 2 29 16 is_stmt 0
 429 0210 17060000 		ld	a2,.LANCHOR0
 429      03360600 
 430              	.LVL36:
 431              	.LBE37:
 432              	.LBE36:
  95:src/MemoryAllocator.cpp **** 
  96:src/MemoryAllocator.cpp ****     size_t size = -1;
 433              		.loc 1 96 5 is_stmt 1
  97:src/MemoryAllocator.cpp ****     bool found = false;
 434              		.loc 1 97 5
  98:src/MemoryAllocator.cpp ****     FreeMem* prev=nullptr;
 435              		.loc 1 98 5
  99:src/MemoryAllocator.cpp ****     for( FreeMem *temp = ma->pcbList.head; temp!=nullptr; temp=temp->next){
 436              		.loc 1 99 5
 437              	.LBB39:
 438              		.loc 1 99 19 is_stmt 0
 439 0218 83370601 		ld	a5,16(a2)
 440              	.LVL37:
 441              	.LBE39:
  98:src/MemoryAllocator.cpp ****     FreeMem* prev=nullptr;
 442              		.loc 1 98 14
 443 021c 93060000 		li	a3,0
 444              	.LVL38:
 445              	.L36:
 446              	.LBB40:
 447              		.loc 1 99 48 is_stmt 1 discriminator 1
 448 0220 638C0714 		beqz	a5,.L44
 100:src/MemoryAllocator.cpp ****         if(temp->address==addr) {
 449              		.loc 1 100 9
 450              		.loc 1 100 18 is_stmt 0
 451 0224 03B78700 		ld	a4,8(a5)
 452              		.loc 1 100 9
 453 0228 630EA706 		beq	a4,a0,.L52
 101:src/MemoryAllocator.cpp ****             size = temp->size;
 102:src/MemoryAllocator.cpp ****             //delete pointer from pcb list
 103:src/MemoryAllocator.cpp ****             if(prev== nullptr) {
 104:src/MemoryAllocator.cpp ****                 ma->pcbList.head = temp->next;
 105:src/MemoryAllocator.cpp ****                 temp->next= nullptr;
 106:src/MemoryAllocator.cpp ****                 found=true;
GAS LISTING /tmp/ccTehi3Q.s 			page 13


 107:src/MemoryAllocator.cpp ****                 break;
 108:src/MemoryAllocator.cpp ****             }
 109:src/MemoryAllocator.cpp ****             else {
 110:src/MemoryAllocator.cpp ****                 prev->next = temp->next;
 111:src/MemoryAllocator.cpp ****                 temp->next= nullptr;
 112:src/MemoryAllocator.cpp ****                 found=true;
 113:src/MemoryAllocator.cpp ****                 break;
 114:src/MemoryAllocator.cpp ****             }
 115:src/MemoryAllocator.cpp ****         }
 116:src/MemoryAllocator.cpp ****         prev = temp;
 454              		.loc 1 116 9 is_stmt 1 discriminator 2
 455              	.LVL39:
  99:src/MemoryAllocator.cpp ****         if(temp->address==addr) {
 456              		.loc 1 99 5 discriminator 2
 457              		.loc 1 116 14 is_stmt 0 discriminator 2
 458 022c 93860700 		mv	a3,a5
  99:src/MemoryAllocator.cpp ****         if(temp->address==addr) {
 459              		.loc 1 99 63 discriminator 2
 460 0230 83B70701 		ld	a5,16(a5)
 461              	.LVL40:
  99:src/MemoryAllocator.cpp ****         if(temp->address==addr) {
 462              		.loc 1 99 5 discriminator 2
 463 0234 6FF0DFFE 		j	.L36
 464              	.LVL41:
 465              	.L51:
 466              	.LBE40:
 467              	.LBB41:
 468              	.LBB38:
  19:src/../h/MemoryAllocator.hpp **** 
 469              		.loc 2 19 13 is_stmt 1
  19:src/../h/MemoryAllocator.hpp **** 
 470              		.loc 2 19 22 is_stmt 0
 471 0238 97060000 		la	a3,HEAP_START_ADDR
 471      83B60600 
 472 0240 83B70600 		ld	a5,0(a3)
 473 0244 17070000 		lla	a4,.LANCHOR0
 473      13070700 
 474 024c 2330F700 		sd	a5,0(a4)
  21:src/../h/MemoryAllocator.hpp ****             instance->freeList.head->address=(void*)((size_t)HEAP_START_ADDR+sizeof(MemoryAllocator
 475              		.loc 2 21 13 is_stmt 1
  21:src/../h/MemoryAllocator.hpp ****             instance->freeList.head->address=(void*)((size_t)HEAP_START_ADDR+sizeof(MemoryAllocator
 476              		.loc 2 21 71 is_stmt 0
 477 0250 13860702 		addi	a2,a5,32
  21:src/../h/MemoryAllocator.hpp ****             instance->freeList.head->address=(void*)((size_t)HEAP_START_ADDR+sizeof(MemoryAllocator
 478              		.loc 2 21 36
 479 0254 23B0C700 		sd	a2,0(a5)
  22:src/../h/MemoryAllocator.hpp ****             instance->freeList.head->size = (size_t)HEAP_END_ADDR-((size_t)HEAP_START_ADDR+sizeof(M
 480              		.loc 2 22 13 is_stmt 1
  22:src/../h/MemoryAllocator.hpp ****             instance->freeList.head->size = (size_t)HEAP_END_ADDR-((size_t)HEAP_START_ADDR+sizeof(M
 481              		.loc 2 22 77 is_stmt 0
 482 0258 83B60600 		ld	a3,0(a3)
 483 025c 93850602 		addi	a1,a3,32
  22:src/../h/MemoryAllocator.hpp ****             instance->freeList.head->size = (size_t)HEAP_END_ADDR-((size_t)HEAP_START_ADDR+sizeof(M
 484              		.loc 2 22 32
 485 0260 83370700 		ld	a5,0(a4)
 486 0264 03B60700 		ld	a2,0(a5)
  22:src/../h/MemoryAllocator.hpp ****             instance->freeList.head->size = (size_t)HEAP_END_ADDR-((size_t)HEAP_START_ADDR+sizeof(M
GAS LISTING /tmp/ccTehi3Q.s 			page 14


 487              		.loc 2 22 45
 488 0268 2334B600 		sd	a1,8(a2)
  23:src/../h/MemoryAllocator.hpp ****             instance->freeList.head->next= nullptr;
 489              		.loc 2 23 13 is_stmt 1
  23:src/../h/MemoryAllocator.hpp ****             instance->freeList.head->next= nullptr;
 490              		.loc 2 23 32 is_stmt 0
 491 026c 03B60700 		ld	a2,0(a5)
  23:src/../h/MemoryAllocator.hpp ****             instance->freeList.head->next= nullptr;
 492              		.loc 2 23 66
 493 0270 97070000 		la	a5,HEAP_END_ADDR
 493      83B70700 
 494 0278 83B70700 		ld	a5,0(a5)
 495 027c B387D740 		sub	a5,a5,a3
 496 0280 938707FE 		addi	a5,a5,-32
  23:src/../h/MemoryAllocator.hpp ****             instance->freeList.head->next= nullptr;
 497              		.loc 2 23 43
 498 0284 2330F600 		sd	a5,0(a2)
  24:src/../h/MemoryAllocator.hpp ****             instance->freeList.head->prev= nullptr;
 499              		.loc 2 24 13 is_stmt 1
  24:src/../h/MemoryAllocator.hpp ****             instance->freeList.head->prev= nullptr;
 500              		.loc 2 24 32 is_stmt 0
 501 0288 83370700 		ld	a5,0(a4)
 502 028c 03B70700 		ld	a4,0(a5)
  24:src/../h/MemoryAllocator.hpp ****             instance->freeList.head->prev= nullptr;
 503              		.loc 2 24 42
 504 0290 23380700 		sd	zero,16(a4)
  25:src/../h/MemoryAllocator.hpp **** 
 505              		.loc 2 25 13 is_stmt 1
  25:src/../h/MemoryAllocator.hpp **** 
 506              		.loc 2 25 32 is_stmt 0
 507 0294 03B70700 		ld	a4,0(a5)
  25:src/../h/MemoryAllocator.hpp **** 
 508              		.loc 2 25 42
 509 0298 233C0700 		sd	zero,24(a4)
  27:src/../h/MemoryAllocator.hpp ****         }
 510              		.loc 2 27 13 is_stmt 1
  27:src/../h/MemoryAllocator.hpp ****         }
 511              		.loc 2 27 35 is_stmt 0
 512 029c 23B80700 		sd	zero,16(a5)
 513 02a0 6FF01FF7 		j	.L31
 514              	.LVL42:
 515              	.L52:
 516              	.LBE38:
 517              	.LBE41:
  92:src/MemoryAllocator.cpp ****     //find size of the process for deallocation
 518              		.loc 1 92 43
 519 02a4 130101FE 		addi	sp,sp,-32
 520              		.cfi_def_cfa_offset 32
 521 02a8 233C1100 		sd	ra,24(sp)
 522 02ac 23388100 		sd	s0,16(sp)
 523 02b0 23349100 		sd	s1,8(sp)
 524              		.cfi_offset 1, -8
 525              		.cfi_offset 8, -16
 526              		.cfi_offset 9, -24
 527 02b4 13040102 		addi	s0,sp,32
 528              		.cfi_def_cfa 8, 0
 529              	.LBB42:
GAS LISTING /tmp/ccTehi3Q.s 			page 15


 101:src/MemoryAllocator.cpp ****             //delete pointer from pcb list
 530              		.loc 1 101 13 is_stmt 1
 101:src/MemoryAllocator.cpp ****             //delete pointer from pcb list
 531              		.loc 1 101 18 is_stmt 0
 532 02b8 03B70700 		ld	a4,0(a5)
 533              	.LVL43:
 103:src/MemoryAllocator.cpp ****                 ma->pcbList.head = temp->next;
 534              		.loc 1 103 13 is_stmt 1
 535 02bc 638A0602 		beqz	a3,.L53
 110:src/MemoryAllocator.cpp ****                 temp->next= nullptr;
 536              		.loc 1 110 17
 110:src/MemoryAllocator.cpp ****                 temp->next= nullptr;
 537              		.loc 1 110 36 is_stmt 0
 538 02c0 83B50701 		ld	a1,16(a5)
 110:src/MemoryAllocator.cpp ****                 temp->next= nullptr;
 539              		.loc 1 110 28
 540 02c4 23B8B600 		sd	a1,16(a3)
 111:src/MemoryAllocator.cpp ****                 found=true;
 541              		.loc 1 111 17 is_stmt 1
 111:src/MemoryAllocator.cpp ****                 found=true;
 542              		.loc 1 111 27 is_stmt 0
 543 02c8 23B80700 		sd	zero,16(a5)
 112:src/MemoryAllocator.cpp ****                 break;
 544              		.loc 1 112 17 is_stmt 1
 545              	.LVL44:
 113:src/MemoryAllocator.cpp ****             }
 546              		.loc 1 113 17
 547              	.LBE42:
 117:src/MemoryAllocator.cpp ****     }
 118:src/MemoryAllocator.cpp ****     //size not found
 119:src/MemoryAllocator.cpp ****     if(found==false)return -1;
 548              		.loc 1 119 5
 549              	.L35:
 120:src/MemoryAllocator.cpp **** 
 121:src/MemoryAllocator.cpp ****     //find the place where to insert the new free segment (just after cur)
 122:src/MemoryAllocator.cpp ****     FreeMem* cur=0;
 550              		.loc 1 122 5
 123:src/MemoryAllocator.cpp ****     if(ma->freeList.head== nullptr || addr<(char*)ma->freeList.head->address)
 551              		.loc 1 123 5
 552              		.loc 1 123 21 is_stmt 0
 553 02cc 83370600 		ld	a5,0(a2)
 554              	.LVL45:
 555              		.loc 1 123 5
 556 02d0 63880702 		beqz	a5,.L45
 557              		.loc 1 123 70 discriminator 1
 558 02d4 83B68700 		ld	a3,8(a5)
 559              		.loc 1 123 36 discriminator 1
 560 02d8 6368D502 		bgtu	a3,a0,.L46
 561              	.LVL46:
 562              	.L38:
 124:src/MemoryAllocator.cpp ****         cur= nullptr;   //insert as first
 125:src/MemoryAllocator.cpp ****     else
 126:src/MemoryAllocator.cpp ****         for(cur=ma->freeList.head; cur->next!= nullptr && addr>(char*)(cur->next); cur=cur->next);
 563              		.loc 1 126 56 is_stmt 1 discriminator 4
 564 02dc 93840700 		mv	s1,a5
 565              		.loc 1 126 41 is_stmt 0 discriminator 4
 566 02e0 83B70701 		ld	a5,16(a5)
GAS LISTING /tmp/ccTehi3Q.s 			page 16


 567              	.LVL47:
 568              		.loc 1 126 56 discriminator 4
 569 02e4 63840702 		beqz	a5,.L37
 570              		.loc 1 126 56 discriminator 2
 571 02e8 E3EAA7FE 		bltu	a5,a0,.L38
 572 02ec 6F000002 		j	.L37
 573              	.LVL48:
 574              	.L53:
 575              	.LBB43:
 104:src/MemoryAllocator.cpp ****                 temp->next= nullptr;
 576              		.loc 1 104 17 is_stmt 1
 104:src/MemoryAllocator.cpp ****                 temp->next= nullptr;
 577              		.loc 1 104 42 is_stmt 0
 578 02f0 83B60701 		ld	a3,16(a5)
 579              	.LVL49:
 104:src/MemoryAllocator.cpp ****                 temp->next= nullptr;
 580              		.loc 1 104 34
 581 02f4 2338D600 		sd	a3,16(a2)
 105:src/MemoryAllocator.cpp ****                 found=true;
 582              		.loc 1 105 17 is_stmt 1
 105:src/MemoryAllocator.cpp ****                 found=true;
 583              		.loc 1 105 27 is_stmt 0
 584 02f8 23B80700 		sd	zero,16(a5)
 106:src/MemoryAllocator.cpp ****                 break;
 585              		.loc 1 106 17 is_stmt 1
 586              	.LVL50:
 107:src/MemoryAllocator.cpp ****             }
 587              		.loc 1 107 17
 588              	.LBE43:
 119:src/MemoryAllocator.cpp **** 
 589              		.loc 1 119 5
 590 02fc 6FF01FFD 		j	.L35
 591              	.LVL51:
 592              	.L45:
 124:src/MemoryAllocator.cpp ****     else
 593              		.loc 1 124 12 is_stmt 0
 594 0300 93840700 		mv	s1,a5
 595 0304 6F008000 		j	.L37
 596              	.L46:
 597 0308 93040000 		li	s1,0
 598              	.LVL52:
 599              	.L37:
 127:src/MemoryAllocator.cpp **** 
 128:src/MemoryAllocator.cpp ****     //insert seg after cur
 129:src/MemoryAllocator.cpp ****     FreeMem* newSeg = (FreeMem*)addr;
 600              		.loc 1 129 5 is_stmt 1
 130:src/MemoryAllocator.cpp ****     newSeg->size = size;
 601              		.loc 1 130 5
 602              		.loc 1 130 18 is_stmt 0
 603 030c 2330E500 		sd	a4,0(a0)
 131:src/MemoryAllocator.cpp ****     newSeg->prev= cur;
 604              		.loc 1 131 5 is_stmt 1
 605              		.loc 1 131 17 is_stmt 0
 606 0310 233C9500 		sd	s1,24(a0)
 132:src/MemoryAllocator.cpp ****     newSeg->address=addr;
 607              		.loc 1 132 5 is_stmt 1
 608              		.loc 1 132 20 is_stmt 0
GAS LISTING /tmp/ccTehi3Q.s 			page 17


 609 0314 2334A500 		sd	a0,8(a0)
 133:src/MemoryAllocator.cpp ****     if(cur)newSeg->next = cur->next;//link to next
 610              		.loc 1 133 5 is_stmt 1
 611 0318 63860404 		beqz	s1,.L39
 612              		.loc 1 133 12 discriminator 1
 613              		.loc 1 133 32 is_stmt 0 discriminator 1
 614 031c 83B70401 		ld	a5,16(s1)
 615              		.loc 1 133 25 discriminator 1
 616 0320 2338F500 		sd	a5,16(a0)
 617              	.L40:
 134:src/MemoryAllocator.cpp ****     else newSeg->next=ma->freeList.head;
 135:src/MemoryAllocator.cpp ****     if(newSeg->next)newSeg->next->prev=newSeg;
 618              		.loc 1 135 5 is_stmt 1
 619              		.loc 1 135 16 is_stmt 0
 620 0324 83370501 		ld	a5,16(a0)
 621              		.loc 1 135 5
 622 0328 63840700 		beqz	a5,.L41
 623              		.loc 1 135 21 is_stmt 1 discriminator 1
 624              		.loc 1 135 39 is_stmt 0 discriminator 1
 625 032c 23BCA700 		sd	a0,24(a5)
 626              	.L41:
 136:src/MemoryAllocator.cpp ****     if(cur)cur->next=newSeg; //link previous
 627              		.loc 1 136 5 is_stmt 1
 628 0330 63800404 		beqz	s1,.L42
 629              		.loc 1 136 12 discriminator 1
 630              		.loc 1 136 21 is_stmt 0 discriminator 1
 631 0334 23B8A400 		sd	a0,16(s1)
 632              	.L43:
 137:src/MemoryAllocator.cpp ****     else ma->freeList.head = newSeg;
 138:src/MemoryAllocator.cpp **** 
 139:src/MemoryAllocator.cpp **** 
 140:src/MemoryAllocator.cpp **** 
 141:src/MemoryAllocator.cpp ****     tryToJoin(newSeg);
 633              		.loc 1 141 5 is_stmt 1
 634              		.loc 1 141 14 is_stmt 0
 635 0338 97000000 		call	_ZN15MemoryAllocator9tryToJoinEPN16DoublyLinkedListImE4NodeE
 635      E7800000 
 636              	.LVL53:
 142:src/MemoryAllocator.cpp ****     tryToJoin(cur);
 637              		.loc 1 142 5 is_stmt 1
 638              		.loc 1 142 14 is_stmt 0
 639 0340 13850400 		mv	a0,s1
 640 0344 97000000 		call	_ZN15MemoryAllocator9tryToJoinEPN16DoublyLinkedListImE4NodeE
 640      E7800000 
 641              	.LVL54:
 143:src/MemoryAllocator.cpp **** 
 144:src/MemoryAllocator.cpp **** 
 145:src/MemoryAllocator.cpp **** 
 146:src/MemoryAllocator.cpp **** 
 147:src/MemoryAllocator.cpp ****     return 0;
 642              		.loc 1 147 5 is_stmt 1
 643              		.loc 1 147 12 is_stmt 0
 644 034c 13050000 		li	a0,0
 645              	.LVL55:
 148:src/MemoryAllocator.cpp **** 
 149:src/MemoryAllocator.cpp **** }...
 646              		.loc 1 149 1
GAS LISTING /tmp/ccTehi3Q.s 			page 18


 647 0350 83308101 		ld	ra,24(sp)
 648              		.cfi_remember_state
 649              		.cfi_restore 1
 650 0354 03340101 		ld	s0,16(sp)
 651              		.cfi_restore 8
 652              		.cfi_def_cfa 2, 32
 653 0358 83348100 		ld	s1,8(sp)
 654              		.cfi_restore 9
 655              	.LVL56:
 656 035c 13010102 		addi	sp,sp,32
 657              		.cfi_def_cfa_offset 0
 658 0360 67800000 		jr	ra
 659              	.LVL57:
 660              	.L39:
 661              		.cfi_restore_state
 134:src/MemoryAllocator.cpp ****     else newSeg->next=ma->freeList.head;
 662              		.loc 1 134 10 is_stmt 1
 134:src/MemoryAllocator.cpp ****     else newSeg->next=ma->freeList.head;
 663              		.loc 1 134 36 is_stmt 0
 664 0364 83370600 		ld	a5,0(a2)
 134:src/MemoryAllocator.cpp ****     else newSeg->next=ma->freeList.head;
 665              		.loc 1 134 22
 666 0368 2338F500 		sd	a5,16(a0)
 667 036c 6FF09FFB 		j	.L40
 668              	.L42:
 137:src/MemoryAllocator.cpp ****     else ma->freeList.head = newSeg;
 669              		.loc 1 137 10 is_stmt 1
 137:src/MemoryAllocator.cpp ****     else ma->freeList.head = newSeg;
 670              		.loc 1 137 28 is_stmt 0
 671 0370 2330A600 		sd	a0,0(a2)
 672 0374 6FF05FFC 		j	.L43
 673              	.LVL58:
 674              	.L44:
 675              		.cfi_def_cfa_register 2
 676              		.cfi_restore 1
 677              		.cfi_restore 8
 678              		.cfi_restore 9
 119:src/MemoryAllocator.cpp ****     if(found==false)return -1;
 679              		.loc 1 119 29
 680 0378 1305F0FF 		li	a0,-1
 681              	.LVL59:
 682              		.loc 1 149 1
 683 037c 67800000 		ret
 684              		.cfi_endproc
 685              	.LFE10:
 687              		.globl	_ZN15MemoryAllocator8instanceE
 688              		.bss
 689              		.align	3
 690              		.set	.LANCHOR0,. + 0
 693              	_ZN15MemoryAllocator8instanceE:
 694 0000 00000000 		.zero	8
 694      00000000 
 695              		.text
 696              	.Letext0:
 697              		.file 3 "src/../h/../lib/hw.h"
 698              		.file 4 "src/../h/DoublyLinkedList.hpp"
GAS LISTING /tmp/ccTehi3Q.s 			page 19

