GAS LISTING /tmp/cci5PgaS.s 			page 1


   1              		.file	"Riscv.cpp"
   2              		.option pic
   3              		.option norelax
   4              		.text
   5              	.Ltext0:
   6              		.align	2
   7              		.globl	_ZN5Riscv10popSppSpieEv
   9              	_ZN5Riscv10popSppSpieEv:
  10              	.LFB49:
  11              		.file 1 "src/Riscv.cpp"
   1:src/Riscv.cpp **** //
   2:src/Riscv.cpp **** // Created by os on 6/17/22.
   3:src/Riscv.cpp **** //
   4:src/Riscv.cpp **** 
   5:src/Riscv.cpp **** #include "../h/Riscv.hpp"
   6:src/Riscv.cpp **** #include "../h/MemoryAllocator.hpp"
   7:src/Riscv.cpp **** #include "../h/_thread.hpp"
   8:src/Riscv.cpp **** #include "../h/KSemaphore.hpp"
   9:src/Riscv.cpp **** #include "../h/KConsole.hpp"
  10:src/Riscv.cpp **** 
  11:src/Riscv.cpp **** 
  12:src/Riscv.cpp **** 
  13:src/Riscv.cpp **** 
  14:src/Riscv.cpp **** void Riscv::popSppSpie()    //pop supervisor previous privilege, supervisor previous interrupt enab
  15:src/Riscv.cpp **** {
  12              		.loc 1 15 1
  13              		.cfi_startproc
  14 0000 130101FF 		addi	sp,sp,-16
  15              		.cfi_def_cfa_offset 16
  16 0004 23348100 		sd	s0,8(sp)
  17              		.cfi_offset 8, -8
  18 0008 13040101 		addi	s0,sp,16
  19              		.cfi_def_cfa 8, 0
  16:src/Riscv.cpp ****     __asm__ volatile ("csrw sepc, ra");
  20              		.loc 1 16 5
  21              		.loc 1 16 39 is_stmt 0
  22              	#APP
  23              	# 16 "src/Riscv.cpp" 1
  17              	    __asm__ volatile ("sret");  //exit privileged regime
  24              		csrw sepc, ra
  25              	# 0 "" 2
  26              		.loc 1 17 5 is_stmt 1
  27              		.loc 1 17 30 is_stmt 0
  28              	# 17 "src/Riscv.cpp" 1
  18              	}
  29              		sret
  30              	# 0 "" 2
  31              		.loc 1 18 1
  32              	#NO_APP
  33 0014 03348100 		ld	s0,8(sp)
  34              		.cfi_restore 8
  35              		.cfi_def_cfa 2, 16
  36 0018 13010101 		addi	sp,sp,16
  37              		.cfi_def_cfa_offset 0
  38 001c 67800000 		jr	ra
  39              		.cfi_endproc
  40              	.LFE49:
GAS LISTING /tmp/cci5PgaS.s 			page 2


  42              		.align	2
  43              		.globl	_ZN5Riscv20handleSupervisorTrapEv
  45              	_ZN5Riscv20handleSupervisorTrapEv:
  46              	.LFB50:
  19:src/Riscv.cpp **** 
  20:src/Riscv.cpp **** void Riscv::handleSupervisorTrap(){
  47              		.loc 1 20 35 is_stmt 1
  48              		.cfi_startproc
  49 0020 130101F0 		addi	sp,sp,-256
  50              		.cfi_def_cfa_offset 256
  51 0024 233C110E 		sd	ra,248(sp)
  52 0028 2338810E 		sd	s0,240(sp)
  53 002c 2334910E 		sd	s1,232(sp)
  54 0030 2330210F 		sd	s2,224(sp)
  55 0034 233C310D 		sd	s3,216(sp)
  56 0038 2338410D 		sd	s4,208(sp)
  57              		.cfi_offset 1, -8
  58              		.cfi_offset 8, -16
  59              		.cfi_offset 9, -24
  60              		.cfi_offset 18, -32
  61              		.cfi_offset 19, -40
  62              		.cfi_offset 20, -48
  63 003c 13040110 		addi	s0,sp,256
  64              		.cfi_def_cfa 8, 0
  21:src/Riscv.cpp ****     uint scause = r_scause();
  65              		.loc 1 21 5
  66              	.LBB154:
  67              	.LBB155:
  68              		.file 2 "src/../h/Riscv.hpp"
   1:src/../h/Riscv.hpp **** //
   2:src/../h/Riscv.hpp **** // Created by os on 6/17/22.
   3:src/../h/Riscv.hpp **** //
   4:src/../h/Riscv.hpp **** 
   5:src/../h/Riscv.hpp **** #ifndef PROJECT_BASE_V1_1_RISCV_HPP
   6:src/../h/Riscv.hpp **** #define PROJECT_BASE_V1_1_RISCV_HPP
   7:src/../h/Riscv.hpp **** 
   8:src/../h/Riscv.hpp **** #include "../lib/hw.h"
   9:src/../h/Riscv.hpp **** 
  10:src/../h/Riscv.hpp **** 
  11:src/../h/Riscv.hpp **** class Riscv
  12:src/../h/Riscv.hpp **** {
  13:src/../h/Riscv.hpp **** public:
  14:src/../h/Riscv.hpp **** 
  15:src/../h/Riscv.hpp ****     // pop sstatus.spp and sstatus.spie bits (has to be a non inline function)
  16:src/../h/Riscv.hpp ****     static void popSppSpie();
  17:src/../h/Riscv.hpp **** 
  18:src/../h/Riscv.hpp ****     // read register scause
  19:src/../h/Riscv.hpp ****     static uint64 r_scause();
  20:src/../h/Riscv.hpp **** 
  21:src/../h/Riscv.hpp ****     // write register scause
  22:src/../h/Riscv.hpp ****     static void w_scause(uint64 scause);
  23:src/../h/Riscv.hpp **** 
  24:src/../h/Riscv.hpp ****     // read register sepc
  25:src/../h/Riscv.hpp ****     static uint64 r_sepc();
  26:src/../h/Riscv.hpp **** 
  27:src/../h/Riscv.hpp ****     // write register sepc
  28:src/../h/Riscv.hpp ****     static void w_sepc(uint64 sepc);
GAS LISTING /tmp/cci5PgaS.s 			page 3


  29:src/../h/Riscv.hpp **** 
  30:src/../h/Riscv.hpp ****     // read register stvec
  31:src/../h/Riscv.hpp ****     static uint64 r_stvec();
  32:src/../h/Riscv.hpp **** 
  33:src/../h/Riscv.hpp ****     // write register stvec
  34:src/../h/Riscv.hpp ****     static void w_stvec(uint64 stvec);
  35:src/../h/Riscv.hpp **** 
  36:src/../h/Riscv.hpp ****     // read register stval
  37:src/../h/Riscv.hpp ****     static uint64 r_stval();
  38:src/../h/Riscv.hpp **** 
  39:src/../h/Riscv.hpp ****     // write register stval
  40:src/../h/Riscv.hpp ****     static void w_stval(uint64 stval);
  41:src/../h/Riscv.hpp **** 
  42:src/../h/Riscv.hpp ****     enum BitMaskSip
  43:src/../h/Riscv.hpp ****     {
  44:src/../h/Riscv.hpp ****         SIP_SSIP = (1 << 1),
  45:src/../h/Riscv.hpp ****         SIP_STIP = (1 << 5),
  46:src/../h/Riscv.hpp ****         SIP_SEIP = (1 << 9),
  47:src/../h/Riscv.hpp ****     };
  48:src/../h/Riscv.hpp **** 
  49:src/../h/Riscv.hpp ****     // mask set register sip
  50:src/../h/Riscv.hpp ****     static void ms_sip(uint64 mask);
  51:src/../h/Riscv.hpp **** 
  52:src/../h/Riscv.hpp ****     // mask clear register sip
  53:src/../h/Riscv.hpp ****     static void mc_sip(uint64 mask);
  54:src/../h/Riscv.hpp **** 
  55:src/../h/Riscv.hpp ****     // read register sip
  56:src/../h/Riscv.hpp ****     static uint64 r_sip();
  57:src/../h/Riscv.hpp **** 
  58:src/../h/Riscv.hpp ****     // write register sip
  59:src/../h/Riscv.hpp ****     static void w_sip(uint64 sip);
  60:src/../h/Riscv.hpp **** 
  61:src/../h/Riscv.hpp ****     enum BitMaskSstatus
  62:src/../h/Riscv.hpp ****     {
  63:src/../h/Riscv.hpp ****         SSTATUS_SIE = (1 << 1),
  64:src/../h/Riscv.hpp ****         SSTATUS_SPIE = (1 << 5),
  65:src/../h/Riscv.hpp ****         SSTATUS_SPP = (1 << 8),
  66:src/../h/Riscv.hpp ****     };
  67:src/../h/Riscv.hpp **** 
  68:src/../h/Riscv.hpp ****     // mask set register sstatus
  69:src/../h/Riscv.hpp ****     static void ms_sstatus(uint64 mask);
  70:src/../h/Riscv.hpp **** 
  71:src/../h/Riscv.hpp ****     // mask clear register sstatus
  72:src/../h/Riscv.hpp ****     static void mc_sstatus(uint64 mask);
  73:src/../h/Riscv.hpp **** 
  74:src/../h/Riscv.hpp ****     // read register sstatus
  75:src/../h/Riscv.hpp ****     static uint64 r_sstatus();
  76:src/../h/Riscv.hpp **** 
  77:src/../h/Riscv.hpp ****     // write register sstatus
  78:src/../h/Riscv.hpp ****     static void w_sstatus(uint64 sstatus);
  79:src/../h/Riscv.hpp **** 
  80:src/../h/Riscv.hpp ****     // supervisor trap
  81:src/../h/Riscv.hpp ****     static void supervisorTrap();
  82:src/../h/Riscv.hpp **** 
  83:src/../h/Riscv.hpp ****     static void TrapConsole();
  84:src/../h/Riscv.hpp **** 
  85:src/../h/Riscv.hpp **** private:
GAS LISTING /tmp/cci5PgaS.s 			page 4


  86:src/../h/Riscv.hpp **** 
  87:src/../h/Riscv.hpp ****     // supervisor trap handler
  88:src/../h/Riscv.hpp ****     static void handleSupervisorTrap();
  89:src/../h/Riscv.hpp **** 
  90:src/../h/Riscv.hpp ****     static void handleTrapConsole();
  91:src/../h/Riscv.hpp **** 
  92:src/../h/Riscv.hpp **** //    static void syscallHandler();
  93:src/../h/Riscv.hpp **** 
  94:src/../h/Riscv.hpp **** };
  95:src/../h/Riscv.hpp **** 
  96:src/../h/Riscv.hpp **** inline uint64 Riscv::r_scause()
  97:src/../h/Riscv.hpp **** {
  98:src/../h/Riscv.hpp ****     uint64 volatile scause;
  69              		.loc 2 98 5
  99:src/../h/Riscv.hpp ****     __asm__ volatile ("csrr %[scause], scause" : [scause] "=r"(scause));
  70              		.loc 2 99 5
  71              		.loc 2 99 72 is_stmt 0
  72              	#APP
  73              	# 99 "src/../h/Riscv.hpp" 1
 100              	    return scause;
  74              		csrr a5, scause
  75              	# 0 "" 2
  76              	#NO_APP
  77 0044 2334F4F0 		sd	a5,-248(s0)
  78              		.loc 2 100 5 is_stmt 1
  79              		.loc 2 100 12 is_stmt 0
  80 0048 833784F0 		ld	a5,-248(s0)
  81              	.LBE155:
  82              	.LBE154:
  83              		.loc 1 21 28
  84 004c 9B870700 		sext.w	a5,a5
  85              	.LVL0:
  22:src/Riscv.cpp ****     uint64 a0reg;
  86              		.loc 1 22 5 is_stmt 1
  23:src/Riscv.cpp ****     uint64 arg1;
  87              		.loc 1 23 5
  24:src/Riscv.cpp ****     __asm__ volatile("mv %0, a0" : "=r" (a0reg));
  88              		.loc 1 24 5
  89              		.loc 1 24 49 is_stmt 0
  90              	#APP
  91              	# 24 "src/Riscv.cpp" 1
  25              	
  92              		mv s1, a0
  93              	# 0 "" 2
  94              	.LVL1:
  26:src/Riscv.cpp **** //    if(scause == 0x0000000000000009UL){
  27:src/Riscv.cpp **** //        uint64 sepc = r_sepc();
  28:src/Riscv.cpp **** //        uint64 sstatus = r_sstatus() & ~(SSTATUS_SPP);
  29:src/Riscv.cpp **** //        w_sepc(sepc + 4);
  30:src/Riscv.cpp **** //        w_sstatus(sstatus);
  31:src/Riscv.cpp **** //    }
  32:src/Riscv.cpp ****      if (scause == 0x0000000000000008UL || scause == 0x0000000000000009UL){
  95              		.loc 1 32 6 is_stmt 1
  96              	#NO_APP
  97              	.LBB156:
  98              		.loc 1 32 41 is_stmt 0
  99 0054 9B8787FF 		addiw	a5,a5,-8
GAS LISTING /tmp/cci5PgaS.s 			page 5


 100              	.LVL2:
 101              		.loc 1 32 6
 102 0058 13071000 		li	a4,1
 103 005c 6372F702 		bleu	a5,a4,.L25
 104              	.LVL3:
 105              	.L3:
 106              	.LBE156:
  33:src/Riscv.cpp ****         // interrupt: no; cause code: environment call from U-mode(8) or S-mode(9)
  34:src/Riscv.cpp **** 
  35:src/Riscv.cpp ****         //call from yield
  36:src/Riscv.cpp **** 
  37:src/Riscv.cpp ****         if(a0reg==0x11){
  38:src/Riscv.cpp ****             uint64 sepc = r_sepc() + 4;
  39:src/Riscv.cpp ****             uint64 sstatus = r_sstatus();
  40:src/Riscv.cpp **** 
  41:src/Riscv.cpp **** 
  42:src/Riscv.cpp ****             _thread::thread_t *arg1;
  43:src/Riscv.cpp ****             _thread::Body arg2;
  44:src/Riscv.cpp ****             uint64 arg3;
  45:src/Riscv.cpp ****             uint64 *arg4;
  46:src/Riscv.cpp **** 
  47:src/Riscv.cpp ****             __asm__ volatile("ld a1, 11*8(fp)"); //a1
  48:src/Riscv.cpp ****             __asm__ volatile("ld a2, 12*8(fp)"); //a2
  49:src/Riscv.cpp ****             __asm__ volatile("ld a3, 13*8(fp)"); //a3
  50:src/Riscv.cpp ****             __asm__ volatile("ld a4, 14*8(fp)"); //a4
  51:src/Riscv.cpp **** 
  52:src/Riscv.cpp **** 
  53:src/Riscv.cpp ****             __asm__ volatile("mv %0, a1" : "=r" (arg1));    //handle (thread_t*)
  54:src/Riscv.cpp ****             __asm__ volatile("mv %0, a2" : "=r" (arg2));    //start routine
  55:src/Riscv.cpp ****             __asm__ volatile("mv %0, a3" : "=r" (arg3));    //argument of start routine
  56:src/Riscv.cpp ****             __asm__ volatile("mv %0, a4" : "=r" (arg4));    //stack
  57:src/Riscv.cpp **** 
  58:src/Riscv.cpp ****             //make new thread object using overloaded new operator for that function
  59:src/Riscv.cpp ****             _thread* t = _thread::createThread(arg2,  (void*)arg3, arg4);    //t je thread_t
  60:src/Riscv.cpp ****             *arg1=t;
  61:src/Riscv.cpp **** 
  62:src/Riscv.cpp ****             uint64 ret;
  63:src/Riscv.cpp ****             if(t!= nullptr)ret=0;
  64:src/Riscv.cpp ****             else ret =-1;
  65:src/Riscv.cpp **** 
  66:src/Riscv.cpp **** 
  67:src/Riscv.cpp ****             //return _thread* adress through a0
  68:src/Riscv.cpp ****             __asm__ volatile("mv a0, %0" : : "r" (ret));
  69:src/Riscv.cpp **** 
  70:src/Riscv.cpp ****             w_sstatus(sstatus);
  71:src/Riscv.cpp ****             w_sepc(sepc);
  72:src/Riscv.cpp ****         }
  73:src/Riscv.cpp ****         if(a0reg== 0x01 ){
  74:src/Riscv.cpp ****             uint64 sepc = r_sepc() + 4;
  75:src/Riscv.cpp ****             uint64 sstatus = r_sstatus();
  76:src/Riscv.cpp ****             //kmem_alloc
  77:src/Riscv.cpp ****             __asm__ volatile("mv %0, a1" : "=r" (arg1));    //read size from a1 and move it to arg1
  78:src/Riscv.cpp ****             uint64 ptr= (uint64) MemoryAllocator::kmem_alloc(arg1*MEM_BLOCK_SIZE);
  79:src/Riscv.cpp **** 
  80:src/Riscv.cpp ****             //write return value to a0 register
  81:src/Riscv.cpp ****             __asm__ volatile("mv a0, %0" : : "r" (ptr));
  82:src/Riscv.cpp **** 
GAS LISTING /tmp/cci5PgaS.s 			page 6


  83:src/Riscv.cpp ****             w_sstatus(sstatus);
  84:src/Riscv.cpp ****             w_sepc(sepc);
  85:src/Riscv.cpp ****         }
  86:src/Riscv.cpp ****         else if(a0reg==0x02){
  87:src/Riscv.cpp ****             uint64 sepc = r_sepc() + 4;
  88:src/Riscv.cpp ****             uint64 sstatus = r_sstatus();
  89:src/Riscv.cpp **** 
  90:src/Riscv.cpp ****             __asm__ volatile("mv %0, a1" : "=r" (arg1));    //read pointer to free from a1 and move
  91:src/Riscv.cpp ****             int ret = MemoryAllocator::kmem_free((void *) arg1);
  92:src/Riscv.cpp ****             __asm__ volatile("mv a0, %0" : : "r" (ret));
  93:src/Riscv.cpp **** 
  94:src/Riscv.cpp ****             w_sstatus(sstatus);
  95:src/Riscv.cpp ****             w_sepc(sepc);
  96:src/Riscv.cpp ****         }
  97:src/Riscv.cpp **** 
  98:src/Riscv.cpp ****         else if(a0reg==0x12){
  99:src/Riscv.cpp ****             uint64 sepc = r_sepc() + 4;
 100:src/Riscv.cpp ****             uint64 sstatus = r_sstatus();
 101:src/Riscv.cpp **** 
 102:src/Riscv.cpp ****             _thread::running->finished=true;
 103:src/Riscv.cpp ****             _thread::dispatch();
 104:src/Riscv.cpp **** 
 105:src/Riscv.cpp ****             w_sstatus(sstatus);
 106:src/Riscv.cpp ****             w_sepc(sepc);
 107:src/Riscv.cpp **** 
 108:src/Riscv.cpp **** 
 109:src/Riscv.cpp ****         }
 110:src/Riscv.cpp ****         else if(a0reg == 0x13){
 111:src/Riscv.cpp ****             //thread dispatch
 112:src/Riscv.cpp ****             uint64 sepc = r_sepc() + 4;
 113:src/Riscv.cpp ****             uint64 sstatus = r_sstatus();
 114:src/Riscv.cpp **** 
 115:src/Riscv.cpp **** 
 116:src/Riscv.cpp ****             _thread::dispatch();
 117:src/Riscv.cpp **** 
 118:src/Riscv.cpp ****             w_sstatus(sstatus);
 119:src/Riscv.cpp ****             w_sepc(sepc);
 120:src/Riscv.cpp ****         }
 121:src/Riscv.cpp **** 
 122:src/Riscv.cpp ****         else if(a0reg==0x04){
 123:src/Riscv.cpp ****             //call from yield
 124:src/Riscv.cpp ****             uint64 sepc = r_sepc() + 4;
 125:src/Riscv.cpp ****             uint64 sstatus = r_sstatus();
 126:src/Riscv.cpp **** 
 127:src/Riscv.cpp ****             _thread::timeSliceCounter = 0;
 128:src/Riscv.cpp ****             _thread::dispatch();
 129:src/Riscv.cpp **** 
 130:src/Riscv.cpp ****             w_sstatus(sstatus);
 131:src/Riscv.cpp ****             w_sepc(sepc);
 132:src/Riscv.cpp ****         }
 133:src/Riscv.cpp ****         else if(a0reg==0x21){
 134:src/Riscv.cpp ****             uint64 sepc = r_sepc() + 4;
 135:src/Riscv.cpp ****             uint64 sstatus = r_sstatus();
 136:src/Riscv.cpp **** 
 137:src/Riscv.cpp ****            KSemaphore::sem_t *arg1;
 138:src/Riscv.cpp ****            uint64 arg2;
 139:src/Riscv.cpp **** 
GAS LISTING /tmp/cci5PgaS.s 			page 7


 140:src/Riscv.cpp ****             __asm__ volatile("ld a1, 11*8(fp)"); //a1
 141:src/Riscv.cpp ****             __asm__ volatile("ld a2, 12*8(fp)"); //a2
 142:src/Riscv.cpp **** 
 143:src/Riscv.cpp ****             __asm__ volatile("mv %0, a1" : "=r" (arg1));    //handle (sem_t*)
 144:src/Riscv.cpp ****             __asm__ volatile("mv %0, a2" : "=r" (arg2));    //init val
 145:src/Riscv.cpp **** 
 146:src/Riscv.cpp ****             KSemaphore* sem = new KSemaphore(arg2);
 147:src/Riscv.cpp ****             *arg1=sem;
 148:src/Riscv.cpp **** 
 149:src/Riscv.cpp ****             uint64 ret=0;
 150:src/Riscv.cpp ****             if(sem!= nullptr)ret=0;
 151:src/Riscv.cpp ****             else ret=-1;
 152:src/Riscv.cpp **** 
 153:src/Riscv.cpp ****             __asm__ volatile("mv a0, %0" : : "r" (ret));
 154:src/Riscv.cpp **** 
 155:src/Riscv.cpp ****             w_sstatus(sstatus);
 156:src/Riscv.cpp ****             w_sepc(sepc);
 157:src/Riscv.cpp ****         }
 158:src/Riscv.cpp ****         else if(a0reg==0x22){
 159:src/Riscv.cpp ****             uint64 sepc = r_sepc() + 4;
 160:src/Riscv.cpp ****             uint64 sstatus = r_sstatus();
 161:src/Riscv.cpp **** 
 162:src/Riscv.cpp ****             KSemaphore::sem_t arg1; //handle
 163:src/Riscv.cpp **** 
 164:src/Riscv.cpp **** 
 165:src/Riscv.cpp ****             __asm__ volatile("ld a1, 11*8(fp)"); //a1
 166:src/Riscv.cpp **** 
 167:src/Riscv.cpp ****             __asm__ volatile("mv %0, a1" : "=r" (arg1));    //handle (sem_t*)
 168:src/Riscv.cpp **** 
 169:src/Riscv.cpp ****             KSemaphore* sem = arg1;
 170:src/Riscv.cpp **** 
 171:src/Riscv.cpp ****             //deblock all blocked threads on this semaphore
 172:src/Riscv.cpp ****             while(sem->blocked.peekFirst()!=0){
 173:src/Riscv.cpp ****                 _thread* t = sem->blocked.removeFirst();
 174:src/Riscv.cpp ****                 t->deblocked=true;
 175:src/Riscv.cpp ****                 sem->val++;
 176:src/Riscv.cpp ****                 Scheduler::put(t);
 177:src/Riscv.cpp ****             }
 178:src/Riscv.cpp **** 
 179:src/Riscv.cpp ****             delete sem;
 180:src/Riscv.cpp **** 
 181:src/Riscv.cpp ****             w_sstatus(sstatus);
 182:src/Riscv.cpp ****             w_sepc(sepc);
 183:src/Riscv.cpp ****         }
 184:src/Riscv.cpp ****         else if(a0reg==0x23){
 185:src/Riscv.cpp ****             uint64 sepc = r_sepc() + 4;
 186:src/Riscv.cpp ****             uint64 sstatus = r_sstatus();
 187:src/Riscv.cpp **** 
 188:src/Riscv.cpp ****             KSemaphore::sem_t arg1; //handle
 189:src/Riscv.cpp **** 
 190:src/Riscv.cpp ****             __asm__ volatile("ld a1, 11*8(fp)"); //a1
 191:src/Riscv.cpp **** 
 192:src/Riscv.cpp ****             __asm__ volatile("mv %0, a1" : "=r" (arg1));    //handle (sem_t*)
 193:src/Riscv.cpp **** 
 194:src/Riscv.cpp **** //            KSemaphore* sem = *arg1;
 195:src/Riscv.cpp **** 
 196:src/Riscv.cpp ****             uint64 ret = arg1->wait();
GAS LISTING /tmp/cci5PgaS.s 			page 8


 197:src/Riscv.cpp **** 
 198:src/Riscv.cpp ****             __asm__ volatile("mv a0, %0" : : "r" (ret));
 199:src/Riscv.cpp **** 
 200:src/Riscv.cpp ****             w_sstatus(sstatus);
 201:src/Riscv.cpp ****             w_sepc(sepc);
 202:src/Riscv.cpp ****         }
 203:src/Riscv.cpp ****         else if(a0reg==0x24){
 204:src/Riscv.cpp ****             uint64 sepc = r_sepc() + 4;
 205:src/Riscv.cpp ****             uint64 sstatus = r_sstatus();
 206:src/Riscv.cpp **** 
 207:src/Riscv.cpp ****             KSemaphore::sem_t arg1; //handle
 208:src/Riscv.cpp **** 
 209:src/Riscv.cpp ****             __asm__ volatile("ld a1, 11*8(fp)"); //a1
 210:src/Riscv.cpp **** 
 211:src/Riscv.cpp ****             __asm__ volatile("mv %0, a1" : "=r" (arg1));    //handle (sem_t*)
 212:src/Riscv.cpp **** 
 213:src/Riscv.cpp **** 
 214:src/Riscv.cpp ****             arg1->signal();
 215:src/Riscv.cpp **** 
 216:src/Riscv.cpp ****             uint64 ret = 0;
 217:src/Riscv.cpp **** 
 218:src/Riscv.cpp ****             __asm__ volatile("mv a0, %0" : : "r" (ret));
 219:src/Riscv.cpp **** 
 220:src/Riscv.cpp ****             w_sstatus(sstatus);
 221:src/Riscv.cpp ****             w_sepc(sepc);
 222:src/Riscv.cpp ****         }
 223:src/Riscv.cpp ****         else if(a0reg==0x41){
 224:src/Riscv.cpp ****             uint64 sepc = r_sepc() + 4;
 225:src/Riscv.cpp ****             uint64 sstatus = r_sstatus();
 226:src/Riscv.cpp **** 
 227:src/Riscv.cpp ****             //call method from kernel Console class
 228:src/Riscv.cpp ****             Riscv::w_stvec((uint64)&Riscv::TrapConsole);
 229:src/Riscv.cpp ****             char c = __getc();
 230:src/Riscv.cpp ****             Riscv::w_stvec((uint64)&Riscv::supervisorTrap);
 231:src/Riscv.cpp **** 
 232:src/Riscv.cpp ****             __asm__ volatile("mv a0, %0" : : "r" (c));
 233:src/Riscv.cpp **** 
 234:src/Riscv.cpp **** 
 235:src/Riscv.cpp ****             w_sstatus(sstatus);
 236:src/Riscv.cpp ****             w_sepc(sepc);
 237:src/Riscv.cpp ****         }
 238:src/Riscv.cpp ****         else if(a0reg==0x42){
 239:src/Riscv.cpp ****             uint64 sepc = r_sepc() + 4;
 240:src/Riscv.cpp ****             uint64 sstatus = r_sstatus();
 241:src/Riscv.cpp **** 
 242:src/Riscv.cpp ****             char c;
 243:src/Riscv.cpp ****             __asm__ volatile("ld a1, 11*8(fp)"); //a1
 244:src/Riscv.cpp **** 
 245:src/Riscv.cpp ****             __asm__ volatile("mv %0, a1" : "=r" (c));
 246:src/Riscv.cpp **** 
 247:src/Riscv.cpp ****             Riscv::w_stvec((uint64)&Riscv::TrapConsole);
 248:src/Riscv.cpp ****             __putc(c);
 249:src/Riscv.cpp ****             Riscv::w_stvec((uint64)&Riscv::supervisorTrap);
 250:src/Riscv.cpp **** 
 251:src/Riscv.cpp ****             w_sstatus(sstatus);
 252:src/Riscv.cpp ****             w_sepc(sepc);
 253:src/Riscv.cpp ****         }
GAS LISTING /tmp/cci5PgaS.s 			page 9


 254:src/Riscv.cpp **** 
 255:src/Riscv.cpp **** 
 256:src/Riscv.cpp ****     }
 257:src/Riscv.cpp ****      else if(scause == 0x8000000000000001UL){
 258:src/Riscv.cpp ****          mc_sip(SIP_SSIP);
 259:src/Riscv.cpp ****      }
 260:src/Riscv.cpp ****      else if (scause == 0x8000000000000009UL){
 261:src/Riscv.cpp ****          console_handler();
 262:src/Riscv.cpp ****      } else{
 263:src/Riscv.cpp ****          // unexpected trap cause
 264:src/Riscv.cpp ****      }
 265:src/Riscv.cpp **** }
 107              		.loc 1 265 1
 108 0060 8330810F 		ld	ra,248(sp)
 109              		.cfi_remember_state
 110              		.cfi_restore 1
 111 0064 0334010F 		ld	s0,240(sp)
 112              		.cfi_restore 8
 113              		.cfi_def_cfa 2, 256
 114 0068 8334810E 		ld	s1,232(sp)
 115              		.cfi_restore 9
 116 006c 0339010E 		ld	s2,224(sp)
 117              		.cfi_restore 18
 118 0070 8339810D 		ld	s3,216(sp)
 119              		.cfi_restore 19
 120 0074 033A010D 		ld	s4,208(sp)
 121              		.cfi_restore 20
 122 0078 13010110 		addi	sp,sp,256
 123              		.cfi_def_cfa_offset 0
 124 007c 67800000 		jr	ra
 125              	.LVL4:
 126              	.L25:
 127              		.cfi_restore_state
  37:src/Riscv.cpp ****             uint64 sepc = r_sepc() + 4;
 128              		.loc 1 37 9 is_stmt 1
 129              	.LBB363:
 130              	.LBB157:
 131 0080 93071001 		li	a5,17
 132 0084 6388F40A 		beq	s1,a5,.L26
 133              	.L5:
 134              	.LBE157:
 135              	.LBE363:
  73:src/Riscv.cpp ****             uint64 sepc = r_sepc() + 4;
 136              		.loc 1 73 9
 137              	.LBB364:
 138              	.LBB167:
 139 0088 93071000 		li	a5,1
 140 008c 6388F410 		beq	s1,a5,.L27
 141              	.LBE167:
 142              	.LBE364:
  86:src/Riscv.cpp ****             uint64 sepc = r_sepc() + 4;
 143              		.loc 1 86 14
 144              	.LBB365:
 145              	.LBB351:
 146              	.LBB168:
 147 0090 93072000 		li	a5,2
 148 0094 6382F414 		beq	s1,a5,.L28
GAS LISTING /tmp/cci5PgaS.s 			page 10


 149              	.LBE168:
 150              	.LBE351:
 151              	.LBE365:
  98:src/Riscv.cpp ****             uint64 sepc = r_sepc() + 4;
 152              		.loc 1 98 14
 153              	.LBB366:
 154              	.LBB352:
 155              	.LBB332:
 156              	.LBB169:
 157 0098 93072001 		li	a5,18
 158 009c 638AF416 		beq	s1,a5,.L29
 159              	.LBE169:
 160              	.LBE332:
 161              	.LBE352:
 162              	.LBE366:
 110:src/Riscv.cpp ****             //thread dispatch
 163              		.loc 1 110 14
 164              	.LBB367:
 165              	.LBB353:
 166              	.LBB333:
 167              	.LBB314:
 168              	.LBB170:
 169 00a0 93073001 		li	a5,19
 170 00a4 6388F41A 		beq	s1,a5,.L30
 171              	.LBE170:
 172              	.LBE314:
 173              	.LBE333:
 174              	.LBE353:
 175              	.LBE367:
 122:src/Riscv.cpp ****             //call from yield
 176              		.loc 1 122 14
 177              	.LBB368:
 178              	.LBB354:
 179              	.LBB334:
 180              	.LBB315:
 181              	.LBB297:
 182              	.LBB171:
 183 00a8 93074000 		li	a5,4
 184 00ac 638CF41C 		beq	s1,a5,.L31
 185              	.LBE171:
 186              	.LBE297:
 187              	.LBE315:
 188              	.LBE334:
 189              	.LBE354:
 190              	.LBE368:
 133:src/Riscv.cpp ****             uint64 sepc = r_sepc() + 4;
 191              		.loc 1 133 14
 192              	.LBB369:
 193              	.LBB355:
 194              	.LBB335:
 195              	.LBB316:
 196              	.LBB298:
 197              	.LBB281:
 198              	.LBB172:
 199 00b0 93071002 		li	a5,33
 200 00b4 6386F420 		beq	s1,a5,.L32
 201              	.LBE172:
GAS LISTING /tmp/cci5PgaS.s 			page 11


 202              	.LBE281:
 203              	.LBE298:
 204              	.LBE316:
 205              	.LBE335:
 206              	.LBE355:
 207              	.LBE369:
 158:src/Riscv.cpp ****             uint64 sepc = r_sepc() + 4;
 208              		.loc 1 158 14
 209              	.LBB370:
 210              	.LBB356:
 211              	.LBB336:
 212              	.LBB317:
 213              	.LBB299:
 214              	.LBB282:
 215              	.LBB266:
 216              	.LBB173:
 217 00b8 93072002 		li	a5,34
 218 00bc 6386F426 		beq	s1,a5,.L33
 219              	.LBE173:
 220              	.LBE266:
 221              	.LBE282:
 222              	.LBE299:
 223              	.LBE317:
 224              	.LBE336:
 225              	.LBE356:
 226              	.LBE370:
 184:src/Riscv.cpp ****             uint64 sepc = r_sepc() + 4;
 227              		.loc 1 184 14
 228              	.LBB371:
 229              	.LBB357:
 230              	.LBB337:
 231              	.LBB318:
 232              	.LBB300:
 233              	.LBB283:
 234              	.LBB267:
 235              	.LBB248:
 236              	.LBB174:
 237 00c0 93073002 		li	a5,35
 238 00c4 638CF42E 		beq	s1,a5,.L34
 239              	.LBE174:
 240              	.LBE248:
 241              	.LBE267:
 242              	.LBE283:
 243              	.LBE300:
 244              	.LBE318:
 245              	.LBE337:
 246              	.LBE357:
 247              	.LBE371:
 203:src/Riscv.cpp ****             uint64 sepc = r_sepc() + 4;
 248              		.loc 1 203 14
 249              	.LBB372:
 250              	.LBB358:
 251              	.LBB338:
 252              	.LBB319:
 253              	.LBB301:
 254              	.LBB284:
 255              	.LBB268:
GAS LISTING /tmp/cci5PgaS.s 			page 12


 256              	.LBB249:
 257              	.LBB227:
 258              	.LBB175:
 259 00c8 93074002 		li	a5,36
 260 00cc 6386F432 		beq	s1,a5,.L35
 261              	.LBE175:
 262              	.LBE227:
 263              	.LBE249:
 264              	.LBE268:
 265              	.LBE284:
 266              	.LBE301:
 267              	.LBE319:
 268              	.LBE338:
 269              	.LBE358:
 270              	.LBE372:
 223:src/Riscv.cpp ****             uint64 sepc = r_sepc() + 4;
 271              		.loc 1 223 14
 272              	.LBB373:
 273              	.LBB359:
 274              	.LBB339:
 275              	.LBB320:
 276              	.LBB302:
 277              	.LBB285:
 278              	.LBB269:
 279              	.LBB250:
 280              	.LBB228:
 281              	.LBB215:
 282              	.LBB176:
 283 00d0 93071004 		li	a5,65
 284 00d4 6382F436 		beq	s1,a5,.L36
 285              	.LBE176:
 286              	.LBE215:
 287              	.LBE228:
 288              	.LBE250:
 289              	.LBE269:
 290              	.LBE285:
 291              	.LBE302:
 292              	.LBE320:
 293              	.LBE339:
 294              	.LBE359:
 295              	.LBE373:
 238:src/Riscv.cpp ****             uint64 sepc = r_sepc() + 4;
 296              		.loc 1 238 14
 297              	.LBB374:
 298              	.LBB360:
 299              	.LBB340:
 300              	.LBB321:
 301              	.LBB303:
 302              	.LBB286:
 303              	.LBB270:
 304              	.LBB251:
 305              	.LBB229:
 306              	.LBB216:
 307              	.LBB204:
 308              	.LBB177:
 309 00d8 93072004 		li	a5,66
 310 00dc E392F4F8 		bne	s1,a5,.L3
GAS LISTING /tmp/cci5PgaS.s 			page 13


 311              	.LBB178:
 239:src/Riscv.cpp ****             uint64 sstatus = r_sstatus();
 312              		.loc 1 239 13
 313              	.LBB179:
 314              	.LBB180:
 101:src/../h/Riscv.hpp **** }
 102:src/../h/Riscv.hpp **** 
 103:src/../h/Riscv.hpp **** inline void Riscv::w_scause(uint64 scause)
 104:src/../h/Riscv.hpp **** {
 105:src/../h/Riscv.hpp ****     __asm__ volatile ("csrw scause, %[scause]" : : [scause] "r"(scause));
 106:src/../h/Riscv.hpp **** }
 107:src/../h/Riscv.hpp **** 
 108:src/../h/Riscv.hpp **** inline uint64 Riscv::r_sepc()
 109:src/../h/Riscv.hpp **** {
 110:src/../h/Riscv.hpp ****     uint64 volatile sepc;
 315              		.loc 2 110 5
 111:src/../h/Riscv.hpp ****     __asm__ volatile ("csrr %[sepc], sepc" : [sepc] "=r"(sepc));
 316              		.loc 2 111 5
 317              		.loc 2 111 64 is_stmt 0
 318              	#APP
 319              	# 111 "src/../h/Riscv.hpp" 1
 112              	    return sepc;
 320              		csrr a5, sepc
 321              	# 0 "" 2
 322              	#NO_APP
 323 00e4 2334F4FC 		sd	a5,-56(s0)
 324              		.loc 2 112 5 is_stmt 1
 325              		.loc 2 112 12 is_stmt 0
 326 00e8 833484FC 		ld	s1,-56(s0)
 327              	.LVL5:
 328              	.LBE180:
 329              	.LBE179:
 239:src/Riscv.cpp ****             uint64 sstatus = r_sstatus();
 330              		.loc 1 239 38
 331 00ec 93844400 		addi	s1,s1,4
 332              	.LVL6:
 240:src/Riscv.cpp **** 
 333              		.loc 1 240 13 is_stmt 1
 334              	.LBB181:
 335              	.LBB182:
 113:src/../h/Riscv.hpp **** }
 114:src/../h/Riscv.hpp **** 
 115:src/../h/Riscv.hpp **** inline void Riscv::w_sepc(uint64 sepc)
 116:src/../h/Riscv.hpp **** {
 117:src/../h/Riscv.hpp ****     __asm__ volatile ("csrw sepc, %[sepc]" : : [sepc] "r"(sepc));
 118:src/../h/Riscv.hpp **** }
 119:src/../h/Riscv.hpp **** 
 120:src/../h/Riscv.hpp **** inline uint64 Riscv::r_stvec()
 121:src/../h/Riscv.hpp **** {
 122:src/../h/Riscv.hpp ****     uint64 volatile stvec;
 123:src/../h/Riscv.hpp ****     __asm__ volatile ("csrr %[stvec], stvec" : [stvec] "=r"(stvec));
 124:src/../h/Riscv.hpp ****     return stvec;
 125:src/../h/Riscv.hpp **** }
 126:src/../h/Riscv.hpp **** 
 127:src/../h/Riscv.hpp **** inline void Riscv::w_stvec(uint64 stvec)
 128:src/../h/Riscv.hpp **** {
 129:src/../h/Riscv.hpp ****     __asm__ volatile ("csrw stvec, %[stvec]" : : [stvec] "r"(stvec));
GAS LISTING /tmp/cci5PgaS.s 			page 14


 130:src/../h/Riscv.hpp **** }
 131:src/../h/Riscv.hpp **** 
 132:src/../h/Riscv.hpp **** inline uint64 Riscv::r_stval()
 133:src/../h/Riscv.hpp **** {
 134:src/../h/Riscv.hpp ****     uint64 volatile stval;
 135:src/../h/Riscv.hpp ****     __asm__ volatile ("csrr %[stval], stval" : [stval] "=r"(stval));
 136:src/../h/Riscv.hpp ****     return stval;
 137:src/../h/Riscv.hpp **** }
 138:src/../h/Riscv.hpp **** 
 139:src/../h/Riscv.hpp **** inline void Riscv::w_stval(uint64 stval)
 140:src/../h/Riscv.hpp **** {
 141:src/../h/Riscv.hpp ****     __asm__ volatile ("csrw stval, %[stval]" : : [stval] "r"(stval));
 142:src/../h/Riscv.hpp **** }
 143:src/../h/Riscv.hpp **** 
 144:src/../h/Riscv.hpp **** inline void Riscv::ms_sip(uint64 mask)
 145:src/../h/Riscv.hpp **** {
 146:src/../h/Riscv.hpp ****     __asm__ volatile ("csrs sip, %[mask]" : : [mask] "r"(mask));
 147:src/../h/Riscv.hpp **** }
 148:src/../h/Riscv.hpp **** 
 149:src/../h/Riscv.hpp **** inline void Riscv::mc_sip(uint64 mask)
 150:src/../h/Riscv.hpp **** {
 151:src/../h/Riscv.hpp ****     __asm__ volatile ("csrc sip, %[mask]" : : [mask] "r"(mask));
 152:src/../h/Riscv.hpp **** }
 153:src/../h/Riscv.hpp **** 
 154:src/../h/Riscv.hpp **** inline uint64 Riscv::r_sip()
 155:src/../h/Riscv.hpp **** {
 156:src/../h/Riscv.hpp ****     uint64 volatile sip;
 157:src/../h/Riscv.hpp ****     __asm__ volatile ("csrr %[sip], sip" : [sip] "=r"(sip));
 158:src/../h/Riscv.hpp ****     return sip;
 159:src/../h/Riscv.hpp **** }
 160:src/../h/Riscv.hpp **** 
 161:src/../h/Riscv.hpp **** inline void Riscv::w_sip(uint64 sip)
 162:src/../h/Riscv.hpp **** {
 163:src/../h/Riscv.hpp ****     __asm__ volatile ("csrw sip, %[sip]" : : [sip] "r"(sip));
 164:src/../h/Riscv.hpp **** }
 165:src/../h/Riscv.hpp **** 
 166:src/../h/Riscv.hpp **** //mask set
 167:src/../h/Riscv.hpp **** inline void Riscv::ms_sstatus(uint64 mask)
 168:src/../h/Riscv.hpp **** {
 169:src/../h/Riscv.hpp ****     __asm__ volatile ("csrs sstatus, %[mask]" : : [mask] "r"(mask));
 170:src/../h/Riscv.hpp **** }
 171:src/../h/Riscv.hpp **** 
 172:src/../h/Riscv.hpp **** //mask clear
 173:src/../h/Riscv.hpp **** inline void Riscv::mc_sstatus(uint64 mask)
 174:src/../h/Riscv.hpp **** {
 175:src/../h/Riscv.hpp ****     __asm__ volatile ("csrc sstatus, %[mask]" : : [mask] "r"(mask));
 176:src/../h/Riscv.hpp **** }
 177:src/../h/Riscv.hpp **** 
 178:src/../h/Riscv.hpp **** inline uint64 Riscv::r_sstatus()
 179:src/../h/Riscv.hpp **** {
 180:src/../h/Riscv.hpp ****     uint64 volatile sstatus;
 336              		.loc 2 180 5
 181:src/../h/Riscv.hpp ****     __asm__ volatile ("csrr %[sstatus], sstatus" : [sstatus] "=r"(sstatus));
 337              		.loc 2 181 5
 338              		.loc 2 181 76 is_stmt 0
 339              	#APP
 340              	# 181 "src/../h/Riscv.hpp" 1
GAS LISTING /tmp/cci5PgaS.s 			page 15


 182              	    return sstatus;
 341              		csrr a5, sstatus
 342              	# 0 "" 2
 343              	#NO_APP
 344 00f4 2330F4FC 		sd	a5,-64(s0)
 345              		.loc 2 182 5 is_stmt 1
 346              		.loc 2 182 12 is_stmt 0
 347 00f8 033904FC 		ld	s2,-64(s0)
 348              	.LVL7:
 349              	.LBE182:
 350              	.LBE181:
 242:src/Riscv.cpp ****             __asm__ volatile("ld a1, 11*8(fp)"); //a1
 351              		.loc 1 242 13 is_stmt 1
 243:src/Riscv.cpp **** 
 352              		.loc 1 243 13
 243:src/Riscv.cpp **** 
 353              		.loc 1 243 48 is_stmt 0
 354              	#APP
 355              	# 243 "src/Riscv.cpp" 1
 245:src/Riscv.cpp **** 
 356              		ld a1, 11*8(fp)
 357              	# 0 "" 2
 358              		.loc 1 245 13 is_stmt 1
 245:src/Riscv.cpp **** 
 359              		.loc 1 245 53 is_stmt 0
 360              	# 245 "src/Riscv.cpp" 1
 361              		mv a0, a1
 362              	# 0 "" 2
 363              	#NO_APP
 364 0104 1375F50F 		andi	a0,a0,0xff
 365              	.LVL8:
 247:src/Riscv.cpp ****             __putc(c);
 366              		.loc 1 247 13 is_stmt 1
 247:src/Riscv.cpp ****             __putc(c);
 367              		.loc 1 247 27 is_stmt 0
 368 0108 97070000 		la	a5,_ZN5Riscv11TrapConsoleEv
 368      83B70700 
 369              	.LVL9:
 370              	.LBB183:
 371              	.LBB184:
 129:src/../h/Riscv.hpp **** }
 372              		.loc 2 129 5 is_stmt 1
 129:src/../h/Riscv.hpp **** }
 373              		.loc 2 129 69 is_stmt 0
 374              	#APP
 375              	# 129 "src/../h/Riscv.hpp" 1
 376              		csrw stvec, a5
 377              	# 0 "" 2
 378              	.LVL10:
 379              	#NO_APP
 380              	.LBE184:
 381              	.LBE183:
 248:src/Riscv.cpp ****             Riscv::w_stvec((uint64)&Riscv::supervisorTrap);
 382              		.loc 1 248 13 is_stmt 1
 248:src/Riscv.cpp ****             Riscv::w_stvec((uint64)&Riscv::supervisorTrap);
 383              		.loc 1 248 19 is_stmt 0
 384 0114 97000000 		call	__putc@plt
GAS LISTING /tmp/cci5PgaS.s 			page 16


 384      E7800000 
 385              	.LVL11:
 249:src/Riscv.cpp **** 
 386              		.loc 1 249 13 is_stmt 1
 249:src/Riscv.cpp **** 
 387              		.loc 1 249 27 is_stmt 0
 388 011c 97070000 		la	a5,_ZN5Riscv14supervisorTrapEv
 388      83B70700 
 389              	.LVL12:
 390              	.LBB185:
 391              	.LBB186:
 129:src/../h/Riscv.hpp **** }
 392              		.loc 2 129 5 is_stmt 1
 129:src/../h/Riscv.hpp **** }
 393              		.loc 2 129 69 is_stmt 0
 394              	#APP
 395              	# 129 "src/../h/Riscv.hpp" 1
 396              		csrw stvec, a5
 397              	# 0 "" 2
 398              	.LVL13:
 399              	#NO_APP
 400              	.LBE186:
 401              	.LBE185:
 251:src/Riscv.cpp ****             w_sepc(sepc);
 402              		.loc 1 251 13 is_stmt 1
 403              	.LBB187:
 404              	.LBB188:
 183:src/../h/Riscv.hpp **** }
 184:src/../h/Riscv.hpp **** 
 185:src/../h/Riscv.hpp **** inline void Riscv::w_sstatus(uint64 sstatus)
 186:src/../h/Riscv.hpp **** {
 187:src/../h/Riscv.hpp ****     __asm__ volatile ("csrw sstatus, %[sstatus]" : : [sstatus] "r"(sstatus));
 405              		.loc 2 187 5
 406              		.loc 2 187 77 is_stmt 0
 407              	#APP
 408              	# 187 "src/../h/Riscv.hpp" 1
 188              	}
 409              		csrw sstatus, s2
 410              	# 0 "" 2
 411              	.LVL14:
 412              	#NO_APP
 413              	.LBE188:
 414              	.LBE187:
 252:src/Riscv.cpp ****         }
 415              		.loc 1 252 13 is_stmt 1
 416              	.LBB189:
 417              	.LBB190:
 117:src/../h/Riscv.hpp **** }
 418              		.loc 2 117 5
 117:src/../h/Riscv.hpp **** }
 419              		.loc 2 117 65 is_stmt 0
 420              	#APP
 421              	# 117 "src/../h/Riscv.hpp" 1
 422              		csrw sepc, s1
 423              	# 0 "" 2
 424              	.LVL15:
 425              	#NO_APP
GAS LISTING /tmp/cci5PgaS.s 			page 17


 426              	.LBE190:
 427              	.LBE189:
 428              	.LBE178:
 429              	.LBE177:
 430              	.LBE204:
 431              	.LBE216:
 432              	.LBE229:
 433              	.LBE251:
 434              	.LBE270:
 435              	.LBE286:
 436              	.LBE303:
 437              	.LBE321:
 438              	.LBE340:
 439              	.LBE360:
 440              	.LBE374:
 441              		.loc 1 265 1
 442 0130 6FF01FF3 		j	.L3
 443              	.LVL16:
 444              	.L26:
 445              	.LBB375:
 446              	.LBB361:
 447              	.LBB158:
  38:src/Riscv.cpp ****             uint64 sstatus = r_sstatus();
 448              		.loc 1 38 13 is_stmt 1
 449              	.LBB159:
 450              	.LBB160:
 110:src/../h/Riscv.hpp ****     __asm__ volatile ("csrr %[sepc], sepc" : [sepc] "=r"(sepc));
 451              		.loc 2 110 5
 111:src/../h/Riscv.hpp ****     return sepc;
 452              		.loc 2 111 5
 111:src/../h/Riscv.hpp ****     return sepc;
 453              		.loc 2 111 64 is_stmt 0
 454              	#APP
 455              	# 111 "src/../h/Riscv.hpp" 1
 456              		csrr a5, sepc
 457              	# 0 "" 2
 458              	#NO_APP
 459 0138 233CF4F0 		sd	a5,-232(s0)
 112:src/../h/Riscv.hpp **** }
 460              		.loc 2 112 5 is_stmt 1
 112:src/../h/Riscv.hpp **** }
 461              		.loc 2 112 12 is_stmt 0
 462 013c 033984F1 		ld	s2,-232(s0)
 463              	.LBE160:
 464              	.LBE159:
  38:src/Riscv.cpp ****             uint64 sstatus = r_sstatus();
 465              		.loc 1 38 38
 466 0140 13094900 		addi	s2,s2,4
 467              	.LVL17:
  39:src/Riscv.cpp **** 
 468              		.loc 1 39 13 is_stmt 1
 469              	.LBB161:
 470              	.LBB162:
 180:src/../h/Riscv.hpp ****     __asm__ volatile ("csrr %[sstatus], sstatus" : [sstatus] "=r"(sstatus));
 471              		.loc 2 180 5
 181:src/../h/Riscv.hpp ****     return sstatus;
 472              		.loc 2 181 5
GAS LISTING /tmp/cci5PgaS.s 			page 18


 181:src/../h/Riscv.hpp ****     return sstatus;
 473              		.loc 2 181 76 is_stmt 0
 474              	#APP
 475              	# 181 "src/../h/Riscv.hpp" 1
 476              		csrr a5, sstatus
 477              	# 0 "" 2
 478              	#NO_APP
 479 0148 2338F4F0 		sd	a5,-240(s0)
 182:src/../h/Riscv.hpp **** }
 480              		.loc 2 182 5 is_stmt 1
 182:src/../h/Riscv.hpp **** }
 481              		.loc 2 182 12 is_stmt 0
 482 014c 833904F1 		ld	s3,-240(s0)
 483              	.LVL18:
 484              	.LBE162:
 485              	.LBE161:
  42:src/Riscv.cpp ****             _thread::Body arg2;
 486              		.loc 1 42 13 is_stmt 1
  43:src/Riscv.cpp ****             uint64 arg3;
 487              		.loc 1 43 13
  44:src/Riscv.cpp ****             uint64 *arg4;
 488              		.loc 1 44 13
  45:src/Riscv.cpp **** 
 489              		.loc 1 45 13
  47:src/Riscv.cpp ****             __asm__ volatile("ld a2, 12*8(fp)"); //a2
 490              		.loc 1 47 13
  47:src/Riscv.cpp ****             __asm__ volatile("ld a2, 12*8(fp)"); //a2
 491              		.loc 1 47 48 is_stmt 0
 492              	#APP
 493              	# 47 "src/Riscv.cpp" 1
  48:src/Riscv.cpp ****             __asm__ volatile("ld a3, 13*8(fp)"); //a3
 494              		ld a1, 11*8(fp)
 495              	# 0 "" 2
 496              		.loc 1 48 13 is_stmt 1
  48:src/Riscv.cpp ****             __asm__ volatile("ld a3, 13*8(fp)"); //a3
 497              		.loc 1 48 48 is_stmt 0
 498              	# 48 "src/Riscv.cpp" 1
  49:src/Riscv.cpp ****             __asm__ volatile("ld a4, 14*8(fp)"); //a4
 499              		ld a2, 12*8(fp)
 500              	# 0 "" 2
 501              		.loc 1 49 13 is_stmt 1
  49:src/Riscv.cpp ****             __asm__ volatile("ld a4, 14*8(fp)"); //a4
 502              		.loc 1 49 48 is_stmt 0
 503              	# 49 "src/Riscv.cpp" 1
  50:src/Riscv.cpp **** 
 504              		ld a3, 13*8(fp)
 505              	# 0 "" 2
 506              		.loc 1 50 13 is_stmt 1
  50:src/Riscv.cpp **** 
 507              		.loc 1 50 48 is_stmt 0
 508              	# 50 "src/Riscv.cpp" 1
  53:src/Riscv.cpp ****             __asm__ volatile("mv %0, a2" : "=r" (arg2));    //start routine
 509              		ld a4, 14*8(fp)
 510              	# 0 "" 2
 511              		.loc 1 53 13 is_stmt 1
  53:src/Riscv.cpp ****             __asm__ volatile("mv %0, a2" : "=r" (arg2));    //start routine
 512              		.loc 1 53 56 is_stmt 0
GAS LISTING /tmp/cci5PgaS.s 			page 19


 513              	# 53 "src/Riscv.cpp" 1
 514              		mv s4, a1
 515              	# 0 "" 2
 516              	.LVL19:
  54:src/Riscv.cpp ****             __asm__ volatile("mv %0, a3" : "=r" (arg3));    //argument of start routine
 517              		.loc 1 54 13 is_stmt 1
  54:src/Riscv.cpp ****             __asm__ volatile("mv %0, a3" : "=r" (arg3));    //argument of start routine
 518              		.loc 1 54 56 is_stmt 0
 519              	# 54 "src/Riscv.cpp" 1
 520              		mv a0, a2
 521              	# 0 "" 2
 522              	.LVL20:
  55:src/Riscv.cpp ****             __asm__ volatile("mv %0, a4" : "=r" (arg4));    //stack
 523              		.loc 1 55 13 is_stmt 1
  55:src/Riscv.cpp ****             __asm__ volatile("mv %0, a4" : "=r" (arg4));    //stack
 524              		.loc 1 55 56 is_stmt 0
 525              	# 55 "src/Riscv.cpp" 1
 526              		mv a1, a3
 527              	# 0 "" 2
 528              	.LVL21:
  56:src/Riscv.cpp **** 
 529              		.loc 1 56 13 is_stmt 1
  56:src/Riscv.cpp **** 
 530              		.loc 1 56 56 is_stmt 0
 531              	# 56 "src/Riscv.cpp" 1
 532              		mv a2, a4
 533              	# 0 "" 2
 534              	.LVL22:
  59:src/Riscv.cpp ****             *arg1=t;
 535              		.loc 1 59 13 is_stmt 1
  59:src/Riscv.cpp ****             *arg1=t;
 536              		.loc 1 59 47 is_stmt 0
 537              	#NO_APP
 538 0170 97000000 		call	_ZN7_thread12createThreadEPFvPvES0_Pm@plt
 538      E7800000 
 539              	.LVL23:
  60:src/Riscv.cpp **** 
 540              		.loc 1 60 13 is_stmt 1
  60:src/Riscv.cpp **** 
 541              		.loc 1 60 18 is_stmt 0
 542 0178 2330AA00 		sd	a0,0(s4)
  62:src/Riscv.cpp ****             if(t!= nullptr)ret=0;
 543              		.loc 1 62 13 is_stmt 1
  63:src/Riscv.cpp ****             else ret =-1;
 544              		.loc 1 63 13
 545 017c 630C0500 		beqz	a0,.L22
  63:src/Riscv.cpp ****             else ret =-1;
 546              		.loc 1 63 31 is_stmt 0
 547 0180 93070000 		li	a5,0
 548              	.L6:
 549              	.LVL24:
  68:src/Riscv.cpp **** 
 550              		.loc 1 68 13 is_stmt 1
  68:src/Riscv.cpp **** 
 551              		.loc 1 68 56 is_stmt 0
 552              	#APP
 553              	# 68 "src/Riscv.cpp" 1
GAS LISTING /tmp/cci5PgaS.s 			page 20


  70:src/Riscv.cpp ****             w_sepc(sepc);
 554              		mv a0, a5
 555              	# 0 "" 2
 556              		.loc 1 70 13 is_stmt 1
 557              	.LVL25:
 558              	#NO_APP
 559              	.LBB163:
 560              	.LBB164:
 187:src/../h/Riscv.hpp **** }
 561              		.loc 2 187 5
 187:src/../h/Riscv.hpp **** }
 562              		.loc 2 187 77 is_stmt 0
 563              	#APP
 564              	# 187 "src/../h/Riscv.hpp" 1
 565              		csrw sstatus, s3
 566              	# 0 "" 2
 567              	.LVL26:
 568              	#NO_APP
 569              	.LBE164:
 570              	.LBE163:
  71:src/Riscv.cpp ****         }
 571              		.loc 1 71 13 is_stmt 1
 572              	.LBB165:
 573              	.LBB166:
 117:src/../h/Riscv.hpp **** }
 574              		.loc 2 117 5
 117:src/../h/Riscv.hpp **** }
 575              		.loc 2 117 65 is_stmt 0
 576              	#APP
 577              	# 117 "src/../h/Riscv.hpp" 1
 118:src/../h/Riscv.hpp **** 
 578              		csrw sepc, s2
 579              	# 0 "" 2
 580              		.loc 2 118 1
 581              	#NO_APP
 582 0190 6FF09FEF 		j	.L5
 583              	.LVL27:
 584              	.L22:
 585              	.LBE166:
 586              	.LBE165:
  64:src/Riscv.cpp **** 
 587              		.loc 1 64 22
 588 0194 9307F0FF 		li	a5,-1
 589 0198 6FF0DFFE 		j	.L6
 590              	.LVL28:
 591              	.L27:
 592              	.LBE158:
 593              	.LBE361:
 594              	.LBB362:
 595              	.LBB341:
  74:src/Riscv.cpp ****             uint64 sstatus = r_sstatus();
 596              		.loc 1 74 13 is_stmt 1
 597              	.LBB342:
 598              	.LBB343:
 110:src/../h/Riscv.hpp ****     __asm__ volatile ("csrr %[sepc], sepc" : [sepc] "=r"(sepc));
 599              		.loc 2 110 5
 111:src/../h/Riscv.hpp ****     return sepc;
GAS LISTING /tmp/cci5PgaS.s 			page 21


 600              		.loc 2 111 5
 111:src/../h/Riscv.hpp ****     return sepc;
 601              		.loc 2 111 64 is_stmt 0
 602              	#APP
 603              	# 111 "src/../h/Riscv.hpp" 1
 604              		csrr a5, sepc
 605              	# 0 "" 2
 606              	#NO_APP
 607 01a0 2334F4F2 		sd	a5,-216(s0)
 112:src/../h/Riscv.hpp **** }
 608              		.loc 2 112 5 is_stmt 1
 112:src/../h/Riscv.hpp **** }
 609              		.loc 2 112 12 is_stmt 0
 610 01a4 833484F2 		ld	s1,-216(s0)
 611              	.LVL29:
 612              	.LBE343:
 613              	.LBE342:
  74:src/Riscv.cpp ****             uint64 sstatus = r_sstatus();
 614              		.loc 1 74 38
 615 01a8 93844400 		addi	s1,s1,4
 616              	.LVL30:
  75:src/Riscv.cpp ****             //kmem_alloc
 617              		.loc 1 75 13 is_stmt 1
 618              	.LBB344:
 619              	.LBB345:
 180:src/../h/Riscv.hpp ****     __asm__ volatile ("csrr %[sstatus], sstatus" : [sstatus] "=r"(sstatus));
 620              		.loc 2 180 5
 181:src/../h/Riscv.hpp ****     return sstatus;
 621              		.loc 2 181 5
 181:src/../h/Riscv.hpp ****     return sstatus;
 622              		.loc 2 181 76 is_stmt 0
 623              	#APP
 624              	# 181 "src/../h/Riscv.hpp" 1
 625              		csrr a5, sstatus
 626              	# 0 "" 2
 627              	#NO_APP
 628 01b0 2330F4F2 		sd	a5,-224(s0)
 182:src/../h/Riscv.hpp **** }
 629              		.loc 2 182 5 is_stmt 1
 182:src/../h/Riscv.hpp **** }
 630              		.loc 2 182 12 is_stmt 0
 631 01b4 033904F2 		ld	s2,-224(s0)
 632              	.LVL31:
 633              	.LBE345:
 634              	.LBE344:
  77:src/Riscv.cpp ****             uint64 ptr= (uint64) MemoryAllocator::kmem_alloc(arg1*MEM_BLOCK_SIZE);
 635              		.loc 1 77 13 is_stmt 1
  77:src/Riscv.cpp ****             uint64 ptr= (uint64) MemoryAllocator::kmem_alloc(arg1*MEM_BLOCK_SIZE);
 636              		.loc 1 77 56 is_stmt 0
 637              	#APP
 638              	# 77 "src/Riscv.cpp" 1
 639              		mv a0, a1
 640              	# 0 "" 2
 641              	.LVL32:
  78:src/Riscv.cpp **** 
 642              		.loc 1 78 13 is_stmt 1
  78:src/Riscv.cpp **** 
GAS LISTING /tmp/cci5PgaS.s 			page 22


 643              		.loc 1 78 61 is_stmt 0
 644              	#NO_APP
 645 01bc 13156500 		slli	a0,a0,6
 646              	.LVL33:
 647 01c0 97000000 		call	_ZN15MemoryAllocator10kmem_allocEm@plt
 647      E7800000 
 648              	.LVL34:
  81:src/Riscv.cpp **** 
 649              		.loc 1 81 13 is_stmt 1
  81:src/Riscv.cpp **** 
 650              		.loc 1 81 56 is_stmt 0
 651              	#APP
 652              	# 81 "src/Riscv.cpp" 1
  83:src/Riscv.cpp ****             w_sepc(sepc);
 653              		mv a0, a0
 654              	# 0 "" 2
 655              		.loc 1 83 13 is_stmt 1
 656              	.LVL35:
 657              	#NO_APP
 658              	.LBB346:
 659              	.LBB347:
 187:src/../h/Riscv.hpp **** }
 660              		.loc 2 187 5
 187:src/../h/Riscv.hpp **** }
 661              		.loc 2 187 77 is_stmt 0
 662              	#APP
 663              	# 187 "src/../h/Riscv.hpp" 1
 664              		csrw sstatus, s2
 665              	# 0 "" 2
 666              	.LVL36:
 667              	#NO_APP
 668              	.LBE347:
 669              	.LBE346:
  84:src/Riscv.cpp ****         }
 670              		.loc 1 84 13 is_stmt 1
 671              	.LBB348:
 672              	.LBB349:
 117:src/../h/Riscv.hpp **** }
 673              		.loc 2 117 5
 117:src/../h/Riscv.hpp **** }
 674              		.loc 2 117 65 is_stmt 0
 675              	#APP
 676              	# 117 "src/../h/Riscv.hpp" 1
 118:src/../h/Riscv.hpp **** 
 677              		csrw sepc, s1
 678              	# 0 "" 2
 679              		.loc 2 118 1
 680              	#NO_APP
 681 01d4 6FF0DFE8 		j	.L3
 682              	.LVL37:
 683              	.L28:
 684              	.LBE349:
 685              	.LBE348:
 686              	.LBE341:
 687              	.LBB350:
 688              	.LBB322:
  87:src/Riscv.cpp ****             uint64 sstatus = r_sstatus();
GAS LISTING /tmp/cci5PgaS.s 			page 23


 689              		.loc 1 87 13 is_stmt 1
 690              	.LBB323:
 691              	.LBB324:
 110:src/../h/Riscv.hpp ****     __asm__ volatile ("csrr %[sepc], sepc" : [sepc] "=r"(sepc));
 692              		.loc 2 110 5
 111:src/../h/Riscv.hpp ****     return sepc;
 693              		.loc 2 111 5
 111:src/../h/Riscv.hpp ****     return sepc;
 694              		.loc 2 111 64 is_stmt 0
 695              	#APP
 696              	# 111 "src/../h/Riscv.hpp" 1
 697              		csrr a5, sepc
 698              	# 0 "" 2
 699              	#NO_APP
 700 01dc 233CF4F2 		sd	a5,-200(s0)
 112:src/../h/Riscv.hpp **** }
 701              		.loc 2 112 5 is_stmt 1
 112:src/../h/Riscv.hpp **** }
 702              		.loc 2 112 12 is_stmt 0
 703 01e0 833484F3 		ld	s1,-200(s0)
 704              	.LVL38:
 705              	.LBE324:
 706              	.LBE323:
  87:src/Riscv.cpp ****             uint64 sstatus = r_sstatus();
 707              		.loc 1 87 38
 708 01e4 93844400 		addi	s1,s1,4
 709              	.LVL39:
  88:src/Riscv.cpp **** 
 710              		.loc 1 88 13 is_stmt 1
 711              	.LBB325:
 712              	.LBB326:
 180:src/../h/Riscv.hpp ****     __asm__ volatile ("csrr %[sstatus], sstatus" : [sstatus] "=r"(sstatus));
 713              		.loc 2 180 5
 181:src/../h/Riscv.hpp ****     return sstatus;
 714              		.loc 2 181 5
 181:src/../h/Riscv.hpp ****     return sstatus;
 715              		.loc 2 181 76 is_stmt 0
 716              	#APP
 717              	# 181 "src/../h/Riscv.hpp" 1
 718              		csrr a5, sstatus
 719              	# 0 "" 2
 720              	#NO_APP
 721 01ec 2338F4F2 		sd	a5,-208(s0)
 182:src/../h/Riscv.hpp **** }
 722              		.loc 2 182 5 is_stmt 1
 182:src/../h/Riscv.hpp **** }
 723              		.loc 2 182 12 is_stmt 0
 724 01f0 033904F3 		ld	s2,-208(s0)
 725              	.LVL40:
 726              	.LBE326:
 727              	.LBE325:
  90:src/Riscv.cpp ****             int ret = MemoryAllocator::kmem_free((void *) arg1);
 728              		.loc 1 90 13 is_stmt 1
  90:src/Riscv.cpp ****             int ret = MemoryAllocator::kmem_free((void *) arg1);
 729              		.loc 1 90 56 is_stmt 0
 730              	#APP
 731              	# 90 "src/Riscv.cpp" 1
GAS LISTING /tmp/cci5PgaS.s 			page 24


 732              		mv a0, a1
 733              	# 0 "" 2
 734              	.LVL41:
  91:src/Riscv.cpp ****             __asm__ volatile("mv a0, %0" : : "r" (ret));
 735              		.loc 1 91 13 is_stmt 1
  91:src/Riscv.cpp ****             __asm__ volatile("mv a0, %0" : : "r" (ret));
 736              		.loc 1 91 49 is_stmt 0
 737              	#NO_APP
 738 01f8 97000000 		call	_ZN15MemoryAllocator9kmem_freeEPv@plt
 738      E7800000 
 739              	.LVL42:
  92:src/Riscv.cpp **** 
 740              		.loc 1 92 13 is_stmt 1
  92:src/Riscv.cpp **** 
 741              		.loc 1 92 56 is_stmt 0
 742              	#APP
 743              	# 92 "src/Riscv.cpp" 1
  94:src/Riscv.cpp ****             w_sepc(sepc);
 744              		mv a0, a0
 745              	# 0 "" 2
 746              		.loc 1 94 13 is_stmt 1
 747              	.LVL43:
 748              	#NO_APP
 749              	.LBB327:
 750              	.LBB328:
 187:src/../h/Riscv.hpp **** }
 751              		.loc 2 187 5
 187:src/../h/Riscv.hpp **** }
 752              		.loc 2 187 77 is_stmt 0
 753              	#APP
 754              	# 187 "src/../h/Riscv.hpp" 1
 755              		csrw sstatus, s2
 756              	# 0 "" 2
 757              	.LVL44:
 758              	#NO_APP
 759              	.LBE328:
 760              	.LBE327:
  95:src/Riscv.cpp ****         }
 761              		.loc 1 95 13 is_stmt 1
 762              	.LBB329:
 763              	.LBB330:
 117:src/../h/Riscv.hpp **** }
 764              		.loc 2 117 5
 117:src/../h/Riscv.hpp **** }
 765              		.loc 2 117 65 is_stmt 0
 766              	#APP
 767              	# 117 "src/../h/Riscv.hpp" 1
 118:src/../h/Riscv.hpp **** 
 768              		csrw sepc, s1
 769              	# 0 "" 2
 770              		.loc 2 118 1
 771              	#NO_APP
 772 020c 6FF05FE5 		j	.L3
 773              	.LVL45:
 774              	.L29:
 775              	.LBE330:
 776              	.LBE329:
GAS LISTING /tmp/cci5PgaS.s 			page 25


 777              	.LBE322:
 778              	.LBB331:
 779              	.LBB304:
  99:src/Riscv.cpp ****             uint64 sstatus = r_sstatus();
 780              		.loc 1 99 13 is_stmt 1
 781              	.LBB305:
 782              	.LBB306:
 110:src/../h/Riscv.hpp ****     __asm__ volatile ("csrr %[sepc], sepc" : [sepc] "=r"(sepc));
 783              		.loc 2 110 5
 111:src/../h/Riscv.hpp ****     return sepc;
 784              		.loc 2 111 5
 111:src/../h/Riscv.hpp ****     return sepc;
 785              		.loc 2 111 64 is_stmt 0
 786              	#APP
 787              	# 111 "src/../h/Riscv.hpp" 1
 788              		csrr a5, sepc
 789              	# 0 "" 2
 790              	#NO_APP
 791 0214 2334F4F4 		sd	a5,-184(s0)
 112:src/../h/Riscv.hpp **** }
 792              		.loc 2 112 5 is_stmt 1
 112:src/../h/Riscv.hpp **** }
 793              		.loc 2 112 12 is_stmt 0
 794 0218 833484F4 		ld	s1,-184(s0)
 795              	.LVL46:
 796              	.LBE306:
 797              	.LBE305:
  99:src/Riscv.cpp ****             uint64 sstatus = r_sstatus();
 798              		.loc 1 99 38
 799 021c 93844400 		addi	s1,s1,4
 800              	.LVL47:
 100:src/Riscv.cpp **** 
 801              		.loc 1 100 13 is_stmt 1
 802              	.LBB307:
 803              	.LBB308:
 180:src/../h/Riscv.hpp ****     __asm__ volatile ("csrr %[sstatus], sstatus" : [sstatus] "=r"(sstatus));
 804              		.loc 2 180 5
 181:src/../h/Riscv.hpp ****     return sstatus;
 805              		.loc 2 181 5
 181:src/../h/Riscv.hpp ****     return sstatus;
 806              		.loc 2 181 76 is_stmt 0
 807              	#APP
 808              	# 181 "src/../h/Riscv.hpp" 1
 809              		csrr a5, sstatus
 810              	# 0 "" 2
 811              	#NO_APP
 812 0224 2330F4F4 		sd	a5,-192(s0)
 182:src/../h/Riscv.hpp **** }
 813              		.loc 2 182 5 is_stmt 1
 182:src/../h/Riscv.hpp **** }
 814              		.loc 2 182 12 is_stmt 0
 815 0228 033904F4 		ld	s2,-192(s0)
 816              	.LVL48:
 817              	.LBE308:
 818              	.LBE307:
 102:src/Riscv.cpp ****             _thread::dispatch();
 819              		.loc 1 102 13 is_stmt 1
GAS LISTING /tmp/cci5PgaS.s 			page 26


 102:src/Riscv.cpp ****             _thread::dispatch();
 820              		.loc 1 102 31 is_stmt 0
 821 022c 97070000 		la	a5,_ZN7_thread7runningE
 821      83B70700 
 822 0234 83B70700 		ld	a5,0(a5)
 102:src/Riscv.cpp ****             _thread::dispatch();
 823              		.loc 1 102 39
 824 0238 13071000 		li	a4,1
 825 023c 2384E702 		sb	a4,40(a5)
 103:src/Riscv.cpp **** 
 826              		.loc 1 103 13 is_stmt 1
 103:src/Riscv.cpp **** 
 827              		.loc 1 103 30 is_stmt 0
 828 0240 97000000 		call	_ZN7_thread8dispatchEv@plt
 828      E7800000 
 829              	.LVL49:
 105:src/Riscv.cpp ****             w_sepc(sepc);
 830              		.loc 1 105 13 is_stmt 1
 831              	.LBB309:
 832              	.LBB310:
 187:src/../h/Riscv.hpp **** }
 833              		.loc 2 187 5
 187:src/../h/Riscv.hpp **** }
 834              		.loc 2 187 77 is_stmt 0
 835              	#APP
 836              	# 187 "src/../h/Riscv.hpp" 1
 837              		csrw sstatus, s2
 838              	# 0 "" 2
 839              	.LVL50:
 840              	#NO_APP
 841              	.LBE310:
 842              	.LBE309:
 106:src/Riscv.cpp **** 
 843              		.loc 1 106 13 is_stmt 1
 844              	.LBB311:
 845              	.LBB312:
 117:src/../h/Riscv.hpp **** }
 846              		.loc 2 117 5
 117:src/../h/Riscv.hpp **** }
 847              		.loc 2 117 65 is_stmt 0
 848              	#APP
 849              	# 117 "src/../h/Riscv.hpp" 1
 118:src/../h/Riscv.hpp **** 
 850              		csrw sepc, s1
 851              	# 0 "" 2
 852              		.loc 2 118 1
 853              	#NO_APP
 854 0250 6FF01FE1 		j	.L3
 855              	.LVL51:
 856              	.L30:
 857              	.LBE312:
 858              	.LBE311:
 859              	.LBE304:
 860              	.LBB313:
 861              	.LBB287:
 112:src/Riscv.cpp ****             uint64 sstatus = r_sstatus();
 862              		.loc 1 112 13 is_stmt 1
GAS LISTING /tmp/cci5PgaS.s 			page 27


 863              	.LBB288:
 864              	.LBB289:
 110:src/../h/Riscv.hpp ****     __asm__ volatile ("csrr %[sepc], sepc" : [sepc] "=r"(sepc));
 865              		.loc 2 110 5
 111:src/../h/Riscv.hpp ****     return sepc;
 866              		.loc 2 111 5
 111:src/../h/Riscv.hpp ****     return sepc;
 867              		.loc 2 111 64 is_stmt 0
 868              	#APP
 869              	# 111 "src/../h/Riscv.hpp" 1
 870              		csrr a5, sepc
 871              	# 0 "" 2
 872              	#NO_APP
 873 0258 233CF4F4 		sd	a5,-168(s0)
 112:src/../h/Riscv.hpp **** }
 874              		.loc 2 112 5 is_stmt 1
 112:src/../h/Riscv.hpp **** }
 875              		.loc 2 112 12 is_stmt 0
 876 025c 833484F5 		ld	s1,-168(s0)
 877              	.LVL52:
 878              	.LBE289:
 879              	.LBE288:
 112:src/Riscv.cpp ****             uint64 sstatus = r_sstatus();
 880              		.loc 1 112 38
 881 0260 93844400 		addi	s1,s1,4
 882              	.LVL53:
 113:src/Riscv.cpp **** 
 883              		.loc 1 113 13 is_stmt 1
 884              	.LBB290:
 885              	.LBB291:
 180:src/../h/Riscv.hpp ****     __asm__ volatile ("csrr %[sstatus], sstatus" : [sstatus] "=r"(sstatus));
 886              		.loc 2 180 5
 181:src/../h/Riscv.hpp ****     return sstatus;
 887              		.loc 2 181 5
 181:src/../h/Riscv.hpp ****     return sstatus;
 888              		.loc 2 181 76 is_stmt 0
 889              	#APP
 890              	# 181 "src/../h/Riscv.hpp" 1
 891              		csrr a5, sstatus
 892              	# 0 "" 2
 893              	#NO_APP
 894 0268 2338F4F4 		sd	a5,-176(s0)
 182:src/../h/Riscv.hpp **** }
 895              		.loc 2 182 5 is_stmt 1
 182:src/../h/Riscv.hpp **** }
 896              		.loc 2 182 12 is_stmt 0
 897 026c 033904F5 		ld	s2,-176(s0)
 898              	.LVL54:
 899              	.LBE291:
 900              	.LBE290:
 116:src/Riscv.cpp **** 
 901              		.loc 1 116 13 is_stmt 1
 116:src/Riscv.cpp **** 
 902              		.loc 1 116 30 is_stmt 0
 903 0270 97000000 		call	_ZN7_thread8dispatchEv@plt
 903      E7800000 
 904              	.LVL55:
GAS LISTING /tmp/cci5PgaS.s 			page 28


 118:src/Riscv.cpp ****             w_sepc(sepc);
 905              		.loc 1 118 13 is_stmt 1
 906              	.LBB292:
 907              	.LBB293:
 187:src/../h/Riscv.hpp **** }
 908              		.loc 2 187 5
 187:src/../h/Riscv.hpp **** }
 909              		.loc 2 187 77 is_stmt 0
 910              	#APP
 911              	# 187 "src/../h/Riscv.hpp" 1
 912              		csrw sstatus, s2
 913              	# 0 "" 2
 914              	.LVL56:
 915              	#NO_APP
 916              	.LBE293:
 917              	.LBE292:
 119:src/Riscv.cpp ****         }
 918              		.loc 1 119 13 is_stmt 1
 919              	.LBB294:
 920              	.LBB295:
 117:src/../h/Riscv.hpp **** }
 921              		.loc 2 117 5
 117:src/../h/Riscv.hpp **** }
 922              		.loc 2 117 65 is_stmt 0
 923              	#APP
 924              	# 117 "src/../h/Riscv.hpp" 1
 118:src/../h/Riscv.hpp **** 
 925              		csrw sepc, s1
 926              	# 0 "" 2
 927              		.loc 2 118 1
 928              	#NO_APP
 929 0280 6FF01FDE 		j	.L3
 930              	.LVL57:
 931              	.L31:
 932              	.LBE295:
 933              	.LBE294:
 934              	.LBE287:
 935              	.LBB296:
 936              	.LBB271:
 124:src/Riscv.cpp ****             uint64 sstatus = r_sstatus();
 937              		.loc 1 124 13 is_stmt 1
 938              	.LBB272:
 939              	.LBB273:
 110:src/../h/Riscv.hpp ****     __asm__ volatile ("csrr %[sepc], sepc" : [sepc] "=r"(sepc));
 940              		.loc 2 110 5
 111:src/../h/Riscv.hpp ****     return sepc;
 941              		.loc 2 111 5
 111:src/../h/Riscv.hpp ****     return sepc;
 942              		.loc 2 111 64 is_stmt 0
 943              	#APP
 944              	# 111 "src/../h/Riscv.hpp" 1
 945              		csrr a5, sepc
 946              	# 0 "" 2
 947              	#NO_APP
 948 0288 2334F4F6 		sd	a5,-152(s0)
 112:src/../h/Riscv.hpp **** }
 949              		.loc 2 112 5 is_stmt 1
GAS LISTING /tmp/cci5PgaS.s 			page 29


 112:src/../h/Riscv.hpp **** }
 950              		.loc 2 112 12 is_stmt 0
 951 028c 833484F6 		ld	s1,-152(s0)
 952              	.LVL58:
 953              	.LBE273:
 954              	.LBE272:
 124:src/Riscv.cpp ****             uint64 sstatus = r_sstatus();
 955              		.loc 1 124 38
 956 0290 93844400 		addi	s1,s1,4
 957              	.LVL59:
 125:src/Riscv.cpp **** 
 958              		.loc 1 125 13 is_stmt 1
 959              	.LBB274:
 960              	.LBB275:
 180:src/../h/Riscv.hpp ****     __asm__ volatile ("csrr %[sstatus], sstatus" : [sstatus] "=r"(sstatus));
 961              		.loc 2 180 5
 181:src/../h/Riscv.hpp ****     return sstatus;
 962              		.loc 2 181 5
 181:src/../h/Riscv.hpp ****     return sstatus;
 963              		.loc 2 181 76 is_stmt 0
 964              	#APP
 965              	# 181 "src/../h/Riscv.hpp" 1
 966              		csrr a5, sstatus
 967              	# 0 "" 2
 968              	#NO_APP
 969 0298 2330F4F6 		sd	a5,-160(s0)
 182:src/../h/Riscv.hpp **** }
 970              		.loc 2 182 5 is_stmt 1
 182:src/../h/Riscv.hpp **** }
 971              		.loc 2 182 12 is_stmt 0
 972 029c 033904F6 		ld	s2,-160(s0)
 973              	.LVL60:
 974              	.LBE275:
 975              	.LBE274:
 127:src/Riscv.cpp ****             _thread::dispatch();
 976              		.loc 1 127 13 is_stmt 1
 127:src/Riscv.cpp ****             _thread::dispatch();
 977              		.loc 1 127 39 is_stmt 0
 978 02a0 97070000 		la	a5,_ZN7_thread16timeSliceCounterE
 978      83B70700 
 979 02a8 23B00700 		sd	zero,0(a5)
 128:src/Riscv.cpp **** 
 980              		.loc 1 128 13 is_stmt 1
 128:src/Riscv.cpp **** 
 981              		.loc 1 128 30 is_stmt 0
 982 02ac 97000000 		call	_ZN7_thread8dispatchEv@plt
 982      E7800000 
 983              	.LVL61:
 130:src/Riscv.cpp ****             w_sepc(sepc);
 984              		.loc 1 130 13 is_stmt 1
 985              	.LBB276:
 986              	.LBB277:
 187:src/../h/Riscv.hpp **** }
 987              		.loc 2 187 5
 187:src/../h/Riscv.hpp **** }
 988              		.loc 2 187 77 is_stmt 0
 989              	#APP
GAS LISTING /tmp/cci5PgaS.s 			page 30


 990              	# 187 "src/../h/Riscv.hpp" 1
 991              		csrw sstatus, s2
 992              	# 0 "" 2
 993              	.LVL62:
 994              	#NO_APP
 995              	.LBE277:
 996              	.LBE276:
 131:src/Riscv.cpp ****         }
 997              		.loc 1 131 13 is_stmt 1
 998              	.LBB278:
 999              	.LBB279:
 117:src/../h/Riscv.hpp **** }
 1000              		.loc 2 117 5
 117:src/../h/Riscv.hpp **** }
 1001              		.loc 2 117 65 is_stmt 0
 1002              	#APP
 1003              	# 117 "src/../h/Riscv.hpp" 1
 118:src/../h/Riscv.hpp **** 
 1004              		csrw sepc, s1
 1005              	# 0 "" 2
 1006              		.loc 2 118 1
 1007              	#NO_APP
 1008 02bc 6FF05FDA 		j	.L3
 1009              	.LVL63:
 1010              	.L32:
 1011              	.LBE279:
 1012              	.LBE278:
 1013              	.LBE271:
 1014              	.LBB280:
 1015              	.LBB252:
 134:src/Riscv.cpp ****             uint64 sstatus = r_sstatus();
 1016              		.loc 1 134 13 is_stmt 1
 1017              	.LBB253:
 1018              	.LBB254:
 110:src/../h/Riscv.hpp ****     __asm__ volatile ("csrr %[sepc], sepc" : [sepc] "=r"(sepc));
 1019              		.loc 2 110 5
 111:src/../h/Riscv.hpp ****     return sepc;
 1020              		.loc 2 111 5
 111:src/../h/Riscv.hpp ****     return sepc;
 1021              		.loc 2 111 64 is_stmt 0
 1022              	#APP
 1023              	# 111 "src/../h/Riscv.hpp" 1
 1024              		csrr a5, sepc
 1025              	# 0 "" 2
 1026              	#NO_APP
 1027 02c4 233CF4F6 		sd	a5,-136(s0)
 112:src/../h/Riscv.hpp **** }
 1028              		.loc 2 112 5 is_stmt 1
 112:src/../h/Riscv.hpp **** }
 1029              		.loc 2 112 12 is_stmt 0
 1030 02c8 833484F7 		ld	s1,-136(s0)
 1031              	.LVL64:
 1032              	.LBE254:
 1033              	.LBE253:
 134:src/Riscv.cpp ****             uint64 sstatus = r_sstatus();
 1034              		.loc 1 134 38
 1035 02cc 93844400 		addi	s1,s1,4
GAS LISTING /tmp/cci5PgaS.s 			page 31


 1036              	.LVL65:
 135:src/Riscv.cpp **** 
 1037              		.loc 1 135 13 is_stmt 1
 1038              	.LBB255:
 1039              	.LBB256:
 180:src/../h/Riscv.hpp ****     __asm__ volatile ("csrr %[sstatus], sstatus" : [sstatus] "=r"(sstatus));
 1040              		.loc 2 180 5
 181:src/../h/Riscv.hpp ****     return sstatus;
 1041              		.loc 2 181 5
 181:src/../h/Riscv.hpp ****     return sstatus;
 1042              		.loc 2 181 76 is_stmt 0
 1043              	#APP
 1044              	# 181 "src/../h/Riscv.hpp" 1
 1045              		csrr a5, sstatus
 1046              	# 0 "" 2
 1047              	#NO_APP
 1048 02d4 2338F4F6 		sd	a5,-144(s0)
 182:src/../h/Riscv.hpp **** }
 1049              		.loc 2 182 5 is_stmt 1
 182:src/../h/Riscv.hpp **** }
 1050              		.loc 2 182 12 is_stmt 0
 1051 02d8 033904F7 		ld	s2,-144(s0)
 1052              	.LVL66:
 1053              	.LBE256:
 1054              	.LBE255:
 137:src/Riscv.cpp ****            uint64 arg2;
 1055              		.loc 1 137 12 is_stmt 1
 138:src/Riscv.cpp **** 
 1056              		.loc 1 138 12
 140:src/Riscv.cpp ****             __asm__ volatile("ld a2, 12*8(fp)"); //a2
 1057              		.loc 1 140 13
 140:src/Riscv.cpp ****             __asm__ volatile("ld a2, 12*8(fp)"); //a2
 1058              		.loc 1 140 48 is_stmt 0
 1059              	#APP
 1060              	# 140 "src/Riscv.cpp" 1
 141:src/Riscv.cpp **** 
 1061              		ld a1, 11*8(fp)
 1062              	# 0 "" 2
 1063              		.loc 1 141 13 is_stmt 1
 141:src/Riscv.cpp **** 
 1064              		.loc 1 141 48 is_stmt 0
 1065              	# 141 "src/Riscv.cpp" 1
 143:src/Riscv.cpp ****             __asm__ volatile("mv %0, a2" : "=r" (arg2));    //init val
 1066              		ld a2, 12*8(fp)
 1067              	# 0 "" 2
 1068              		.loc 1 143 13 is_stmt 1
 143:src/Riscv.cpp ****             __asm__ volatile("mv %0, a2" : "=r" (arg2));    //init val
 1069              		.loc 1 143 56 is_stmt 0
 1070              	# 143 "src/Riscv.cpp" 1
 1071              		mv s3, a1
 1072              	# 0 "" 2
 1073              	.LVL67:
 144:src/Riscv.cpp **** 
 1074              		.loc 1 144 13 is_stmt 1
 144:src/Riscv.cpp **** 
 1075              		.loc 1 144 56 is_stmt 0
 1076              	# 144 "src/Riscv.cpp" 1
GAS LISTING /tmp/cci5PgaS.s 			page 32


 1077              		mv s4, a2
 1078              	# 0 "" 2
 1079              	.LVL68:
 146:src/Riscv.cpp ****             *arg1=sem;
 1080              		.loc 1 146 13 is_stmt 1
 146:src/Riscv.cpp ****             *arg1=sem;
 1081              		.loc 1 146 50 is_stmt 0
 1082              	#NO_APP
 1083 02ec 13058001 		li	a0,24
 1084 02f0 97000000 		call	_ZN10KSemaphorenwEm@plt
 1084      E7800000 
 1085              	.LVL69:
 1086              	.LBB257:
 1087              	.LBB258:
 1088              		.file 3 "src/../h/KSemaphore.hpp"
   1:src/../h/KSemaphore.hpp **** //
   2:src/../h/KSemaphore.hpp **** // Created by os on 6/25/22.
   3:src/../h/KSemaphore.hpp **** //
   4:src/../h/KSemaphore.hpp **** 
   5:src/../h/KSemaphore.hpp **** #ifndef PROJECT_BASE_V1_1_KSEMAPHORE_HPP
   6:src/../h/KSemaphore.hpp **** #define PROJECT_BASE_V1_1_KSEMAPHORE_HPP
   7:src/../h/KSemaphore.hpp **** 
   8:src/../h/KSemaphore.hpp **** 
   9:src/../h/KSemaphore.hpp **** #include "_thread.hpp"
  10:src/../h/KSemaphore.hpp **** #include "List.hpp"
  11:src/../h/KSemaphore.hpp **** 
  12:src/../h/KSemaphore.hpp **** class KSemaphore {
  13:src/../h/KSemaphore.hpp **** public:
  14:src/../h/KSemaphore.hpp ****     KSemaphore(uint64 init=1): val(init){
 1089              		.loc 3 14 40
 1090 02f8 23204501 		sw	s4,0(a0)
 1091              	.LVL70:
 1092              	.LBB259:
 1093              	.LBB260:
 1094              		.file 4 "src/../h/List.hpp"
   1:src/../h/List.hpp **** //
   2:src/../h/List.hpp **** // Created by os on 6/17/22.
   3:src/../h/List.hpp **** //
   4:src/../h/List.hpp **** 
   5:src/../h/List.hpp **** #ifndef PROJECT_BASE_V1_1_LIST_HPP
   6:src/../h/List.hpp **** #define PROJECT_BASE_V1_1_LIST_HPP
   7:src/../h/List.hpp **** 
   8:src/../h/List.hpp **** #include "MemoryAllocator.hpp"
   9:src/../h/List.hpp **** 
  10:src/../h/List.hpp **** template<typename T>
  11:src/../h/List.hpp **** class List
  12:src/../h/List.hpp **** {
  13:src/../h/List.hpp **** private:
  14:src/../h/List.hpp ****     struct Elem
  15:src/../h/List.hpp ****     {
  16:src/../h/List.hpp ****         T *data;
  17:src/../h/List.hpp ****         Elem *next;
  18:src/../h/List.hpp **** 
  19:src/../h/List.hpp ****         Elem(T *data, Elem *next) : data(data), next(next) {}
  20:src/../h/List.hpp **** 
  21:src/../h/List.hpp ****     };
  22:src/../h/List.hpp **** 
GAS LISTING /tmp/cci5PgaS.s 			page 33


  23:src/../h/List.hpp ****     Elem *head, *tail;
  24:src/../h/List.hpp **** 
  25:src/../h/List.hpp **** public:
  26:src/../h/List.hpp ****     List() : head(0), tail(0) {}
 1095              		.loc 4 26 29
 1096 02fc 23340500 		sd	zero,8(a0)
 1097 0300 23380500 		sd	zero,16(a0)
 1098              	.LVL71:
 1099              	.LBE260:
 1100              	.LBE259:
 1101              	.LBE258:
 1102              	.LBE257:
 147:src/Riscv.cpp **** 
 1103              		.loc 1 147 13 is_stmt 1
 147:src/Riscv.cpp **** 
 1104              		.loc 1 147 18 is_stmt 0
 1105 0304 23B0A900 		sd	a0,0(s3)
 149:src/Riscv.cpp ****             if(sem!= nullptr)ret=0;
 1106              		.loc 1 149 13 is_stmt 1
 1107              	.LVL72:
 150:src/Riscv.cpp ****             else ret=-1;
 1108              		.loc 1 150 13
 1109 0308 630C0500 		beqz	a0,.L23
 150:src/Riscv.cpp ****             else ret=-1;
 1110              		.loc 1 150 33 is_stmt 0
 1111 030c 93070000 		li	a5,0
 1112              	.L13:
 1113              	.LVL73:
 153:src/Riscv.cpp **** 
 1114              		.loc 1 153 13 is_stmt 1
 153:src/Riscv.cpp **** 
 1115              		.loc 1 153 56 is_stmt 0
 1116              	#APP
 1117              	# 153 "src/Riscv.cpp" 1
 155:src/Riscv.cpp ****             w_sepc(sepc);
 1118              		mv a0, a5
 1119              	# 0 "" 2
 1120              		.loc 1 155 13 is_stmt 1
 1121              	.LVL74:
 1122              	#NO_APP
 1123              	.LBB261:
 1124              	.LBB262:
 187:src/../h/Riscv.hpp **** }
 1125              		.loc 2 187 5
 187:src/../h/Riscv.hpp **** }
 1126              		.loc 2 187 77 is_stmt 0
 1127              	#APP
 1128              	# 187 "src/../h/Riscv.hpp" 1
 1129              		csrw sstatus, s2
 1130              	# 0 "" 2
 1131              	.LVL75:
 1132              	#NO_APP
 1133              	.LBE262:
 1134              	.LBE261:
 156:src/Riscv.cpp ****         }
 1135              		.loc 1 156 13 is_stmt 1
 1136              	.LBB263:
GAS LISTING /tmp/cci5PgaS.s 			page 34


 1137              	.LBB264:
 117:src/../h/Riscv.hpp **** }
 1138              		.loc 2 117 5
 117:src/../h/Riscv.hpp **** }
 1139              		.loc 2 117 65 is_stmt 0
 1140              	#APP
 1141              	# 117 "src/../h/Riscv.hpp" 1
 118:src/../h/Riscv.hpp **** 
 1142              		csrw sepc, s1
 1143              	# 0 "" 2
 1144              		.loc 2 118 1
 1145              	#NO_APP
 1146 031c 6FF05FD4 		j	.L3
 1147              	.LVL76:
 1148              	.L23:
 1149              	.LBE264:
 1150              	.LBE263:
 151:src/Riscv.cpp **** 
 1151              		.loc 1 151 21
 1152 0320 9307F0FF 		li	a5,-1
 1153 0324 6FF0DFFE 		j	.L13
 1154              	.LVL77:
 1155              	.L33:
 1156              	.LBE252:
 1157              	.LBB265:
 1158              	.LBB230:
 159:src/Riscv.cpp ****             uint64 sstatus = r_sstatus();
 1159              		.loc 1 159 13 is_stmt 1
 1160              	.LBB231:
 1161              	.LBB232:
 110:src/../h/Riscv.hpp ****     __asm__ volatile ("csrr %[sepc], sepc" : [sepc] "=r"(sepc));
 1162              		.loc 2 110 5
 111:src/../h/Riscv.hpp ****     return sepc;
 1163              		.loc 2 111 5
 111:src/../h/Riscv.hpp ****     return sepc;
 1164              		.loc 2 111 64 is_stmt 0
 1165              	#APP
 1166              	# 111 "src/../h/Riscv.hpp" 1
 1167              		csrr a5, sepc
 1168              	# 0 "" 2
 1169              	#NO_APP
 1170 032c 2334F4F8 		sd	a5,-120(s0)
 112:src/../h/Riscv.hpp **** }
 1171              		.loc 2 112 5 is_stmt 1
 112:src/../h/Riscv.hpp **** }
 1172              		.loc 2 112 12 is_stmt 0
 1173 0330 833984F8 		ld	s3,-120(s0)
 1174              	.LBE232:
 1175              	.LBE231:
 159:src/Riscv.cpp ****             uint64 sstatus = r_sstatus();
 1176              		.loc 1 159 38
 1177 0334 93894900 		addi	s3,s3,4
 1178              	.LVL78:
 160:src/Riscv.cpp **** 
 1179              		.loc 1 160 13 is_stmt 1
 1180              	.LBB233:
 1181              	.LBB234:
GAS LISTING /tmp/cci5PgaS.s 			page 35


 180:src/../h/Riscv.hpp ****     __asm__ volatile ("csrr %[sstatus], sstatus" : [sstatus] "=r"(sstatus));
 1182              		.loc 2 180 5
 181:src/../h/Riscv.hpp ****     return sstatus;
 1183              		.loc 2 181 5
 181:src/../h/Riscv.hpp ****     return sstatus;
 1184              		.loc 2 181 76 is_stmt 0
 1185              	#APP
 1186              	# 181 "src/../h/Riscv.hpp" 1
 1187              		csrr a5, sstatus
 1188              	# 0 "" 2
 1189              	#NO_APP
 1190 033c 2330F4F8 		sd	a5,-128(s0)
 182:src/../h/Riscv.hpp **** }
 1191              		.loc 2 182 5 is_stmt 1
 182:src/../h/Riscv.hpp **** }
 1192              		.loc 2 182 12 is_stmt 0
 1193 0340 033A04F8 		ld	s4,-128(s0)
 1194              	.LVL79:
 1195              	.LBE234:
 1196              	.LBE233:
 162:src/Riscv.cpp **** 
 1197              		.loc 1 162 13 is_stmt 1
 165:src/Riscv.cpp **** 
 1198              		.loc 1 165 13
 165:src/Riscv.cpp **** 
 1199              		.loc 1 165 48 is_stmt 0
 1200              	#APP
 1201              	# 165 "src/Riscv.cpp" 1
 167:src/Riscv.cpp **** 
 1202              		ld a1, 11*8(fp)
 1203              	# 0 "" 2
 1204              		.loc 1 167 13 is_stmt 1
 167:src/Riscv.cpp **** 
 1205              		.loc 1 167 56 is_stmt 0
 1206              	# 167 "src/Riscv.cpp" 1
 1207              		mv s1, a1
 1208              	# 0 "" 2
 1209              	.LVL80:
 169:src/Riscv.cpp **** 
 1210              		.loc 1 169 13 is_stmt 1
 1211              	#NO_APP
 1212 034c 6F000003 		j	.L17
 1213              	.LVL81:
 1214              	.L16:
 1215              	.LBB235:
 1216              	.LBB236:
 1217              	.LBB237:
  27:src/../h/List.hpp **** 
  28:src/../h/List.hpp ****     List(const List<T> &) = delete;
  29:src/../h/List.hpp **** 
  30:src/../h/List.hpp ****     List<T> &operator=(const List<T> &) = delete;
  31:src/../h/List.hpp **** 
  32:src/../h/List.hpp ****     void* operator new(size_t n){
  33:src/../h/List.hpp ****         return MemoryAllocator::kmem_alloc(n);
  34:src/../h/List.hpp ****     }
  35:src/../h/List.hpp **** 
  36:src/../h/List.hpp ****     void operator delete(void* p){
GAS LISTING /tmp/cci5PgaS.s 			page 36


  37:src/../h/List.hpp ****         MemoryAllocator::kmem_free(p);
  38:src/../h/List.hpp ****     }
  39:src/../h/List.hpp **** 
  40:src/../h/List.hpp ****     void addFirst(T *data)
  41:src/../h/List.hpp ****     {
  42:src/../h/List.hpp ****         Elem *elem = (Elem*)MemoryAllocator::kmem_alloc(sizeof (Elem));
  43:src/../h/List.hpp ****         elem->data=data;
  44:src/../h/List.hpp ****         elem->next=head;
  45:src/../h/List.hpp ****         head = elem;
  46:src/../h/List.hpp ****         if (!tail) { tail = head; }
  47:src/../h/List.hpp ****     }
  48:src/../h/List.hpp **** 
  49:src/../h/List.hpp ****     void addLast(T *data)
  50:src/../h/List.hpp ****     {
  51:src/../h/List.hpp ****         Elem *elem = (Elem*)MemoryAllocator::kmem_alloc(sizeof (Elem));
  52:src/../h/List.hpp ****         elem->data=data;
  53:src/../h/List.hpp ****         elem->next=0;
  54:src/../h/List.hpp ****         if (tail)
  55:src/../h/List.hpp ****         {
  56:src/../h/List.hpp ****             tail->next = elem;
  57:src/../h/List.hpp ****             tail = elem;
  58:src/../h/List.hpp ****         } else
  59:src/../h/List.hpp ****         {
  60:src/../h/List.hpp ****             head = tail = elem;
  61:src/../h/List.hpp ****         }
  62:src/../h/List.hpp ****     }
  63:src/../h/List.hpp **** 
  64:src/../h/List.hpp ****     T *removeFirst()
  65:src/../h/List.hpp ****     {
  66:src/../h/List.hpp ****         if (!head) { return 0; }
  67:src/../h/List.hpp **** 
  68:src/../h/List.hpp ****         Elem *elem = head;
  69:src/../h/List.hpp ****         head = head->next;
  70:src/../h/List.hpp ****         if (!head) { tail = 0; }
  71:src/../h/List.hpp **** 
  72:src/../h/List.hpp ****         T *ret = elem->data;
 1218              		.loc 4 72 12 is_stmt 0
 1219 0350 03390500 		ld	s2,0(a0)
 1220              	.LVL82:
  73:src/../h/List.hpp ****         MemoryAllocator::kmem_free(elem);
 1221              		.loc 4 73 35
 1222 0354 97000000 		call	_ZN15MemoryAllocator9kmem_freeEPv@plt
 1222      E7800000 
 1223              	.LVL83:
 1224              	.LBE237:
 1225              	.LBE236:
 174:src/Riscv.cpp ****                 sem->val++;
 1226              		.loc 1 174 17 is_stmt 1
 174:src/Riscv.cpp ****                 sem->val++;
 1227              		.loc 1 174 29 is_stmt 0
 1228 035c 93071000 		li	a5,1
 1229 0360 230CF902 		sb	a5,56(s2)
 175:src/Riscv.cpp ****                 Scheduler::put(t);
 1230              		.loc 1 175 17 is_stmt 1
 175:src/Riscv.cpp ****                 Scheduler::put(t);
 1231              		.loc 1 175 22 is_stmt 0
 1232 0364 83A70400 		lw	a5,0(s1)
GAS LISTING /tmp/cci5PgaS.s 			page 37


 175:src/Riscv.cpp ****                 Scheduler::put(t);
 1233              		.loc 1 175 25
 1234 0368 9B871700 		addiw	a5,a5,1
 1235 036c 23A0F400 		sw	a5,0(s1)
 176:src/Riscv.cpp ****             }
 1236              		.loc 1 176 17 is_stmt 1
 176:src/Riscv.cpp ****             }
 1237              		.loc 1 176 31 is_stmt 0
 1238 0370 13050900 		mv	a0,s2
 1239 0374 97000000 		call	_ZN9Scheduler3putEP7_thread@plt
 1239      E7800000 
 1240              	.LVL84:
 1241              	.L17:
 1242              	.LBE235:
 172:src/Riscv.cpp ****                 _thread* t = sem->blocked.removeFirst();
 1243              		.loc 1 172 13 is_stmt 1
 172:src/Riscv.cpp ****                 _thread* t = sem->blocked.removeFirst();
 1244              		.loc 1 172 43
 1245              	.LBB240:
 1246              	.LBB241:
  74:src/../h/List.hpp ****         return ret;
  75:src/../h/List.hpp ****     }
  76:src/../h/List.hpp **** 
  77:src/../h/List.hpp ****     T *peekFirst()
  78:src/../h/List.hpp ****     {
  79:src/../h/List.hpp ****         if (!head) { return 0; }
 1247              		.loc 4 79 14 is_stmt 0
 1248 037c 03B58400 		ld	a0,8(s1)
 1249              		.loc 4 79 9
 1250 0380 63000502 		beqz	a0,.L15
  80:src/../h/List.hpp ****         return head->data;
 1251              		.loc 4 80 22
 1252 0384 83370500 		ld	a5,0(a0)
 1253              	.LVL85:
 1254              	.LBE241:
 1255              	.LBE240:
 172:src/Riscv.cpp ****                 _thread* t = sem->blocked.removeFirst();
 1256              		.loc 1 172 43
 1257 0388 638C0700 		beqz	a5,.L15
 1258              	.LBB242:
 173:src/Riscv.cpp ****                 t->deblocked=true;
 1259              		.loc 1 173 17 is_stmt 1
 1260              	.LVL86:
 1261              	.LBB239:
 1262              	.LBB238:
  69:src/../h/List.hpp ****         if (!head) { tail = 0; }
 1263              		.loc 4 69 22 is_stmt 0
 1264 038c 83378500 		ld	a5,8(a0)
  69:src/../h/List.hpp ****         if (!head) { tail = 0; }
 1265              		.loc 4 69 9
 1266 0390 23B4F400 		sd	a5,8(s1)
  70:src/../h/List.hpp **** 
 1267              		.loc 4 70 9
 1268 0394 E39E07FA 		bnez	a5,.L16
  70:src/../h/List.hpp **** 
 1269              		.loc 4 70 22
 1270 0398 23B80400 		sd	zero,16(s1)
GAS LISTING /tmp/cci5PgaS.s 			page 38


 1271 039c 6FF05FFB 		j	.L16
 1272              	.LVL87:
 1273              	.L15:
 1274              	.LBE238:
 1275              	.LBE239:
 1276              	.LBE242:
 179:src/Riscv.cpp **** 
 1277              		.loc 1 179 13 is_stmt 1
 179:src/Riscv.cpp **** 
 1278              		.loc 1 179 23 is_stmt 0
 1279 03a0 63880400 		beqz	s1,.L18
 179:src/Riscv.cpp **** 
 1280              		.loc 1 179 20 discriminator 1
 1281 03a4 13850400 		mv	a0,s1
 1282 03a8 97000000 		call	_ZN10KSemaphoredlEPv@plt
 1282      E7800000 
 1283              	.LVL88:
 1284              	.L18:
 181:src/Riscv.cpp ****             w_sepc(sepc);
 1285              		.loc 1 181 13 is_stmt 1
 1286              	.LBB243:
 1287              	.LBB244:
 187:src/../h/Riscv.hpp **** }
 1288              		.loc 2 187 5
 187:src/../h/Riscv.hpp **** }
 1289              		.loc 2 187 77 is_stmt 0
 1290              	#APP
 1291              	# 187 "src/../h/Riscv.hpp" 1
 1292              		csrw sstatus, s4
 1293              	# 0 "" 2
 1294              	.LVL89:
 1295              	#NO_APP
 1296              	.LBE244:
 1297              	.LBE243:
 182:src/Riscv.cpp ****         }
 1298              		.loc 1 182 13 is_stmt 1
 1299              	.LBB245:
 1300              	.LBB246:
 117:src/../h/Riscv.hpp **** }
 1301              		.loc 2 117 5
 117:src/../h/Riscv.hpp **** }
 1302              		.loc 2 117 65 is_stmt 0
 1303              	#APP
 1304              	# 117 "src/../h/Riscv.hpp" 1
 118:src/../h/Riscv.hpp **** 
 1305              		csrw sepc, s3
 1306              	# 0 "" 2
 1307              		.loc 2 118 1
 1308              	#NO_APP
 1309 03b8 6FF09FCA 		j	.L3
 1310              	.LVL90:
 1311              	.L34:
 1312              	.LBE246:
 1313              	.LBE245:
 1314              	.LBE230:
 1315              	.LBB247:
 1316              	.LBB217:
GAS LISTING /tmp/cci5PgaS.s 			page 39


 185:src/Riscv.cpp ****             uint64 sstatus = r_sstatus();
 1317              		.loc 1 185 13 is_stmt 1
 1318              	.LBB218:
 1319              	.LBB219:
 110:src/../h/Riscv.hpp ****     __asm__ volatile ("csrr %[sepc], sepc" : [sepc] "=r"(sepc));
 1320              		.loc 2 110 5
 111:src/../h/Riscv.hpp ****     return sepc;
 1321              		.loc 2 111 5
 111:src/../h/Riscv.hpp ****     return sepc;
 1322              		.loc 2 111 64 is_stmt 0
 1323              	#APP
 1324              	# 111 "src/../h/Riscv.hpp" 1
 1325              		csrr a5, sepc
 1326              	# 0 "" 2
 1327              	#NO_APP
 1328 03c0 233CF4F8 		sd	a5,-104(s0)
 112:src/../h/Riscv.hpp **** }
 1329              		.loc 2 112 5 is_stmt 1
 112:src/../h/Riscv.hpp **** }
 1330              		.loc 2 112 12 is_stmt 0
 1331 03c4 833484F9 		ld	s1,-104(s0)
 1332              	.LVL91:
 1333              	.LBE219:
 1334              	.LBE218:
 185:src/Riscv.cpp ****             uint64 sstatus = r_sstatus();
 1335              		.loc 1 185 38
 1336 03c8 93844400 		addi	s1,s1,4
 1337              	.LVL92:
 186:src/Riscv.cpp **** 
 1338              		.loc 1 186 13 is_stmt 1
 1339              	.LBB220:
 1340              	.LBB221:
 180:src/../h/Riscv.hpp ****     __asm__ volatile ("csrr %[sstatus], sstatus" : [sstatus] "=r"(sstatus));
 1341              		.loc 2 180 5
 181:src/../h/Riscv.hpp ****     return sstatus;
 1342              		.loc 2 181 5
 181:src/../h/Riscv.hpp ****     return sstatus;
 1343              		.loc 2 181 76 is_stmt 0
 1344              	#APP
 1345              	# 181 "src/../h/Riscv.hpp" 1
 1346              		csrr a5, sstatus
 1347              	# 0 "" 2
 1348              	#NO_APP
 1349 03d0 2338F4F8 		sd	a5,-112(s0)
 182:src/../h/Riscv.hpp **** }
 1350              		.loc 2 182 5 is_stmt 1
 182:src/../h/Riscv.hpp **** }
 1351              		.loc 2 182 12 is_stmt 0
 1352 03d4 033904F9 		ld	s2,-112(s0)
 1353              	.LVL93:
 1354              	.LBE221:
 1355              	.LBE220:
 188:src/Riscv.cpp **** 
 1356              		.loc 1 188 13 is_stmt 1
 190:src/Riscv.cpp **** 
 1357              		.loc 1 190 13
 190:src/Riscv.cpp **** 
GAS LISTING /tmp/cci5PgaS.s 			page 40


 1358              		.loc 1 190 48 is_stmt 0
 1359              	#APP
 1360              	# 190 "src/Riscv.cpp" 1
 192:src/Riscv.cpp **** 
 1361              		ld a1, 11*8(fp)
 1362              	# 0 "" 2
 1363              		.loc 1 192 13 is_stmt 1
 192:src/Riscv.cpp **** 
 1364              		.loc 1 192 56 is_stmt 0
 1365              	# 192 "src/Riscv.cpp" 1
 1366              		mv a0, a1
 1367              	# 0 "" 2
 1368              	.LVL94:
 196:src/Riscv.cpp **** 
 1369              		.loc 1 196 13 is_stmt 1
 196:src/Riscv.cpp **** 
 1370              		.loc 1 196 36 is_stmt 0
 1371              	#NO_APP
 1372 03e0 97000000 		call	_ZN10KSemaphore4waitEv@plt
 1372      E7800000 
 1373              	.LVL95:
 198:src/Riscv.cpp **** 
 1374              		.loc 1 198 13 is_stmt 1
 198:src/Riscv.cpp **** 
 1375              		.loc 1 198 56 is_stmt 0
 1376              	#APP
 1377              	# 198 "src/Riscv.cpp" 1
 200:src/Riscv.cpp ****             w_sepc(sepc);
 1378              		mv a0, a0
 1379              	# 0 "" 2
 1380              		.loc 1 200 13 is_stmt 1
 1381              	.LVL96:
 1382              	#NO_APP
 1383              	.LBB222:
 1384              	.LBB223:
 187:src/../h/Riscv.hpp **** }
 1385              		.loc 2 187 5
 187:src/../h/Riscv.hpp **** }
 1386              		.loc 2 187 77 is_stmt 0
 1387              	#APP
 1388              	# 187 "src/../h/Riscv.hpp" 1
 1389              		csrw sstatus, s2
 1390              	# 0 "" 2
 1391              	.LVL97:
 1392              	#NO_APP
 1393              	.LBE223:
 1394              	.LBE222:
 201:src/Riscv.cpp ****         }
 1395              		.loc 1 201 13 is_stmt 1
 1396              	.LBB224:
 1397              	.LBB225:
 117:src/../h/Riscv.hpp **** }
 1398              		.loc 2 117 5
 117:src/../h/Riscv.hpp **** }
 1399              		.loc 2 117 65 is_stmt 0
 1400              	#APP
 1401              	# 117 "src/../h/Riscv.hpp" 1
GAS LISTING /tmp/cci5PgaS.s 			page 41


 118:src/../h/Riscv.hpp **** 
 1402              		csrw sepc, s1
 1403              	# 0 "" 2
 1404              		.loc 2 118 1
 1405              	#NO_APP
 1406 03f4 6FF0DFC6 		j	.L3
 1407              	.LVL98:
 1408              	.L35:
 1409              	.LBE225:
 1410              	.LBE224:
 1411              	.LBE217:
 1412              	.LBB226:
 1413              	.LBB205:
 204:src/Riscv.cpp ****             uint64 sstatus = r_sstatus();
 1414              		.loc 1 204 13 is_stmt 1
 1415              	.LBB206:
 1416              	.LBB207:
 110:src/../h/Riscv.hpp ****     __asm__ volatile ("csrr %[sepc], sepc" : [sepc] "=r"(sepc));
 1417              		.loc 2 110 5
 111:src/../h/Riscv.hpp ****     return sepc;
 1418              		.loc 2 111 5
 111:src/../h/Riscv.hpp ****     return sepc;
 1419              		.loc 2 111 64 is_stmt 0
 1420              	#APP
 1421              	# 111 "src/../h/Riscv.hpp" 1
 1422              		csrr a5, sepc
 1423              	# 0 "" 2
 1424              	#NO_APP
 1425 03fc 2334F4FA 		sd	a5,-88(s0)
 112:src/../h/Riscv.hpp **** }
 1426              		.loc 2 112 5 is_stmt 1
 112:src/../h/Riscv.hpp **** }
 1427              		.loc 2 112 12 is_stmt 0
 1428 0400 833484FA 		ld	s1,-88(s0)
 1429              	.LVL99:
 1430              	.LBE207:
 1431              	.LBE206:
 204:src/Riscv.cpp ****             uint64 sstatus = r_sstatus();
 1432              		.loc 1 204 38
 1433 0404 93844400 		addi	s1,s1,4
 1434              	.LVL100:
 205:src/Riscv.cpp **** 
 1435              		.loc 1 205 13 is_stmt 1
 1436              	.LBB208:
 1437              	.LBB209:
 180:src/../h/Riscv.hpp ****     __asm__ volatile ("csrr %[sstatus], sstatus" : [sstatus] "=r"(sstatus));
 1438              		.loc 2 180 5
 181:src/../h/Riscv.hpp ****     return sstatus;
 1439              		.loc 2 181 5
 181:src/../h/Riscv.hpp ****     return sstatus;
 1440              		.loc 2 181 76 is_stmt 0
 1441              	#APP
 1442              	# 181 "src/../h/Riscv.hpp" 1
 1443              		csrr a5, sstatus
 1444              	# 0 "" 2
 1445              	#NO_APP
 1446 040c 2330F4FA 		sd	a5,-96(s0)
GAS LISTING /tmp/cci5PgaS.s 			page 42


 182:src/../h/Riscv.hpp **** }
 1447              		.loc 2 182 5 is_stmt 1
 182:src/../h/Riscv.hpp **** }
 1448              		.loc 2 182 12 is_stmt 0
 1449 0410 033904FA 		ld	s2,-96(s0)
 1450              	.LVL101:
 1451              	.LBE209:
 1452              	.LBE208:
 207:src/Riscv.cpp **** 
 1453              		.loc 1 207 13 is_stmt 1
 209:src/Riscv.cpp **** 
 1454              		.loc 1 209 13
 209:src/Riscv.cpp **** 
 1455              		.loc 1 209 48 is_stmt 0
 1456              	#APP
 1457              	# 209 "src/Riscv.cpp" 1
 211:src/Riscv.cpp **** 
 1458              		ld a1, 11*8(fp)
 1459              	# 0 "" 2
 1460              		.loc 1 211 13 is_stmt 1
 211:src/Riscv.cpp **** 
 1461              		.loc 1 211 56 is_stmt 0
 1462              	# 211 "src/Riscv.cpp" 1
 1463              		mv a0, a1
 1464              	# 0 "" 2
 1465              	.LVL102:
 214:src/Riscv.cpp **** 
 1466              		.loc 1 214 13 is_stmt 1
 214:src/Riscv.cpp **** 
 1467              		.loc 1 214 25 is_stmt 0
 1468              	#NO_APP
 1469 041c 97000000 		call	_ZN10KSemaphore6signalEv@plt
 1469      E7800000 
 1470              	.LVL103:
 216:src/Riscv.cpp **** 
 1471              		.loc 1 216 13 is_stmt 1
 218:src/Riscv.cpp **** 
 1472              		.loc 1 218 13
 218:src/Riscv.cpp **** 
 1473              		.loc 1 218 56 is_stmt 0
 1474 0424 93070000 		li	a5,0
 1475              	#APP
 1476              	# 218 "src/Riscv.cpp" 1
 220:src/Riscv.cpp ****             w_sepc(sepc);
 1477              		mv a0, a5
 1478              	# 0 "" 2
 1479              		.loc 1 220 13 is_stmt 1
 1480              	.LVL104:
 1481              	#NO_APP
 1482              	.LBB210:
 1483              	.LBB211:
 187:src/../h/Riscv.hpp **** }
 1484              		.loc 2 187 5
 187:src/../h/Riscv.hpp **** }
 1485              		.loc 2 187 77 is_stmt 0
 1486              	#APP
 1487              	# 187 "src/../h/Riscv.hpp" 1
GAS LISTING /tmp/cci5PgaS.s 			page 43


 1488              		csrw sstatus, s2
 1489              	# 0 "" 2
 1490              	.LVL105:
 1491              	#NO_APP
 1492              	.LBE211:
 1493              	.LBE210:
 221:src/Riscv.cpp ****         }
 1494              		.loc 1 221 13 is_stmt 1
 1495              	.LBB212:
 1496              	.LBB213:
 117:src/../h/Riscv.hpp **** }
 1497              		.loc 2 117 5
 117:src/../h/Riscv.hpp **** }
 1498              		.loc 2 117 65 is_stmt 0
 1499              	#APP
 1500              	# 117 "src/../h/Riscv.hpp" 1
 118:src/../h/Riscv.hpp **** 
 1501              		csrw sepc, s1
 1502              	# 0 "" 2
 1503              		.loc 2 118 1
 1504              	#NO_APP
 1505 0434 6FF0DFC2 		j	.L3
 1506              	.LVL106:
 1507              	.L36:
 1508              	.LBE213:
 1509              	.LBE212:
 1510              	.LBE205:
 1511              	.LBB214:
 1512              	.LBB191:
 224:src/Riscv.cpp ****             uint64 sstatus = r_sstatus();
 1513              		.loc 1 224 13 is_stmt 1
 1514              	.LBB192:
 1515              	.LBB193:
 110:src/../h/Riscv.hpp ****     __asm__ volatile ("csrr %[sepc], sepc" : [sepc] "=r"(sepc));
 1516              		.loc 2 110 5
 111:src/../h/Riscv.hpp ****     return sepc;
 1517              		.loc 2 111 5
 111:src/../h/Riscv.hpp ****     return sepc;
 1518              		.loc 2 111 64 is_stmt 0
 1519              	#APP
 1520              	# 111 "src/../h/Riscv.hpp" 1
 1521              		csrr a5, sepc
 1522              	# 0 "" 2
 1523              	#NO_APP
 1524 043c 233CF4FA 		sd	a5,-72(s0)
 112:src/../h/Riscv.hpp **** }
 1525              		.loc 2 112 5 is_stmt 1
 112:src/../h/Riscv.hpp **** }
 1526              		.loc 2 112 12 is_stmt 0
 1527 0440 833484FB 		ld	s1,-72(s0)
 1528              	.LVL107:
 1529              	.LBE193:
 1530              	.LBE192:
 224:src/Riscv.cpp ****             uint64 sstatus = r_sstatus();
 1531              		.loc 1 224 38
 1532 0444 93844400 		addi	s1,s1,4
 1533              	.LVL108:
GAS LISTING /tmp/cci5PgaS.s 			page 44


 225:src/Riscv.cpp **** 
 1534              		.loc 1 225 13 is_stmt 1
 1535              	.LBB194:
 1536              	.LBB195:
 180:src/../h/Riscv.hpp ****     __asm__ volatile ("csrr %[sstatus], sstatus" : [sstatus] "=r"(sstatus));
 1537              		.loc 2 180 5
 181:src/../h/Riscv.hpp ****     return sstatus;
 1538              		.loc 2 181 5
 181:src/../h/Riscv.hpp ****     return sstatus;
 1539              		.loc 2 181 76 is_stmt 0
 1540              	#APP
 1541              	# 181 "src/../h/Riscv.hpp" 1
 1542              		csrr a5, sstatus
 1543              	# 0 "" 2
 1544              	#NO_APP
 1545 044c 2338F4FA 		sd	a5,-80(s0)
 182:src/../h/Riscv.hpp **** }
 1546              		.loc 2 182 5 is_stmt 1
 182:src/../h/Riscv.hpp **** }
 1547              		.loc 2 182 12 is_stmt 0
 1548 0450 033904FB 		ld	s2,-80(s0)
 1549              	.LVL109:
 1550              	.LBE195:
 1551              	.LBE194:
 228:src/Riscv.cpp ****             char c = __getc();
 1552              		.loc 1 228 13 is_stmt 1
 228:src/Riscv.cpp ****             char c = __getc();
 1553              		.loc 1 228 27 is_stmt 0
 1554 0454 97070000 		la	a5,_ZN5Riscv11TrapConsoleEv
 1554      83B70700 
 1555              	.LVL110:
 1556              	.LBB196:
 1557              	.LBB197:
 129:src/../h/Riscv.hpp **** }
 1558              		.loc 2 129 5 is_stmt 1
 129:src/../h/Riscv.hpp **** }
 1559              		.loc 2 129 69 is_stmt 0
 1560              	#APP
 1561              	# 129 "src/../h/Riscv.hpp" 1
 1562              		csrw stvec, a5
 1563              	# 0 "" 2
 1564              	.LVL111:
 1565              	#NO_APP
 1566              	.LBE197:
 1567              	.LBE196:
 229:src/Riscv.cpp ****             Riscv::w_stvec((uint64)&Riscv::supervisorTrap);
 1568              		.loc 1 229 13 is_stmt 1
 229:src/Riscv.cpp ****             Riscv::w_stvec((uint64)&Riscv::supervisorTrap);
 1569              		.loc 1 229 28 is_stmt 0
 1570 0460 97000000 		call	__getc@plt
 1570      E7800000 
 1571              	.LVL112:
 230:src/Riscv.cpp **** 
 1572              		.loc 1 230 13 is_stmt 1
 230:src/Riscv.cpp **** 
 1573              		.loc 1 230 27 is_stmt 0
 1574 0468 97070000 		la	a5,_ZN5Riscv14supervisorTrapEv
GAS LISTING /tmp/cci5PgaS.s 			page 45


 1574      83B70700 
 1575              	.LVL113:
 1576              	.LBB198:
 1577              	.LBB199:
 129:src/../h/Riscv.hpp **** }
 1578              		.loc 2 129 5 is_stmt 1
 129:src/../h/Riscv.hpp **** }
 1579              		.loc 2 129 69 is_stmt 0
 1580              	#APP
 1581              	# 129 "src/../h/Riscv.hpp" 1
 1582              		csrw stvec, a5
 1583              	# 0 "" 2
 1584              	.LVL114:
 1585              	#NO_APP
 1586              	.LBE199:
 1587              	.LBE198:
 232:src/Riscv.cpp **** 
 1588              		.loc 1 232 13 is_stmt 1
 232:src/Riscv.cpp **** 
 1589              		.loc 1 232 54 is_stmt 0
 1590              	#APP
 1591              	# 232 "src/Riscv.cpp" 1
 235:src/Riscv.cpp ****             w_sepc(sepc);
 1592              		mv a0, a0
 1593              	# 0 "" 2
 1594              		.loc 1 235 13 is_stmt 1
 1595              	.LVL115:
 1596              	#NO_APP
 1597              	.LBB200:
 1598              	.LBB201:
 187:src/../h/Riscv.hpp **** }
 1599              		.loc 2 187 5
 187:src/../h/Riscv.hpp **** }
 1600              		.loc 2 187 77 is_stmt 0
 1601              	#APP
 1602              	# 187 "src/../h/Riscv.hpp" 1
 1603              		csrw sstatus, s2
 1604              	# 0 "" 2
 1605              	.LVL116:
 1606              	#NO_APP
 1607              	.LBE201:
 1608              	.LBE200:
 236:src/Riscv.cpp ****         }
 1609              		.loc 1 236 13 is_stmt 1
 1610              	.LBB202:
 1611              	.LBB203:
 117:src/../h/Riscv.hpp **** }
 1612              		.loc 2 117 5
 117:src/../h/Riscv.hpp **** }
 1613              		.loc 2 117 65 is_stmt 0
 1614              	#APP
 1615              	# 117 "src/../h/Riscv.hpp" 1
 118:src/../h/Riscv.hpp **** 
 1616              		csrw sepc, s1
 1617              	# 0 "" 2
 1618              		.loc 2 118 1
 1619              	#NO_APP
GAS LISTING /tmp/cci5PgaS.s 			page 46


 1620 0480 6FF01FBE 		j	.L3
 1621              	.LBE203:
 1622              	.LBE202:
 1623              	.LBE191:
 1624              	.LBE214:
 1625              	.LBE226:
 1626              	.LBE247:
 1627              	.LBE265:
 1628              	.LBE280:
 1629              	.LBE296:
 1630              	.LBE313:
 1631              	.LBE331:
 1632              	.LBE350:
 1633              	.LBE362:
 1634              	.LBE375:
 1635              		.cfi_endproc
 1636              	.LFE50:
 1638              		.align	2
 1639              		.globl	_ZN5Riscv17handleTrapConsoleEv
 1641              	_ZN5Riscv17handleTrapConsoleEv:
 1642              	.LFB51:
 266:src/Riscv.cpp **** 
 267:src/Riscv.cpp **** 
 268:src/Riscv.cpp **** void Riscv::handleTrapConsole() {
 1643              		.loc 1 268 33 is_stmt 1
 1644              		.cfi_startproc
 1645 0484 130101FE 		addi	sp,sp,-32
 1646              		.cfi_def_cfa_offset 32
 1647 0488 233C1100 		sd	ra,24(sp)
 1648 048c 23388100 		sd	s0,16(sp)
 1649              		.cfi_offset 1, -8
 1650              		.cfi_offset 8, -16
 1651 0490 13040102 		addi	s0,sp,32
 1652              		.cfi_def_cfa 8, 0
 269:src/Riscv.cpp ****     uint64 scause = r_scause();
 1653              		.loc 1 269 5
 1654              	.LBB376:
 1655              	.LBB377:
  98:src/../h/Riscv.hpp ****     __asm__ volatile ("csrr %[scause], scause" : [scause] "=r"(scause));
 1656              		.loc 2 98 5
  99:src/../h/Riscv.hpp ****     return scause;
 1657              		.loc 2 99 5
  99:src/../h/Riscv.hpp ****     return scause;
 1658              		.loc 2 99 72 is_stmt 0
 1659              	#APP
 1660              	# 99 "src/../h/Riscv.hpp" 1
 1661              		csrr a5, scause
 1662              	# 0 "" 2
 1663              	#NO_APP
 1664 0498 2334F4FE 		sd	a5,-24(s0)
 100:src/../h/Riscv.hpp **** }
 1665              		.loc 2 100 5 is_stmt 1
 100:src/../h/Riscv.hpp **** }
 1666              		.loc 2 100 12 is_stmt 0
 1667 049c 033784FE 		ld	a4,-24(s0)
 1668              	.LVL117:
 1669              	.LBE377:
GAS LISTING /tmp/cci5PgaS.s 			page 47


 1670              	.LBE376:
 270:src/Riscv.cpp ****     if (scause == 0x8000000000000009UL) {
 1671              		.loc 1 270 5 is_stmt 1
 1672 04a0 9307F0FF 		li	a5,-1
 1673 04a4 9397F703 		slli	a5,a5,63
 1674 04a8 93879700 		addi	a5,a5,9
 1675 04ac 6302F702 		beq	a4,a5,.L41
 271:src/Riscv.cpp ****         console_handler();
 272:src/Riscv.cpp ****         mc_sip(SIP_SEIP);
 273:src/Riscv.cpp ****     } else if (scause == 0x8000000000000001UL) {
 1676              		.loc 1 273 12
 1677 04b0 9307F0FF 		li	a5,-1
 1678 04b4 9397F703 		slli	a5,a5,63
 1679 04b8 93871700 		addi	a5,a5,1
 1680 04bc 6304F702 		beq	a4,a5,.L42
 1681              	.LVL118:
 1682              	.L37:
 274:src/Riscv.cpp ****         mc_sip(SIP_SSIP);
 275:src/Riscv.cpp ****     }
 276:src/Riscv.cpp **** 
 277:src/Riscv.cpp **** }...
 1683              		.loc 1 277 1 is_stmt 0
 1684 04c0 83308101 		ld	ra,24(sp)
 1685              		.cfi_remember_state
 1686              		.cfi_restore 1
 1687 04c4 03340101 		ld	s0,16(sp)
 1688              		.cfi_restore 8
 1689              		.cfi_def_cfa 2, 32
 1690 04c8 13010102 		addi	sp,sp,32
 1691              		.cfi_def_cfa_offset 0
 1692 04cc 67800000 		jr	ra
 1693              	.LVL119:
 1694              	.L41:
 1695              		.cfi_restore_state
 271:src/Riscv.cpp ****         console_handler();
 1696              		.loc 1 271 9 is_stmt 1
 271:src/Riscv.cpp ****         console_handler();
 1697              		.loc 1 271 24 is_stmt 0
 1698 04d0 97000000 		call	console_handler@plt
 1698      E7800000 
 1699              	.LVL120:
 272:src/Riscv.cpp ****         mc_sip(SIP_SEIP);
 1700              		.loc 1 272 9 is_stmt 1
 1701              	.LBB378:
 1702              	.LBB379:
 151:src/../h/Riscv.hpp **** }
 1703              		.loc 2 151 5
 151:src/../h/Riscv.hpp **** }
 1704              		.loc 2 151 64 is_stmt 0
 1705 04d8 93070020 		li	a5,512
 1706              	#APP
 1707              	# 151 "src/../h/Riscv.hpp" 1
 152:src/../h/Riscv.hpp **** 
 1708              		csrc sip, a5
 1709              	# 0 "" 2
 1710              		.loc 2 152 1
 1711              	#NO_APP
GAS LISTING /tmp/cci5PgaS.s 			page 48


 1712 04e0 6FF01FFE 		j	.L37
 1713              	.LVL121:
 1714              	.L42:
 1715              	.LBE379:
 1716              	.LBE378:
 274:src/Riscv.cpp ****         mc_sip(SIP_SSIP);
 1717              		.loc 1 274 9 is_stmt 1
 1718              	.LBB380:
 1719              	.LBB381:
 151:src/../h/Riscv.hpp **** }
 1720              		.loc 2 151 5
 151:src/../h/Riscv.hpp **** }
 1721              		.loc 2 151 64 is_stmt 0
 1722 04e4 93072000 		li	a5,2
 1723              	#APP
 1724              	# 151 "src/../h/Riscv.hpp" 1
 1725              		csrc sip, a5
 1726              	# 0 "" 2
 1727              	.LVL122:
 1728              	#NO_APP
 1729              	.LBE381:
 1730              	.LBE380:
 1731              		.loc 1 277 1
 1732 04ec 6FF05FFD 		j	.L37
 1733              		.cfi_endproc
 1734              	.LFE51:
 1736              	.Letext0:
 1737              		.file 5 "src/../h/../lib/hw.h"
 1738              		.file 6 "src/../h/DoublyLinkedList.hpp"
 1739              		.file 7 "src/../h/MemoryAllocator.hpp"
 1740              		.file 8 "src/../h/Scheduler.hpp"
 1741              		.file 9 "src/../h/_thread.hpp"
 1742              		.file 10 "src/../h/../lib/console.h"
GAS LISTING /tmp/cci5PgaS.s 			page 49


DEFINED SYMBOLS
                            *ABS*:0000000000000000 Riscv.cpp
     /tmp/cci5PgaS.s:9      .text:0000000000000000 _ZN5Riscv10popSppSpieEv
     /tmp/cci5PgaS.s:13     .text:0000000000000000 .L0 
     /tmp/cci5PgaS.s:14     .text:0000000000000000 .L0 
     /tmp/cci5PgaS.s:15     .text:0000000000000004 .L0 
     /tmp/cci5PgaS.s:17     .text:0000000000000008 .L0 
     /tmp/cci5PgaS.s:19     .text:000000000000000c .L0 
     /tmp/cci5PgaS.s:21     .text:000000000000000c .L0 
       src/Riscv.cpp:16     .text:000000000000000c .L0 
     /tmp/cci5PgaS.s:27     .text:0000000000000010 .L0 
       src/Riscv.cpp:17     .text:0000000000000010 .L0 
     /tmp/cci5PgaS.s:33     .text:0000000000000014 .L0 
     /tmp/cci5PgaS.s:34     .text:0000000000000018 .L0 
     /tmp/cci5PgaS.s:35     .text:0000000000000018 .L0 
     /tmp/cci5PgaS.s:37     .text:000000000000001c .L0 
     /tmp/cci5PgaS.s:39     .text:0000000000000020 .L0 
     /tmp/cci5PgaS.s:45     .text:0000000000000020 _ZN5Riscv20handleSupervisorTrapEv
     /tmp/cci5PgaS.s:48     .text:0000000000000020 .L0 
     /tmp/cci5PgaS.s:49     .text:0000000000000020 .L0 
     /tmp/cci5PgaS.s:50     .text:0000000000000024 .L0 
     /tmp/cci5PgaS.s:57     .text:000000000000003c .L0 
     /tmp/cci5PgaS.s:58     .text:000000000000003c .L0 
     /tmp/cci5PgaS.s:59     .text:000000000000003c .L0 
     /tmp/cci5PgaS.s:60     .text:000000000000003c .L0 
     /tmp/cci5PgaS.s:61     .text:000000000000003c .L0 
     /tmp/cci5PgaS.s:62     .text:000000000000003c .L0 
     /tmp/cci5PgaS.s:64     .text:0000000000000040 .L0 
     /tmp/cci5PgaS.s:69     .text:0000000000000040 .L0 
     /tmp/cci5PgaS.s:70     .text:0000000000000040 .L0 
     /tmp/cci5PgaS.s:71     .text:0000000000000040 .L0 
  src/../h/Riscv.hpp:99     .text:0000000000000040 .L0 
     /tmp/cci5PgaS.s:79     .text:0000000000000048 .L0 
     /tmp/cci5PgaS.s:80     .text:0000000000000048 .L0 
     /tmp/cci5PgaS.s:84     .text:000000000000004c .L0 
     /tmp/cci5PgaS.s:87     .text:0000000000000050 .L0 
     /tmp/cci5PgaS.s:88     .text:0000000000000050 .L0 
     /tmp/cci5PgaS.s:89     .text:0000000000000050 .L0 
       src/Riscv.cpp:24     .text:0000000000000050 .L0 
     /tmp/cci5PgaS.s:98     .text:0000000000000054 .L0 
     /tmp/cci5PgaS.s:99     .text:0000000000000054 .L0 
     /tmp/cci5PgaS.s:102    .text:0000000000000058 .L0 
     /tmp/cci5PgaS.s:108    .text:0000000000000060 .L0 
     /tmp/cci5PgaS.s:109    .text:0000000000000064 .L0 
     /tmp/cci5PgaS.s:110    .text:0000000000000064 .L0 
     /tmp/cci5PgaS.s:112    .text:0000000000000068 .L0 
     /tmp/cci5PgaS.s:113    .text:0000000000000068 .L0 
     /tmp/cci5PgaS.s:115    .text:000000000000006c .L0 
     /tmp/cci5PgaS.s:117    .text:0000000000000070 .L0 
     /tmp/cci5PgaS.s:119    .text:0000000000000074 .L0 
     /tmp/cci5PgaS.s:121    .text:0000000000000078 .L0 
     /tmp/cci5PgaS.s:123    .text:000000000000007c .L0 
     /tmp/cci5PgaS.s:127    .text:0000000000000080 .L0 
     /tmp/cci5PgaS.s:131    .text:0000000000000080 .L0 
     /tmp/cci5PgaS.s:139    .text:0000000000000088 .L0 
     /tmp/cci5PgaS.s:147    .text:0000000000000090 .L0 
     /tmp/cci5PgaS.s:157    .text:0000000000000098 .L0 
GAS LISTING /tmp/cci5PgaS.s 			page 50


     /tmp/cci5PgaS.s:169    .text:00000000000000a0 .L0 
     /tmp/cci5PgaS.s:183    .text:00000000000000a8 .L0 
     /tmp/cci5PgaS.s:199    .text:00000000000000b0 .L0 
     /tmp/cci5PgaS.s:217    .text:00000000000000b8 .L0 
     /tmp/cci5PgaS.s:237    .text:00000000000000c0 .L0 
     /tmp/cci5PgaS.s:259    .text:00000000000000c8 .L0 
     /tmp/cci5PgaS.s:283    .text:00000000000000d0 .L0 
     /tmp/cci5PgaS.s:309    .text:00000000000000d8 .L0 
     /tmp/cci5PgaS.s:315    .text:00000000000000e0 .L0 
     /tmp/cci5PgaS.s:316    .text:00000000000000e0 .L0 
     /tmp/cci5PgaS.s:317    .text:00000000000000e0 .L0 
  src/../h/Riscv.hpp:111    .text:00000000000000e0 .L0 
     /tmp/cci5PgaS.s:325    .text:00000000000000e8 .L0 
     /tmp/cci5PgaS.s:326    .text:00000000000000e8 .L0 
     /tmp/cci5PgaS.s:331    .text:00000000000000ec .L0 
     /tmp/cci5PgaS.s:336    .text:00000000000000f0 .L0 
     /tmp/cci5PgaS.s:337    .text:00000000000000f0 .L0 
     /tmp/cci5PgaS.s:338    .text:00000000000000f0 .L0 
  src/../h/Riscv.hpp:181    .text:00000000000000f0 .L0 
     /tmp/cci5PgaS.s:346    .text:00000000000000f8 .L0 
     /tmp/cci5PgaS.s:347    .text:00000000000000f8 .L0 
     /tmp/cci5PgaS.s:352    .text:00000000000000fc .L0 
     /tmp/cci5PgaS.s:353    .text:00000000000000fc .L0 
       src/Riscv.cpp:243    .text:00000000000000fc .L0 
     /tmp/cci5PgaS.s:359    .text:0000000000000100 .L0 
       src/Riscv.cpp:245    .text:0000000000000100 .L0 
     /tmp/cci5PgaS.s:367    .text:0000000000000108 .L0 
     /tmp/cci5PgaS.s:368    .text:0000000000000108 .L0 
     /tmp/cci5PgaS.s:373    .text:0000000000000110 .L0 
  src/../h/Riscv.hpp:129    .text:0000000000000110 .L0 
     /tmp/cci5PgaS.s:383    .text:0000000000000114 .L0 
     /tmp/cci5PgaS.s:384    .text:0000000000000114 .L0 
     /tmp/cci5PgaS.s:387    .text:000000000000011c .L0 
     /tmp/cci5PgaS.s:388    .text:000000000000011c .L0 
     /tmp/cci5PgaS.s:393    .text:0000000000000124 .L0 
  src/../h/Riscv.hpp:129    .text:0000000000000124 .L0 
     /tmp/cci5PgaS.s:405    .text:0000000000000128 .L0 
     /tmp/cci5PgaS.s:406    .text:0000000000000128 .L0 
  src/../h/Riscv.hpp:187    .text:0000000000000128 .L0 
     /tmp/cci5PgaS.s:418    .text:000000000000012c .L0 
     /tmp/cci5PgaS.s:419    .text:000000000000012c .L0 
  src/../h/Riscv.hpp:117    .text:000000000000012c .L0 
     /tmp/cci5PgaS.s:442    .text:0000000000000130 .L0 
     /tmp/cci5PgaS.s:451    .text:0000000000000134 .L0 
     /tmp/cci5PgaS.s:452    .text:0000000000000134 .L0 
     /tmp/cci5PgaS.s:453    .text:0000000000000134 .L0 
  src/../h/Riscv.hpp:111    .text:0000000000000134 .L0 
     /tmp/cci5PgaS.s:461    .text:000000000000013c .L0 
     /tmp/cci5PgaS.s:462    .text:000000000000013c .L0 
     /tmp/cci5PgaS.s:466    .text:0000000000000140 .L0 
     /tmp/cci5PgaS.s:471    .text:0000000000000144 .L0 
     /tmp/cci5PgaS.s:472    .text:0000000000000144 .L0 
     /tmp/cci5PgaS.s:473    .text:0000000000000144 .L0 
  src/../h/Riscv.hpp:181    .text:0000000000000144 .L0 
     /tmp/cci5PgaS.s:481    .text:000000000000014c .L0 
     /tmp/cci5PgaS.s:482    .text:000000000000014c .L0 
     /tmp/cci5PgaS.s:487    .text:0000000000000150 .L0 
GAS LISTING /tmp/cci5PgaS.s 			page 51


     /tmp/cci5PgaS.s:488    .text:0000000000000150 .L0 
     /tmp/cci5PgaS.s:489    .text:0000000000000150 .L0 
     /tmp/cci5PgaS.s:490    .text:0000000000000150 .L0 
     /tmp/cci5PgaS.s:491    .text:0000000000000150 .L0 
       src/Riscv.cpp:47     .text:0000000000000150 .L0 
     /tmp/cci5PgaS.s:497    .text:0000000000000154 .L0 
       src/Riscv.cpp:48     .text:0000000000000154 .L0 
     /tmp/cci5PgaS.s:502    .text:0000000000000158 .L0 
       src/Riscv.cpp:49     .text:0000000000000158 .L0 
     /tmp/cci5PgaS.s:507    .text:000000000000015c .L0 
       src/Riscv.cpp:50     .text:000000000000015c .L0 
     /tmp/cci5PgaS.s:512    .text:0000000000000160 .L0 
       src/Riscv.cpp:53     .text:0000000000000160 .L0 
     /tmp/cci5PgaS.s:518    .text:0000000000000164 .L0 
       src/Riscv.cpp:54     .text:0000000000000164 .L0 
     /tmp/cci5PgaS.s:524    .text:0000000000000168 .L0 
       src/Riscv.cpp:55     .text:0000000000000168 .L0 
     /tmp/cci5PgaS.s:530    .text:000000000000016c .L0 
       src/Riscv.cpp:56     .text:000000000000016c .L0 
     /tmp/cci5PgaS.s:536    .text:0000000000000170 .L0 
     /tmp/cci5PgaS.s:538    .text:0000000000000170 .L0 
     /tmp/cci5PgaS.s:541    .text:0000000000000178 .L0 
     /tmp/cci5PgaS.s:542    .text:0000000000000178 .L0 
     /tmp/cci5PgaS.s:544    .text:000000000000017c .L0 
     /tmp/cci5PgaS.s:545    .text:000000000000017c .L0 
     /tmp/cci5PgaS.s:547    .text:0000000000000180 .L0 
     /tmp/cci5PgaS.s:551    .text:0000000000000184 .L0 
       src/Riscv.cpp:68     .text:0000000000000184 .L0 
     /tmp/cci5PgaS.s:561    .text:0000000000000188 .L0 
     /tmp/cci5PgaS.s:562    .text:0000000000000188 .L0 
  src/../h/Riscv.hpp:187    .text:0000000000000188 .L0 
     /tmp/cci5PgaS.s:574    .text:000000000000018c .L0 
     /tmp/cci5PgaS.s:575    .text:000000000000018c .L0 
  src/../h/Riscv.hpp:117    .text:000000000000018c .L0 
     /tmp/cci5PgaS.s:582    .text:0000000000000190 .L0 
     /tmp/cci5PgaS.s:588    .text:0000000000000194 .L0 
     /tmp/cci5PgaS.s:599    .text:000000000000019c .L0 
     /tmp/cci5PgaS.s:600    .text:000000000000019c .L0 
     /tmp/cci5PgaS.s:601    .text:000000000000019c .L0 
  src/../h/Riscv.hpp:111    .text:000000000000019c .L0 
     /tmp/cci5PgaS.s:609    .text:00000000000001a4 .L0 
     /tmp/cci5PgaS.s:610    .text:00000000000001a4 .L0 
     /tmp/cci5PgaS.s:615    .text:00000000000001a8 .L0 
     /tmp/cci5PgaS.s:620    .text:00000000000001ac .L0 
     /tmp/cci5PgaS.s:621    .text:00000000000001ac .L0 
     /tmp/cci5PgaS.s:622    .text:00000000000001ac .L0 
  src/../h/Riscv.hpp:181    .text:00000000000001ac .L0 
     /tmp/cci5PgaS.s:630    .text:00000000000001b4 .L0 
     /tmp/cci5PgaS.s:631    .text:00000000000001b4 .L0 
     /tmp/cci5PgaS.s:636    .text:00000000000001b8 .L0 
       src/Riscv.cpp:77     .text:00000000000001b8 .L0 
     /tmp/cci5PgaS.s:643    .text:00000000000001bc .L0 
     /tmp/cci5PgaS.s:645    .text:00000000000001bc .L0 
     /tmp/cci5PgaS.s:650    .text:00000000000001c8 .L0 
       src/Riscv.cpp:81     .text:00000000000001c8 .L0 
     /tmp/cci5PgaS.s:660    .text:00000000000001cc .L0 
     /tmp/cci5PgaS.s:661    .text:00000000000001cc .L0 
GAS LISTING /tmp/cci5PgaS.s 			page 52


  src/../h/Riscv.hpp:187    .text:00000000000001cc .L0 
     /tmp/cci5PgaS.s:673    .text:00000000000001d0 .L0 
     /tmp/cci5PgaS.s:674    .text:00000000000001d0 .L0 
  src/../h/Riscv.hpp:117    .text:00000000000001d0 .L0 
     /tmp/cci5PgaS.s:681    .text:00000000000001d4 .L0 
     /tmp/cci5PgaS.s:692    .text:00000000000001d8 .L0 
     /tmp/cci5PgaS.s:693    .text:00000000000001d8 .L0 
     /tmp/cci5PgaS.s:694    .text:00000000000001d8 .L0 
  src/../h/Riscv.hpp:111    .text:00000000000001d8 .L0 
     /tmp/cci5PgaS.s:702    .text:00000000000001e0 .L0 
     /tmp/cci5PgaS.s:703    .text:00000000000001e0 .L0 
     /tmp/cci5PgaS.s:708    .text:00000000000001e4 .L0 
     /tmp/cci5PgaS.s:713    .text:00000000000001e8 .L0 
     /tmp/cci5PgaS.s:714    .text:00000000000001e8 .L0 
     /tmp/cci5PgaS.s:715    .text:00000000000001e8 .L0 
  src/../h/Riscv.hpp:181    .text:00000000000001e8 .L0 
     /tmp/cci5PgaS.s:723    .text:00000000000001f0 .L0 
     /tmp/cci5PgaS.s:724    .text:00000000000001f0 .L0 
     /tmp/cci5PgaS.s:729    .text:00000000000001f4 .L0 
       src/Riscv.cpp:90     .text:00000000000001f4 .L0 
     /tmp/cci5PgaS.s:736    .text:00000000000001f8 .L0 
     /tmp/cci5PgaS.s:738    .text:00000000000001f8 .L0 
     /tmp/cci5PgaS.s:741    .text:0000000000000200 .L0 
       src/Riscv.cpp:92     .text:0000000000000200 .L0 
     /tmp/cci5PgaS.s:751    .text:0000000000000204 .L0 
     /tmp/cci5PgaS.s:752    .text:0000000000000204 .L0 
  src/../h/Riscv.hpp:187    .text:0000000000000204 .L0 
     /tmp/cci5PgaS.s:764    .text:0000000000000208 .L0 
     /tmp/cci5PgaS.s:765    .text:0000000000000208 .L0 
  src/../h/Riscv.hpp:117    .text:0000000000000208 .L0 
     /tmp/cci5PgaS.s:772    .text:000000000000020c .L0 
     /tmp/cci5PgaS.s:783    .text:0000000000000210 .L0 
     /tmp/cci5PgaS.s:784    .text:0000000000000210 .L0 
     /tmp/cci5PgaS.s:785    .text:0000000000000210 .L0 
  src/../h/Riscv.hpp:111    .text:0000000000000210 .L0 
     /tmp/cci5PgaS.s:793    .text:0000000000000218 .L0 
     /tmp/cci5PgaS.s:794    .text:0000000000000218 .L0 
     /tmp/cci5PgaS.s:799    .text:000000000000021c .L0 
     /tmp/cci5PgaS.s:804    .text:0000000000000220 .L0 
     /tmp/cci5PgaS.s:805    .text:0000000000000220 .L0 
     /tmp/cci5PgaS.s:806    .text:0000000000000220 .L0 
  src/../h/Riscv.hpp:181    .text:0000000000000220 .L0 
     /tmp/cci5PgaS.s:814    .text:0000000000000228 .L0 
     /tmp/cci5PgaS.s:815    .text:0000000000000228 .L0 
     /tmp/cci5PgaS.s:820    .text:000000000000022c .L0 
     /tmp/cci5PgaS.s:821    .text:000000000000022c .L0 
     /tmp/cci5PgaS.s:824    .text:0000000000000238 .L0 
     /tmp/cci5PgaS.s:827    .text:0000000000000240 .L0 
     /tmp/cci5PgaS.s:828    .text:0000000000000240 .L0 
     /tmp/cci5PgaS.s:833    .text:0000000000000248 .L0 
     /tmp/cci5PgaS.s:834    .text:0000000000000248 .L0 
  src/../h/Riscv.hpp:187    .text:0000000000000248 .L0 
     /tmp/cci5PgaS.s:846    .text:000000000000024c .L0 
     /tmp/cci5PgaS.s:847    .text:000000000000024c .L0 
  src/../h/Riscv.hpp:117    .text:000000000000024c .L0 
     /tmp/cci5PgaS.s:854    .text:0000000000000250 .L0 
     /tmp/cci5PgaS.s:865    .text:0000000000000254 .L0 
GAS LISTING /tmp/cci5PgaS.s 			page 53


     /tmp/cci5PgaS.s:866    .text:0000000000000254 .L0 
     /tmp/cci5PgaS.s:867    .text:0000000000000254 .L0 
  src/../h/Riscv.hpp:111    .text:0000000000000254 .L0 
     /tmp/cci5PgaS.s:875    .text:000000000000025c .L0 
     /tmp/cci5PgaS.s:876    .text:000000000000025c .L0 
     /tmp/cci5PgaS.s:881    .text:0000000000000260 .L0 
     /tmp/cci5PgaS.s:886    .text:0000000000000264 .L0 
     /tmp/cci5PgaS.s:887    .text:0000000000000264 .L0 
     /tmp/cci5PgaS.s:888    .text:0000000000000264 .L0 
  src/../h/Riscv.hpp:181    .text:0000000000000264 .L0 
     /tmp/cci5PgaS.s:896    .text:000000000000026c .L0 
     /tmp/cci5PgaS.s:897    .text:000000000000026c .L0 
     /tmp/cci5PgaS.s:902    .text:0000000000000270 .L0 
     /tmp/cci5PgaS.s:903    .text:0000000000000270 .L0 
     /tmp/cci5PgaS.s:908    .text:0000000000000278 .L0 
     /tmp/cci5PgaS.s:909    .text:0000000000000278 .L0 
  src/../h/Riscv.hpp:187    .text:0000000000000278 .L0 
     /tmp/cci5PgaS.s:921    .text:000000000000027c .L0 
     /tmp/cci5PgaS.s:922    .text:000000000000027c .L0 
  src/../h/Riscv.hpp:117    .text:000000000000027c .L0 
     /tmp/cci5PgaS.s:929    .text:0000000000000280 .L0 
     /tmp/cci5PgaS.s:940    .text:0000000000000284 .L0 
     /tmp/cci5PgaS.s:941    .text:0000000000000284 .L0 
     /tmp/cci5PgaS.s:942    .text:0000000000000284 .L0 
  src/../h/Riscv.hpp:111    .text:0000000000000284 .L0 
     /tmp/cci5PgaS.s:950    .text:000000000000028c .L0 
     /tmp/cci5PgaS.s:951    .text:000000000000028c .L0 
     /tmp/cci5PgaS.s:956    .text:0000000000000290 .L0 
     /tmp/cci5PgaS.s:961    .text:0000000000000294 .L0 
     /tmp/cci5PgaS.s:962    .text:0000000000000294 .L0 
     /tmp/cci5PgaS.s:963    .text:0000000000000294 .L0 
  src/../h/Riscv.hpp:181    .text:0000000000000294 .L0 
     /tmp/cci5PgaS.s:971    .text:000000000000029c .L0 
     /tmp/cci5PgaS.s:972    .text:000000000000029c .L0 
     /tmp/cci5PgaS.s:977    .text:00000000000002a0 .L0 
     /tmp/cci5PgaS.s:978    .text:00000000000002a0 .L0 
     /tmp/cci5PgaS.s:981    .text:00000000000002ac .L0 
     /tmp/cci5PgaS.s:982    .text:00000000000002ac .L0 
     /tmp/cci5PgaS.s:987    .text:00000000000002b4 .L0 
     /tmp/cci5PgaS.s:988    .text:00000000000002b4 .L0 
  src/../h/Riscv.hpp:187    .text:00000000000002b4 .L0 
     /tmp/cci5PgaS.s:1000   .text:00000000000002b8 .L0 
     /tmp/cci5PgaS.s:1001   .text:00000000000002b8 .L0 
  src/../h/Riscv.hpp:117    .text:00000000000002b8 .L0 
     /tmp/cci5PgaS.s:1008   .text:00000000000002bc .L0 
     /tmp/cci5PgaS.s:1019   .text:00000000000002c0 .L0 
     /tmp/cci5PgaS.s:1020   .text:00000000000002c0 .L0 
     /tmp/cci5PgaS.s:1021   .text:00000000000002c0 .L0 
  src/../h/Riscv.hpp:111    .text:00000000000002c0 .L0 
     /tmp/cci5PgaS.s:1029   .text:00000000000002c8 .L0 
     /tmp/cci5PgaS.s:1030   .text:00000000000002c8 .L0 
     /tmp/cci5PgaS.s:1035   .text:00000000000002cc .L0 
     /tmp/cci5PgaS.s:1040   .text:00000000000002d0 .L0 
     /tmp/cci5PgaS.s:1041   .text:00000000000002d0 .L0 
     /tmp/cci5PgaS.s:1042   .text:00000000000002d0 .L0 
  src/../h/Riscv.hpp:181    .text:00000000000002d0 .L0 
     /tmp/cci5PgaS.s:1050   .text:00000000000002d8 .L0 
GAS LISTING /tmp/cci5PgaS.s 			page 54


     /tmp/cci5PgaS.s:1051   .text:00000000000002d8 .L0 
     /tmp/cci5PgaS.s:1056   .text:00000000000002dc .L0 
     /tmp/cci5PgaS.s:1057   .text:00000000000002dc .L0 
     /tmp/cci5PgaS.s:1058   .text:00000000000002dc .L0 
       src/Riscv.cpp:140    .text:00000000000002dc .L0 
     /tmp/cci5PgaS.s:1064   .text:00000000000002e0 .L0 
       src/Riscv.cpp:141    .text:00000000000002e0 .L0 
     /tmp/cci5PgaS.s:1069   .text:00000000000002e4 .L0 
       src/Riscv.cpp:143    .text:00000000000002e4 .L0 
     /tmp/cci5PgaS.s:1075   .text:00000000000002e8 .L0 
       src/Riscv.cpp:144    .text:00000000000002e8 .L0 
     /tmp/cci5PgaS.s:1081   .text:00000000000002ec .L0 
     /tmp/cci5PgaS.s:1083   .text:00000000000002ec .L0 
     /tmp/cci5PgaS.s:1090   .text:00000000000002f8 .L0 
     /tmp/cci5PgaS.s:1096   .text:00000000000002fc .L0 
     /tmp/cci5PgaS.s:1104   .text:0000000000000304 .L0 
     /tmp/cci5PgaS.s:1105   .text:0000000000000304 .L0 
     /tmp/cci5PgaS.s:1108   .text:0000000000000308 .L0 
     /tmp/cci5PgaS.s:1109   .text:0000000000000308 .L0 
     /tmp/cci5PgaS.s:1111   .text:000000000000030c .L0 
     /tmp/cci5PgaS.s:1115   .text:0000000000000310 .L0 
       src/Riscv.cpp:153    .text:0000000000000310 .L0 
     /tmp/cci5PgaS.s:1125   .text:0000000000000314 .L0 
     /tmp/cci5PgaS.s:1126   .text:0000000000000314 .L0 
  src/../h/Riscv.hpp:187    .text:0000000000000314 .L0 
     /tmp/cci5PgaS.s:1138   .text:0000000000000318 .L0 
     /tmp/cci5PgaS.s:1139   .text:0000000000000318 .L0 
  src/../h/Riscv.hpp:117    .text:0000000000000318 .L0 
     /tmp/cci5PgaS.s:1146   .text:000000000000031c .L0 
     /tmp/cci5PgaS.s:1152   .text:0000000000000320 .L0 
     /tmp/cci5PgaS.s:1162   .text:0000000000000328 .L0 
     /tmp/cci5PgaS.s:1163   .text:0000000000000328 .L0 
     /tmp/cci5PgaS.s:1164   .text:0000000000000328 .L0 
  src/../h/Riscv.hpp:111    .text:0000000000000328 .L0 
     /tmp/cci5PgaS.s:1172   .text:0000000000000330 .L0 
     /tmp/cci5PgaS.s:1173   .text:0000000000000330 .L0 
     /tmp/cci5PgaS.s:1177   .text:0000000000000334 .L0 
     /tmp/cci5PgaS.s:1182   .text:0000000000000338 .L0 
     /tmp/cci5PgaS.s:1183   .text:0000000000000338 .L0 
     /tmp/cci5PgaS.s:1184   .text:0000000000000338 .L0 
  src/../h/Riscv.hpp:181    .text:0000000000000338 .L0 
     /tmp/cci5PgaS.s:1192   .text:0000000000000340 .L0 
     /tmp/cci5PgaS.s:1193   .text:0000000000000340 .L0 
     /tmp/cci5PgaS.s:1198   .text:0000000000000344 .L0 
     /tmp/cci5PgaS.s:1199   .text:0000000000000344 .L0 
       src/Riscv.cpp:165    .text:0000000000000344 .L0 
     /tmp/cci5PgaS.s:1205   .text:0000000000000348 .L0 
       src/Riscv.cpp:167    .text:0000000000000348 .L0 
     /tmp/cci5PgaS.s:1212   .text:000000000000034c .L0 
     /tmp/cci5PgaS.s:1219   .text:0000000000000350 .L0 
     /tmp/cci5PgaS.s:1222   .text:0000000000000354 .L0 
     /tmp/cci5PgaS.s:1227   .text:000000000000035c .L0 
     /tmp/cci5PgaS.s:1228   .text:000000000000035c .L0 
     /tmp/cci5PgaS.s:1231   .text:0000000000000364 .L0 
     /tmp/cci5PgaS.s:1232   .text:0000000000000364 .L0 
     /tmp/cci5PgaS.s:1234   .text:0000000000000368 .L0 
     /tmp/cci5PgaS.s:1237   .text:0000000000000370 .L0 
GAS LISTING /tmp/cci5PgaS.s 			page 55


     /tmp/cci5PgaS.s:1238   .text:0000000000000370 .L0 
     /tmp/cci5PgaS.s:1244   .text:000000000000037c .L0 
     /tmp/cci5PgaS.s:1247   .text:000000000000037c .L0 
     /tmp/cci5PgaS.s:1248   .text:000000000000037c .L0 
     /tmp/cci5PgaS.s:1250   .text:0000000000000380 .L0 
     /tmp/cci5PgaS.s:1252   .text:0000000000000384 .L0 
     /tmp/cci5PgaS.s:1257   .text:0000000000000388 .L0 
     /tmp/cci5PgaS.s:1263   .text:000000000000038c .L0 
     /tmp/cci5PgaS.s:1264   .text:000000000000038c .L0 
     /tmp/cci5PgaS.s:1266   .text:0000000000000390 .L0 
     /tmp/cci5PgaS.s:1268   .text:0000000000000394 .L0 
     /tmp/cci5PgaS.s:1270   .text:0000000000000398 .L0 
     /tmp/cci5PgaS.s:1278   .text:00000000000003a0 .L0 
     /tmp/cci5PgaS.s:1279   .text:00000000000003a0 .L0 
     /tmp/cci5PgaS.s:1281   .text:00000000000003a4 .L0 
     /tmp/cci5PgaS.s:1288   .text:00000000000003b0 .L0 
     /tmp/cci5PgaS.s:1289   .text:00000000000003b0 .L0 
  src/../h/Riscv.hpp:187    .text:00000000000003b0 .L0 
     /tmp/cci5PgaS.s:1301   .text:00000000000003b4 .L0 
     /tmp/cci5PgaS.s:1302   .text:00000000000003b4 .L0 
  src/../h/Riscv.hpp:117    .text:00000000000003b4 .L0 
     /tmp/cci5PgaS.s:1309   .text:00000000000003b8 .L0 
     /tmp/cci5PgaS.s:1320   .text:00000000000003bc .L0 
     /tmp/cci5PgaS.s:1321   .text:00000000000003bc .L0 
     /tmp/cci5PgaS.s:1322   .text:00000000000003bc .L0 
  src/../h/Riscv.hpp:111    .text:00000000000003bc .L0 
     /tmp/cci5PgaS.s:1330   .text:00000000000003c4 .L0 
     /tmp/cci5PgaS.s:1331   .text:00000000000003c4 .L0 
     /tmp/cci5PgaS.s:1336   .text:00000000000003c8 .L0 
     /tmp/cci5PgaS.s:1341   .text:00000000000003cc .L0 
     /tmp/cci5PgaS.s:1342   .text:00000000000003cc .L0 
     /tmp/cci5PgaS.s:1343   .text:00000000000003cc .L0 
  src/../h/Riscv.hpp:181    .text:00000000000003cc .L0 
     /tmp/cci5PgaS.s:1351   .text:00000000000003d4 .L0 
     /tmp/cci5PgaS.s:1352   .text:00000000000003d4 .L0 
     /tmp/cci5PgaS.s:1357   .text:00000000000003d8 .L0 
     /tmp/cci5PgaS.s:1358   .text:00000000000003d8 .L0 
       src/Riscv.cpp:190    .text:00000000000003d8 .L0 
     /tmp/cci5PgaS.s:1364   .text:00000000000003dc .L0 
       src/Riscv.cpp:192    .text:00000000000003dc .L0 
     /tmp/cci5PgaS.s:1370   .text:00000000000003e0 .L0 
     /tmp/cci5PgaS.s:1372   .text:00000000000003e0 .L0 
     /tmp/cci5PgaS.s:1375   .text:00000000000003e8 .L0 
       src/Riscv.cpp:198    .text:00000000000003e8 .L0 
     /tmp/cci5PgaS.s:1385   .text:00000000000003ec .L0 
     /tmp/cci5PgaS.s:1386   .text:00000000000003ec .L0 
  src/../h/Riscv.hpp:187    .text:00000000000003ec .L0 
     /tmp/cci5PgaS.s:1398   .text:00000000000003f0 .L0 
     /tmp/cci5PgaS.s:1399   .text:00000000000003f0 .L0 
  src/../h/Riscv.hpp:117    .text:00000000000003f0 .L0 
     /tmp/cci5PgaS.s:1406   .text:00000000000003f4 .L0 
     /tmp/cci5PgaS.s:1417   .text:00000000000003f8 .L0 
     /tmp/cci5PgaS.s:1418   .text:00000000000003f8 .L0 
     /tmp/cci5PgaS.s:1419   .text:00000000000003f8 .L0 
  src/../h/Riscv.hpp:111    .text:00000000000003f8 .L0 
     /tmp/cci5PgaS.s:1427   .text:0000000000000400 .L0 
     /tmp/cci5PgaS.s:1428   .text:0000000000000400 .L0 
GAS LISTING /tmp/cci5PgaS.s 			page 56


     /tmp/cci5PgaS.s:1433   .text:0000000000000404 .L0 
     /tmp/cci5PgaS.s:1438   .text:0000000000000408 .L0 
     /tmp/cci5PgaS.s:1439   .text:0000000000000408 .L0 
     /tmp/cci5PgaS.s:1440   .text:0000000000000408 .L0 
  src/../h/Riscv.hpp:181    .text:0000000000000408 .L0 
     /tmp/cci5PgaS.s:1448   .text:0000000000000410 .L0 
     /tmp/cci5PgaS.s:1449   .text:0000000000000410 .L0 
     /tmp/cci5PgaS.s:1454   .text:0000000000000414 .L0 
     /tmp/cci5PgaS.s:1455   .text:0000000000000414 .L0 
       src/Riscv.cpp:209    .text:0000000000000414 .L0 
     /tmp/cci5PgaS.s:1461   .text:0000000000000418 .L0 
       src/Riscv.cpp:211    .text:0000000000000418 .L0 
     /tmp/cci5PgaS.s:1467   .text:000000000000041c .L0 
     /tmp/cci5PgaS.s:1469   .text:000000000000041c .L0 
     /tmp/cci5PgaS.s:1472   .text:0000000000000424 .L0 
     /tmp/cci5PgaS.s:1473   .text:0000000000000424 .L0 
     /tmp/cci5PgaS.s:1474   .text:0000000000000424 .L0 
     /tmp/cci5PgaS.s:1484   .text:000000000000042c .L0 
     /tmp/cci5PgaS.s:1485   .text:000000000000042c .L0 
  src/../h/Riscv.hpp:187    .text:000000000000042c .L0 
     /tmp/cci5PgaS.s:1497   .text:0000000000000430 .L0 
     /tmp/cci5PgaS.s:1498   .text:0000000000000430 .L0 
  src/../h/Riscv.hpp:117    .text:0000000000000430 .L0 
     /tmp/cci5PgaS.s:1505   .text:0000000000000434 .L0 
     /tmp/cci5PgaS.s:1516   .text:0000000000000438 .L0 
     /tmp/cci5PgaS.s:1517   .text:0000000000000438 .L0 
     /tmp/cci5PgaS.s:1518   .text:0000000000000438 .L0 
  src/../h/Riscv.hpp:111    .text:0000000000000438 .L0 
     /tmp/cci5PgaS.s:1526   .text:0000000000000440 .L0 
     /tmp/cci5PgaS.s:1527   .text:0000000000000440 .L0 
     /tmp/cci5PgaS.s:1532   .text:0000000000000444 .L0 
     /tmp/cci5PgaS.s:1537   .text:0000000000000448 .L0 
     /tmp/cci5PgaS.s:1538   .text:0000000000000448 .L0 
     /tmp/cci5PgaS.s:1539   .text:0000000000000448 .L0 
  src/../h/Riscv.hpp:181    .text:0000000000000448 .L0 
     /tmp/cci5PgaS.s:1547   .text:0000000000000450 .L0 
     /tmp/cci5PgaS.s:1548   .text:0000000000000450 .L0 
     /tmp/cci5PgaS.s:1553   .text:0000000000000454 .L0 
     /tmp/cci5PgaS.s:1554   .text:0000000000000454 .L0 
     /tmp/cci5PgaS.s:1559   .text:000000000000045c .L0 
  src/../h/Riscv.hpp:129    .text:000000000000045c .L0 
     /tmp/cci5PgaS.s:1569   .text:0000000000000460 .L0 
     /tmp/cci5PgaS.s:1570   .text:0000000000000460 .L0 
     /tmp/cci5PgaS.s:1573   .text:0000000000000468 .L0 
     /tmp/cci5PgaS.s:1574   .text:0000000000000468 .L0 
     /tmp/cci5PgaS.s:1579   .text:0000000000000470 .L0 
  src/../h/Riscv.hpp:129    .text:0000000000000470 .L0 
     /tmp/cci5PgaS.s:1589   .text:0000000000000474 .L0 
       src/Riscv.cpp:232    .text:0000000000000474 .L0 
     /tmp/cci5PgaS.s:1599   .text:0000000000000478 .L0 
     /tmp/cci5PgaS.s:1600   .text:0000000000000478 .L0 
  src/../h/Riscv.hpp:187    .text:0000000000000478 .L0 
     /tmp/cci5PgaS.s:1612   .text:000000000000047c .L0 
     /tmp/cci5PgaS.s:1613   .text:000000000000047c .L0 
  src/../h/Riscv.hpp:117    .text:000000000000047c .L0 
     /tmp/cci5PgaS.s:1620   .text:0000000000000480 .L0 
     /tmp/cci5PgaS.s:1635   .text:0000000000000484 .L0 
GAS LISTING /tmp/cci5PgaS.s 			page 57


     /tmp/cci5PgaS.s:1641   .text:0000000000000484 _ZN5Riscv17handleTrapConsoleEv
     /tmp/cci5PgaS.s:1644   .text:0000000000000484 .L0 
     /tmp/cci5PgaS.s:1645   .text:0000000000000484 .L0 
     /tmp/cci5PgaS.s:1646   .text:0000000000000488 .L0 
     /tmp/cci5PgaS.s:1649   .text:0000000000000490 .L0 
     /tmp/cci5PgaS.s:1650   .text:0000000000000490 .L0 
     /tmp/cci5PgaS.s:1652   .text:0000000000000494 .L0 
     /tmp/cci5PgaS.s:1656   .text:0000000000000494 .L0 
     /tmp/cci5PgaS.s:1657   .text:0000000000000494 .L0 
     /tmp/cci5PgaS.s:1658   .text:0000000000000494 .L0 
  src/../h/Riscv.hpp:99     .text:0000000000000494 .L0 
     /tmp/cci5PgaS.s:1666   .text:000000000000049c .L0 
     /tmp/cci5PgaS.s:1667   .text:000000000000049c .L0 
     /tmp/cci5PgaS.s:1672   .text:00000000000004a0 .L0 
     /tmp/cci5PgaS.s:1677   .text:00000000000004b0 .L0 
     /tmp/cci5PgaS.s:1684   .text:00000000000004c0 .L0 
     /tmp/cci5PgaS.s:1685   .text:00000000000004c4 .L0 
     /tmp/cci5PgaS.s:1686   .text:00000000000004c4 .L0 
     /tmp/cci5PgaS.s:1688   .text:00000000000004c8 .L0 
     /tmp/cci5PgaS.s:1689   .text:00000000000004c8 .L0 
     /tmp/cci5PgaS.s:1691   .text:00000000000004cc .L0 
     /tmp/cci5PgaS.s:1695   .text:00000000000004d0 .L0 
     /tmp/cci5PgaS.s:1697   .text:00000000000004d0 .L0 
     /tmp/cci5PgaS.s:1698   .text:00000000000004d0 .L0 
     /tmp/cci5PgaS.s:1703   .text:00000000000004d8 .L0 
     /tmp/cci5PgaS.s:1704   .text:00000000000004d8 .L0 
     /tmp/cci5PgaS.s:1705   .text:00000000000004d8 .L0 
     /tmp/cci5PgaS.s:1712   .text:00000000000004e0 .L0 
     /tmp/cci5PgaS.s:1720   .text:00000000000004e4 .L0 
     /tmp/cci5PgaS.s:1721   .text:00000000000004e4 .L0 
     /tmp/cci5PgaS.s:1722   .text:00000000000004e4 .L0 
     /tmp/cci5PgaS.s:1732   .text:00000000000004ec .L0 
     /tmp/cci5PgaS.s:1733   .text:00000000000004f0 .L0 
     /tmp/cci5PgaS.s:1743   .text:00000000000004f0 .L0 
     /tmp/cci5PgaS.s:368    .text:0000000000000108 .L0 
     /tmp/cci5PgaS.s:388    .text:000000000000011c .L0 
     /tmp/cci5PgaS.s:821    .text:000000000000022c .L0 
     /tmp/cci5PgaS.s:978    .text:00000000000002a0 .L0 
     /tmp/cci5PgaS.s:1554   .text:0000000000000454 .L0 
     /tmp/cci5PgaS.s:1574   .text:0000000000000468 .L0 
     /tmp/cci5PgaS.s:126    .text:0000000000000080 .L25
     /tmp/cci5PgaS.s:444    .text:0000000000000134 .L26
     /tmp/cci5PgaS.s:591    .text:000000000000019c .L27
     /tmp/cci5PgaS.s:683    .text:00000000000001d8 .L28
     /tmp/cci5PgaS.s:774    .text:0000000000000210 .L29
     /tmp/cci5PgaS.s:856    .text:0000000000000254 .L30
     /tmp/cci5PgaS.s:931    .text:0000000000000284 .L31
     /tmp/cci5PgaS.s:1010   .text:00000000000002c0 .L32
     /tmp/cci5PgaS.s:1155   .text:0000000000000328 .L33
     /tmp/cci5PgaS.s:1311   .text:00000000000003bc .L34
     /tmp/cci5PgaS.s:1408   .text:00000000000003f8 .L35
     /tmp/cci5PgaS.s:1507   .text:0000000000000438 .L36
     /tmp/cci5PgaS.s:105    .text:0000000000000060 .L3
     /tmp/cci5PgaS.s:584    .text:0000000000000194 .L22
     /tmp/cci5PgaS.s:133    .text:0000000000000088 .L5
     /tmp/cci5PgaS.s:548    .text:0000000000000184 .L6
     /tmp/cci5PgaS.s:1148   .text:0000000000000320 .L23
GAS LISTING /tmp/cci5PgaS.s 			page 58


     /tmp/cci5PgaS.s:1112   .text:0000000000000310 .L13
     /tmp/cci5PgaS.s:1241   .text:000000000000037c .L17
     /tmp/cci5PgaS.s:1273   .text:00000000000003a0 .L15
     /tmp/cci5PgaS.s:1214   .text:0000000000000350 .L16
     /tmp/cci5PgaS.s:1284   .text:00000000000003b0 .L18
     /tmp/cci5PgaS.s:1694   .text:00000000000004d0 .L41
     /tmp/cci5PgaS.s:1714   .text:00000000000004e4 .L42
     /tmp/cci5PgaS.s:1682   .text:00000000000004c0 .L37
     /tmp/cci5PgaS.s:4663   .debug_abbrev:0000000000000000 .Ldebug_abbrev0
     /tmp/cci5PgaS.s:6866   .debug_str:0000000000000a76 .LASF207
     /tmp/cci5PgaS.s:6590   .debug_str:0000000000000170 .LASF208
     /tmp/cci5PgaS.s:6730   .debug_str:000000000000061a .LASF209
     /tmp/cci5PgaS.s:5      .text:0000000000000000 .Ltext0
     /tmp/cci5PgaS.s:1736   .text:00000000000004f0 .Letext0
     /tmp/cci5PgaS.s:6536   .debug_line:0000000000000000 .Ldebug_line0
     /tmp/cci5PgaS.s:6784   .debug_str:000000000000081e .LASF3
     /tmp/cci5PgaS.s:6666   .debug_str:00000000000003f6 .LASF0
     /tmp/cci5PgaS.s:6708   .debug_str:000000000000059c .LASF1
     /tmp/cci5PgaS.s:6802   .debug_str:00000000000008aa .LASF2
     /tmp/cci5PgaS.s:6814   .debug_str:0000000000000918 .LASF4
     /tmp/cci5PgaS.s:6682   .debug_str:000000000000046d .LASF5
     /tmp/cci5PgaS.s:6550   .debug_str:0000000000000057 .LASF6
     /tmp/cci5PgaS.s:6756   .debug_str:00000000000006f4 .LASF7
     /tmp/cci5PgaS.s:6696   .debug_str:000000000000053a .LASF8
     /tmp/cci5PgaS.s:6634   .debug_str:00000000000002e4 .LASF9
     /tmp/cci5PgaS.s:6642   .debug_str:0000000000000326 .LASF10
     /tmp/cci5PgaS.s:6578   .debug_str:0000000000000115 .LASF11
     /tmp/cci5PgaS.s:6624   .debug_str:000000000000029a .LASF12
     /tmp/cci5PgaS.s:6592   .debug_str:000000000000017e .LASF13
     /tmp/cci5PgaS.s:6576   .debug_str:0000000000000105 .LASF14
     /tmp/cci5PgaS.s:6840   .debug_str:00000000000009d5 .LASF15
     /tmp/cci5PgaS.s:6612   .debug_str:000000000000021c .LASF16
     /tmp/cci5PgaS.s:6830   .debug_str:000000000000099f .LASF17
     /tmp/cci5PgaS.s:6918   .debug_str:0000000000000c9b .LASF63
     /tmp/cci5PgaS.s:6780   .debug_str:00000000000007f6 .LASF122
     /tmp/cci5PgaS.s:6712   .debug_str:00000000000005b5 .LASF18
     /tmp/cci5PgaS.s:6618   .debug_str:0000000000000259 .LASF19
     /tmp/cci5PgaS.s:6934   .debug_str:0000000000000d01 .LASF20
     /tmp/cci5PgaS.s:6654   .debug_str:000000000000039f .LASF53
     /tmp/cci5PgaS.s:6664   .debug_str:00000000000003de .LASF55
     /tmp/cci5PgaS.s:6894   .debug_str:0000000000000be6 .LASF21
     /tmp/cci5PgaS.s:6882   .debug_str:0000000000000ba6 .LASF23
     /tmp/cci5PgaS.s:6796   .debug_str:0000000000000884 .LASF25
     /tmp/cci5PgaS.s:6748   .debug_str:00000000000006be .LASF27
     /tmp/cci5PgaS.s:6772   .debug_str:00000000000007ad .LASF22
     /tmp/cci5PgaS.s:6774   .debug_str:00000000000007b4 .LASF24
     /tmp/cci5PgaS.s:6744   .debug_str:00000000000006a3 .LASF26
     /tmp/cci5PgaS.s:6700   .debug_str:000000000000056f .LASF28
     /tmp/cci5PgaS.s:6930   .debug_str:0000000000000ced .LASF29
     /tmp/cci5PgaS.s:6872   .debug_str:0000000000000b5b .LASF30
     /tmp/cci5PgaS.s:6740   .debug_str:0000000000000696 .LASF31
     /tmp/cci5PgaS.s:6746   .debug_str:00000000000006aa .LASF32
     /tmp/cci5PgaS.s:6714   .debug_str:00000000000005be .LASF33
     /tmp/cci5PgaS.s:6778   .debug_str:00000000000007e2 .LASF34
     /tmp/cci5PgaS.s:6960   .debug_str:0000000000000dd5 .LASF35
     /tmp/cci5PgaS.s:6672   .debug_str:000000000000040e .LASF36
     /tmp/cci5PgaS.s:6836   .debug_str:00000000000009c1 .LASF37
GAS LISTING /tmp/cci5PgaS.s 			page 59


     /tmp/cci5PgaS.s:6818   .debug_str:0000000000000945 .LASF38
     /tmp/cci5PgaS.s:6820   .debug_str:0000000000000958 .LASF39
     /tmp/cci5PgaS.s:6582   .debug_str:0000000000000129 .LASF40
     /tmp/cci5PgaS.s:6608   .debug_str:00000000000001f7 .LASF41
     /tmp/cci5PgaS.s:6660   .debug_str:00000000000003b7 .LASF42
     /tmp/cci5PgaS.s:6670   .debug_str:0000000000000408 .LASF43
     /tmp/cci5PgaS.s:6600   .debug_str:00000000000001ba .LASF44
     /tmp/cci5PgaS.s:6552   .debug_str:000000000000005e .LASF45
     /tmp/cci5PgaS.s:6808   .debug_str:00000000000008ce .LASF46
     /tmp/cci5PgaS.s:6800   .debug_str:000000000000089f .LASF47
     /tmp/cci5PgaS.s:6952   .debug_str:0000000000000d8a .LASF48
     /tmp/cci5PgaS.s:6922   .debug_str:0000000000000ca6 .LASF49
     /tmp/cci5PgaS.s:6936   .debug_str:0000000000000d0a .LASF50
     /tmp/cci5PgaS.s:6916   .debug_str:0000000000000c91 .LASF51
     /tmp/cci5PgaS.s:6732   .debug_str:000000000000064a .LASF52
     /tmp/cci5PgaS.s:6928   .debug_str:0000000000000cde .LASF54
     /tmp/cci5PgaS.s:6640   .debug_str:000000000000030a .LASF56
     /tmp/cci5PgaS.s:6804   .debug_str:00000000000008b8 .LASF57
     /tmp/cci5PgaS.s:6954   .debug_str:0000000000000da2 .LASF58
     /tmp/cci5PgaS.s:6758   .debug_str:0000000000000707 .LASF59
     /tmp/cci5PgaS.s:6692   .debug_str:00000000000004fb .LASF61
     /tmp/cci5PgaS.s:6798   .debug_str:000000000000088d .LASF60
     /tmp/cci5PgaS.s:6610   .debug_str:00000000000001fd .LASF62
     /tmp/cci5PgaS.s:6926   .debug_str:0000000000000cba .LASF64
     /tmp/cci5PgaS.s:6912   .debug_str:0000000000000c6c .LASF98
     /tmp/cci5PgaS.s:6706   .debug_str:0000000000000597 .LASF65
     /tmp/cci5PgaS.s:6580   .debug_str:0000000000000124 .LASF66
     /tmp/cci5PgaS.s:6556   .debug_str:0000000000000082 .LASF67
     /tmp/cci5PgaS.s:6678   .debug_str:0000000000000432 .LASF100
     /tmp/cci5PgaS.s:6834   .debug_str:00000000000009bc .LASF68
     /tmp/cci5PgaS.s:6742   .debug_str:000000000000069e .LASF69
     /tmp/cci5PgaS.s:6956   .debug_str:0000000000000dbb .LASF70
     /tmp/cci5PgaS.s:6810   .debug_str:00000000000008e6 .LASF73
     /tmp/cci5PgaS.s:6622   .debug_str:0000000000000279 .LASF71
     /tmp/cci5PgaS.s:6806   .debug_str:00000000000008c4 .LASF72
     /tmp/cci5PgaS.s:6788   .debug_str:000000000000082b .LASF74
     /tmp/cci5PgaS.s:6752   .debug_str:00000000000006d8 .LASF75
     /tmp/cci5PgaS.s:6932   .debug_str:0000000000000cf5 .LASF76
     /tmp/cci5PgaS.s:6734   .debug_str:0000000000000660 .LASF77
     /tmp/cci5PgaS.s:6848   .debug_str:0000000000000a02 .LASF78
     /tmp/cci5PgaS.s:6570   .debug_str:00000000000000c7 .LASF79
     /tmp/cci5PgaS.s:6896   .debug_str:0000000000000bef .LASF80
     /tmp/cci5PgaS.s:6614   .debug_str:0000000000000232 .LASF81
     /tmp/cci5PgaS.s:6676   .debug_str:0000000000000428 .LASF82
     /tmp/cci5PgaS.s:6764   .debug_str:0000000000000740 .LASF83
     /tmp/cci5PgaS.s:6860   .debug_str:0000000000000a43 .LASF138
     /tmp/cci5PgaS.s:6686   .debug_str:00000000000004ab .LASF84
     /tmp/cci5PgaS.s:6900   .debug_str:0000000000000bfe .LASF85
     /tmp/cci5PgaS.s:6554   .debug_str:0000000000000069 .LASF86
     /tmp/cci5PgaS.s:6586   .debug_str:000000000000015a .LASF87
     /tmp/cci5PgaS.s:6876   .debug_str:0000000000000b79 .LASF88
     /tmp/cci5PgaS.s:6786   .debug_str:0000000000000823 .LASF89
     /tmp/cci5PgaS.s:6632   .debug_str:00000000000002da .LASF90
     /tmp/cci5PgaS.s:6826   .debug_str:000000000000097b .LASF91
     /tmp/cci5PgaS.s:6940   .debug_str:0000000000000d30 .LASF92
     /tmp/cci5PgaS.s:6946   .debug_str:0000000000000d4f .LASF210
     /tmp/cci5PgaS.s:6690   .debug_str:00000000000004df .LASF211
GAS LISTING /tmp/cci5PgaS.s 			page 60


     /tmp/cci5PgaS.s:6694   .debug_str:000000000000051d .LASF93
     /tmp/cci5PgaS.s:6574   .debug_str:00000000000000f0 .LASF94
     /tmp/cci5PgaS.s:6812   .debug_str:0000000000000903 .LASF95
     /tmp/cci5PgaS.s:6962   .debug_str:0000000000000ddd .LASF96
     /tmp/cci5PgaS.s:6898   .debug_str:0000000000000bf9 .LASF99
     /tmp/cci5PgaS.s:6704   .debug_str:0000000000000592 .LASF97
     /tmp/cci5PgaS.s:6864   .debug_str:0000000000000a53 .LASF101
     /tmp/cci5PgaS.s:6736   .debug_str:0000000000000684 .LASF102
     /tmp/cci5PgaS.s:6906   .debug_str:0000000000000c49 .LASF103
     /tmp/cci5PgaS.s:6776   .debug_str:00000000000007c7 .LASF104
     /tmp/cci5PgaS.s:6652   .debug_str:0000000000000384 .LASF212
     /tmp/cci5PgaS.s:6728   .debug_str:000000000000060d .LASF105
     /tmp/cci5PgaS.s:6544   .debug_str:000000000000002b .LASF106
     /tmp/cci5PgaS.s:6548   .debug_str:0000000000000047 .LASF107
     /tmp/cci5PgaS.s:6688   .debug_str:00000000000004c7 .LASF108
     /tmp/cci5PgaS.s:6794   .debug_str:000000000000087b .LASF109
     /tmp/cci5PgaS.s:6950   .debug_str:0000000000000d69 .LASF110
     /tmp/cci5PgaS.s:6720   .debug_str:00000000000005e0 .LASF111
     /tmp/cci5PgaS.s:6914   .debug_str:0000000000000c71 .LASF112
     /tmp/cci5PgaS.s:6754   .debug_str:00000000000006e8 .LASF113
     /tmp/cci5PgaS.s:6698   .debug_str:000000000000054d .LASF114
     /tmp/cci5PgaS.s:6964   .debug_str:0000000000000deb .LASF115
     /tmp/cci5PgaS.s:6792   .debug_str:000000000000085c .LASF116
     /tmp/cci5PgaS.s:6824   .debug_str:0000000000000970 .LASF117
     /tmp/cci5PgaS.s:6626   .debug_str:00000000000002a9 .LASF118
     /tmp/cci5PgaS.s:6762   .debug_str:0000000000000737 .LASF119
     /tmp/cci5PgaS.s:6584   .debug_str:000000000000013c .LASF120
     /tmp/cci5PgaS.s:6558   .debug_str:0000000000000087 .LASF121
     /tmp/cci5PgaS.s:6942   .debug_str:0000000000000d42 .LASF123
     /tmp/cci5PgaS.s:6572   .debug_str:00000000000000ea .LASF124
     /tmp/cci5PgaS.s:6564   .debug_str:00000000000000a0 .LASF125
     /tmp/cci5PgaS.s:6724   .debug_str:00000000000005f1 .LASF126
     /tmp/cci5PgaS.s:6852   .debug_str:0000000000000a16 .LASF127
     /tmp/cci5PgaS.s:6844   .debug_str:00000000000009f2 .LASF128
     /tmp/cci5PgaS.s:6702   .debug_str:0000000000000582 .LASF129
     /tmp/cci5PgaS.s:6854   .debug_str:0000000000000a1e .LASF130
     /tmp/cci5PgaS.s:6760   .debug_str:000000000000071c .LASF131
     /tmp/cci5PgaS.s:6562   .debug_str:0000000000000094 .LASF132
     /tmp/cci5PgaS.s:6904   .debug_str:0000000000000c2e .LASF133
     /tmp/cci5PgaS.s:6738   .debug_str:0000000000000689 .LASF134
     /tmp/cci5PgaS.s:6602   .debug_str:00000000000001cc .LASF135
     /tmp/cci5PgaS.s:6838   .debug_str:00000000000009c8 .LASF136
     /tmp/cci5PgaS.s:6816   .debug_str:000000000000091f .LASF137
     /tmp/cci5PgaS.s:6750   .debug_str:00000000000006d3 .LASF139
     /tmp/cci5PgaS.s:6710   .debug_str:00000000000005af .LASF140
     /tmp/cci5PgaS.s:6540   .debug_str:0000000000000011 .LASF141
     /tmp/cci5PgaS.s:6944   .debug_str:0000000000000d49 .LASF142
     /tmp/cci5PgaS.s:6768   .debug_str:0000000000000785 .LASF143
     /tmp/cci5PgaS.s:6722   .debug_str:00000000000005e8 .LASF144
     /tmp/cci5PgaS.s:6870   .debug_str:0000000000000b43 .LASF145
     /tmp/cci5PgaS.s:6862   .debug_str:0000000000000a4b .LASF213
     /tmp/cci5PgaS.s:6674   .debug_str:0000000000000422 .LASF146
     /tmp/cci5PgaS.s:6902   .debug_str:0000000000000c1a .LASF147
     /tmp/cci5PgaS.s:6588   .debug_str:0000000000000163 .LASF148
     /tmp/cci5PgaS.s:6878   .debug_str:0000000000000b82 .LASF149
     /tmp/cci5PgaS.s:6790   .debug_str:000000000000084c .LASF150
     /tmp/cci5PgaS.s:6568   .debug_str:00000000000000b7 .LASF151
GAS LISTING /tmp/cci5PgaS.s 			page 61


     /tmp/cci5PgaS.s:6938   .debug_str:0000000000000d20 .LASF152
     /tmp/cci5PgaS.s:6842   .debug_str:00000000000009e1 .LASF153
     /tmp/cci5PgaS.s:6828   .debug_str:000000000000098c .LASF154
     /tmp/cci5PgaS.s:6538   .debug_str:0000000000000000 .LASF155
     /tmp/cci5PgaS.s:6648   .debug_str:0000000000000361 .LASF156
     /tmp/cci5PgaS.s:6546   .debug_str:0000000000000042 .LASF157
     /tmp/cci5PgaS.s:6948   .debug_str:0000000000000d63 .LASF158
     /tmp/cci5PgaS.s:6880   .debug_str:0000000000000b9e .LASF159
     /tmp/cci5PgaS.s:6874   .debug_str:0000000000000b6f .LASF160
     /tmp/cci5PgaS.s:6850   .debug_str:0000000000000a0d .LASF161
     /tmp/cci5PgaS.s:6924   .debug_str:0000000000000cb0 .LASF162
     /tmp/cci5PgaS.s:6566   .debug_str:00000000000000a9 .LASF163
     /tmp/cci5PgaS.s:6782   .debug_str:0000000000000801 .LASF164
     /tmp/cci5PgaS.s:6594   .debug_str:000000000000018e .LASF165
     /tmp/cci5PgaS.s:6684   .debug_str:000000000000047f .LASF166
     /tmp/cci5PgaS.s:6604   .debug_str:00000000000001e9 .LASF167
     /tmp/cci5PgaS.s:6598   .debug_str:00000000000001a3 .LASF168
     /tmp/cci5PgaS.s:6822   .debug_str:000000000000095f .LASF169
     /tmp/cci5PgaS.s:6868   .debug_str:0000000000000b3a .LASF170
     /tmp/cci5PgaS.s:6910   .debug_str:0000000000000c65 .LASF171
     /tmp/cci5PgaS.s:6958   .debug_str:0000000000000dcc .LASF172
     /tmp/cci5PgaS.s:6616   .debug_str:0000000000000254 .LASF173
     /tmp/cci5PgaS.s:6630   .debug_str:00000000000002cf .LASF174
     /tmp/cci5PgaS.s:6644   .debug_str:0000000000000334 .LASF175
     /tmp/cci5PgaS.s:6606   .debug_str:00000000000001f2 .LASF176
     /tmp/cci5PgaS.s:6884   .debug_str:0000000000000bbb .LASF177
     /tmp/cci5PgaS.s:6846   .debug_str:00000000000009fb .LASF178
     /tmp/cci5PgaS.s:6680   .debug_str:0000000000000454 .LASF179
     /tmp/cci5PgaS.s:6656   .debug_str:00000000000003aa .LASF180
     /tmp/cci5PgaS.s:6646   .debug_str:0000000000000348 .LASF181
     /tmp/cci5PgaS.s:6726   .debug_str:00000000000005f9 .LASF182
     /tmp/cci5PgaS.s:6718   .debug_str:00000000000005cc .LASF183
     /tmp/cci5PgaS.s:6662   .debug_str:00000000000003c9 .LASF184
     /tmp/cci5PgaS.s:6856   .debug_str:0000000000000a29 .LASF185
     /tmp/cci5PgaS.s:6766   .debug_str:000000000000077d .LASF186
     /tmp/cci5PgaS.s:6636   .debug_str:00000000000002f4 .LASF187
     /tmp/cci5PgaS.s:6858   .debug_str:0000000000000a3e .LASF188
     /tmp/cci5PgaS.s:6628   .debug_str:00000000000002ca .LASF190
     /tmp/cci5PgaS.s:6668   .debug_str:0000000000000403 .LASF189
     /tmp/cci5PgaS.s:6620   .debug_str:0000000000000262 .LASF199
     /tmp/cci5PgaS.s:1642   .text:0000000000000484 .LFB51
     /tmp/cci5PgaS.s:1734   .text:00000000000004f0 .LFE51
     /tmp/cci5PgaS.s:6832   .debug_str:00000000000009b5 .LASF191
     /tmp/cci5PgaS.s:5884   .debug_loc:0000000000000000 .LLST75
     /tmp/cci5PgaS.s:1654   .text:0000000000000494 .LBB376
     /tmp/cci5PgaS.s:1670   .text:00000000000004a0 .LBE376
     /tmp/cci5PgaS.s:1701   .text:00000000000004d8 .LBB378
     /tmp/cci5PgaS.s:1716   .text:00000000000004e4 .LBE378
     /tmp/cci5PgaS.s:5899   .debug_loc:0000000000000049 .LLST76
     /tmp/cci5PgaS.s:1718   .text:00000000000004e4 .LBB380
     /tmp/cci5PgaS.s:1730   .text:00000000000004ec .LBE380
     /tmp/cci5PgaS.s:5908   .debug_loc:000000000000006f .LLST77
     /tmp/cci5PgaS.s:1699   .text:00000000000004d8 .LVL120
     /tmp/cci5PgaS.s:46     .text:0000000000000020 .LFB50
     /tmp/cci5PgaS.s:1636   .text:0000000000000484 .LFE50
     /tmp/cci5PgaS.s:5916   .debug_loc:0000000000000093 .LLST0
     /tmp/cci5PgaS.s:6542   .debug_str:0000000000000025 .LASF192
GAS LISTING /tmp/cci5PgaS.s 			page 62


     /tmp/cci5PgaS.s:5923   .debug_loc:00000000000000b6 .LLST1
     /tmp/cci5PgaS.s:6886   .debug_str:0000000000000bd2 .LASF193
     /tmp/cci5PgaS.s:5974   .debug_loc:00000000000001aa .LLST2
     /tmp/cci5PgaS.s:447    .text:0000000000000134 .LBB158
     /tmp/cci5PgaS.s:592    .text:000000000000019c .LBE158
     /tmp/cci5PgaS.s:6920   .debug_str:0000000000000ca1 .LASF194
     /tmp/cci5PgaS.s:5985   .debug_loc:00000000000001e0 .LLST3
     /tmp/cci5PgaS.s:6650   .debug_str:000000000000037c .LASF195
     /tmp/cci5PgaS.s:5992   .debug_loc:0000000000000203 .LLST4
     /tmp/cci5PgaS.s:5999   .debug_loc:0000000000000226 .LLST5
     /tmp/cci5PgaS.s:6888   .debug_str:0000000000000bd7 .LASF196
     /tmp/cci5PgaS.s:6006   .debug_loc:0000000000000249 .LLST6
     /tmp/cci5PgaS.s:6890   .debug_str:0000000000000bdc .LASF197
     /tmp/cci5PgaS.s:6013   .debug_loc:000000000000026c .LLST7
     /tmp/cci5PgaS.s:6892   .debug_str:0000000000000be1 .LASF198
     /tmp/cci5PgaS.s:6020   .debug_loc:000000000000028f .LLST8
     /tmp/cci5PgaS.s:6027   .debug_loc:00000000000002b2 .LLST9
     /tmp/cci5PgaS.s:6034   .debug_loc:00000000000002d5 .LLST10
     /tmp/cci5PgaS.s:449    .text:0000000000000134 .LBB159
     /tmp/cci5PgaS.s:464    .text:0000000000000140 .LBE159
     /tmp/cci5PgaS.s:469    .text:0000000000000144 .LBB161
     /tmp/cci5PgaS.s:485    .text:0000000000000150 .LBE161
     /tmp/cci5PgaS.s:559    .text:0000000000000188 .LBB163
     /tmp/cci5PgaS.s:570    .text:000000000000018c .LBE163
     /tmp/cci5PgaS.s:6041   .debug_loc:00000000000002f8 .LLST11
     /tmp/cci5PgaS.s:572    .text:000000000000018c .LBB165
     /tmp/cci5PgaS.s:586    .text:0000000000000194 .LBE165
     /tmp/cci5PgaS.s:6048   .debug_loc:000000000000031b .LLST12
     /tmp/cci5PgaS.s:539    .text:0000000000000178 .LVL23
     /tmp/cci5PgaS.s:595    .text:000000000000019c .LBB341
     /tmp/cci5PgaS.s:686    .text:00000000000001d8 .LBE341
     /tmp/cci5PgaS.s:6055   .debug_loc:000000000000033e .LLST70
     /tmp/cci5PgaS.s:6062   .debug_loc:0000000000000361 .LLST71
     /tmp/cci5PgaS.s:6069   .debug_loc:0000000000000384 .LLST72
     /tmp/cci5PgaS.s:597    .text:000000000000019c .LBB342
     /tmp/cci5PgaS.s:613    .text:00000000000001a8 .LBE342
     /tmp/cci5PgaS.s:618    .text:00000000000001ac .LBB344
     /tmp/cci5PgaS.s:634    .text:00000000000001b8 .LBE344
     /tmp/cci5PgaS.s:658    .text:00000000000001cc .LBB346
     /tmp/cci5PgaS.s:669    .text:00000000000001d0 .LBE346
     /tmp/cci5PgaS.s:6076   .debug_loc:00000000000003a7 .LLST73
     /tmp/cci5PgaS.s:671    .text:00000000000001d0 .LBB348
     /tmp/cci5PgaS.s:685    .text:00000000000001d8 .LBE348
     /tmp/cci5PgaS.s:6083   .debug_loc:00000000000003ca .LLST74
     /tmp/cci5PgaS.s:648    .text:00000000000001c8 .LVL34
     /tmp/cci5PgaS.s:688    .text:00000000000001d8 .LBB322
     /tmp/cci5PgaS.s:777    .text:0000000000000210 .LBE322
     /tmp/cci5PgaS.s:6090   .debug_loc:00000000000003ed .LLST65
     /tmp/cci5PgaS.s:6097   .debug_loc:0000000000000410 .LLST66
     /tmp/cci5PgaS.s:6104   .debug_loc:0000000000000433 .LLST67
     /tmp/cci5PgaS.s:690    .text:00000000000001d8 .LBB323
     /tmp/cci5PgaS.s:706    .text:00000000000001e4 .LBE323
     /tmp/cci5PgaS.s:711    .text:00000000000001e8 .LBB325
     /tmp/cci5PgaS.s:727    .text:00000000000001f4 .LBE325
     /tmp/cci5PgaS.s:749    .text:0000000000000204 .LBB327
     /tmp/cci5PgaS.s:760    .text:0000000000000208 .LBE327
     /tmp/cci5PgaS.s:6111   .debug_loc:0000000000000456 .LLST68
GAS LISTING /tmp/cci5PgaS.s 			page 63


     /tmp/cci5PgaS.s:762    .text:0000000000000208 .LBB329
     /tmp/cci5PgaS.s:776    .text:0000000000000210 .LBE329
     /tmp/cci5PgaS.s:6118   .debug_loc:0000000000000479 .LLST69
     /tmp/cci5PgaS.s:739    .text:0000000000000200 .LVL42
     /tmp/cci5PgaS.s:779    .text:0000000000000210 .LBB304
     /tmp/cci5PgaS.s:859    .text:0000000000000254 .LBE304
     /tmp/cci5PgaS.s:6125   .debug_loc:000000000000049c .LLST61
     /tmp/cci5PgaS.s:6132   .debug_loc:00000000000004bf .LLST62
     /tmp/cci5PgaS.s:781    .text:0000000000000210 .LBB305
     /tmp/cci5PgaS.s:797    .text:000000000000021c .LBE305
     /tmp/cci5PgaS.s:802    .text:0000000000000220 .LBB307
     /tmp/cci5PgaS.s:818    .text:000000000000022c .LBE307
     /tmp/cci5PgaS.s:831    .text:0000000000000248 .LBB309
     /tmp/cci5PgaS.s:842    .text:000000000000024c .LBE309
     /tmp/cci5PgaS.s:6139   .debug_loc:00000000000004e2 .LLST63
     /tmp/cci5PgaS.s:844    .text:000000000000024c .LBB311
     /tmp/cci5PgaS.s:858    .text:0000000000000254 .LBE311
     /tmp/cci5PgaS.s:6146   .debug_loc:0000000000000505 .LLST64
     /tmp/cci5PgaS.s:829    .text:0000000000000248 .LVL49
     /tmp/cci5PgaS.s:861    .text:0000000000000254 .LBB287
     /tmp/cci5PgaS.s:934    .text:0000000000000284 .LBE287
     /tmp/cci5PgaS.s:6153   .debug_loc:0000000000000528 .LLST57
     /tmp/cci5PgaS.s:6160   .debug_loc:000000000000054b .LLST58
     /tmp/cci5PgaS.s:863    .text:0000000000000254 .LBB288
     /tmp/cci5PgaS.s:879    .text:0000000000000260 .LBE288
     /tmp/cci5PgaS.s:884    .text:0000000000000264 .LBB290
     /tmp/cci5PgaS.s:900    .text:0000000000000270 .LBE290
     /tmp/cci5PgaS.s:906    .text:0000000000000278 .LBB292
     /tmp/cci5PgaS.s:917    .text:000000000000027c .LBE292
     /tmp/cci5PgaS.s:6167   .debug_loc:000000000000056e .LLST59
     /tmp/cci5PgaS.s:919    .text:000000000000027c .LBB294
     /tmp/cci5PgaS.s:933    .text:0000000000000284 .LBE294
     /tmp/cci5PgaS.s:6174   .debug_loc:0000000000000591 .LLST60
     /tmp/cci5PgaS.s:904    .text:0000000000000278 .LVL55
     /tmp/cci5PgaS.s:936    .text:0000000000000284 .LBB271
     /tmp/cci5PgaS.s:1013   .text:00000000000002c0 .LBE271
     /tmp/cci5PgaS.s:6181   .debug_loc:00000000000005b4 .LLST53
     /tmp/cci5PgaS.s:6188   .debug_loc:00000000000005d7 .LLST54
     /tmp/cci5PgaS.s:938    .text:0000000000000284 .LBB272
     /tmp/cci5PgaS.s:954    .text:0000000000000290 .LBE272
     /tmp/cci5PgaS.s:959    .text:0000000000000294 .LBB274
     /tmp/cci5PgaS.s:975    .text:00000000000002a0 .LBE274
     /tmp/cci5PgaS.s:985    .text:00000000000002b4 .LBB276
     /tmp/cci5PgaS.s:996    .text:00000000000002b8 .LBE276
     /tmp/cci5PgaS.s:6195   .debug_loc:00000000000005fa .LLST55
     /tmp/cci5PgaS.s:998    .text:00000000000002b8 .LBB278
     /tmp/cci5PgaS.s:1012   .text:00000000000002c0 .LBE278
     /tmp/cci5PgaS.s:6202   .debug_loc:000000000000061d .LLST56
     /tmp/cci5PgaS.s:983    .text:00000000000002b4 .LVL61
     /tmp/cci5PgaS.s:1015   .text:00000000000002c0 .LBB252
     /tmp/cci5PgaS.s:1156   .text:0000000000000328 .LBE252
     /tmp/cci5PgaS.s:6209   .debug_loc:0000000000000640 .LLST42
     /tmp/cci5PgaS.s:6216   .debug_loc:0000000000000663 .LLST43
     /tmp/cci5PgaS.s:6223   .debug_loc:0000000000000686 .LLST44
     /tmp/cci5PgaS.s:6230   .debug_loc:00000000000006a9 .LLST45
     /tmp/cci5PgaS.s:6237   .debug_loc:00000000000006cc .LLST46
     /tmp/cci5PgaS.s:6244   .debug_loc:00000000000006ef .LLST47
GAS LISTING /tmp/cci5PgaS.s 			page 64


     /tmp/cci5PgaS.s:1017   .text:00000000000002c0 .LBB253
     /tmp/cci5PgaS.s:1033   .text:00000000000002cc .LBE253
     /tmp/cci5PgaS.s:1038   .text:00000000000002d0 .LBB255
     /tmp/cci5PgaS.s:1054   .text:00000000000002dc .LBE255
     /tmp/cci5PgaS.s:1086   .text:00000000000002f8 .LBB257
     /tmp/cci5PgaS.s:1102   .text:0000000000000304 .LBE257
     /tmp/cci5PgaS.s:6261   .debug_loc:000000000000073a .LLST48
     /tmp/cci5PgaS.s:6268   .debug_loc:000000000000075d .LLST49
     /tmp/cci5PgaS.s:1092   .text:00000000000002fc .LBB259
     /tmp/cci5PgaS.s:1100   .text:0000000000000304 .LBE259
     /tmp/cci5PgaS.s:6275   .debug_loc:0000000000000780 .LLST50
     /tmp/cci5PgaS.s:1123   .text:0000000000000314 .LBB261
     /tmp/cci5PgaS.s:1134   .text:0000000000000318 .LBE261
     /tmp/cci5PgaS.s:6284   .debug_loc:00000000000007a5 .LLST51
     /tmp/cci5PgaS.s:1136   .text:0000000000000318 .LBB263
     /tmp/cci5PgaS.s:1150   .text:0000000000000320 .LBE263
     /tmp/cci5PgaS.s:6291   .debug_loc:00000000000007c8 .LLST52
     /tmp/cci5PgaS.s:1085   .text:00000000000002f8 .LVL69
     /tmp/cci5PgaS.s:1158   .text:0000000000000328 .LBB230
     /tmp/cci5PgaS.s:1314   .text:00000000000003bc .LBE230
     /tmp/cci5PgaS.s:6298   .debug_loc:00000000000007eb .LLST31
     /tmp/cci5PgaS.s:6305   .debug_loc:000000000000080e .LLST32
     /tmp/cci5PgaS.s:6312   .debug_loc:0000000000000831 .LLST33
     /tmp/cci5PgaS.s:6522   .debug_ranges:0000000000000000 .Ldebug_ranges0
     /tmp/cci5PgaS.s:6319   .debug_loc:0000000000000854 .LLST35
     /tmp/cci5PgaS.s:1216   .text:0000000000000350 .LBB236
     /tmp/cci5PgaS.s:6326   .debug_loc:0000000000000877 .LLST36
     /tmp/cci5PgaS.s:6341   .debug_loc:00000000000008b1 .LLST37
     /tmp/cci5PgaS.s:6352   .debug_loc:00000000000008e7 .LLST38
     /tmp/cci5PgaS.s:1223   .text:000000000000035c .LVL83
     /tmp/cci5PgaS.s:1240   .text:000000000000037c .LVL84
     /tmp/cci5PgaS.s:1160   .text:0000000000000328 .LBB231
     /tmp/cci5PgaS.s:1175   .text:0000000000000334 .LBE231
     /tmp/cci5PgaS.s:1180   .text:0000000000000338 .LBB233
     /tmp/cci5PgaS.s:1196   .text:0000000000000344 .LBE233
     /tmp/cci5PgaS.s:1245   .text:000000000000037c .LBB240
     /tmp/cci5PgaS.s:1255   .text:0000000000000388 .LBE240
     /tmp/cci5PgaS.s:6359   .debug_loc:000000000000090a .LLST39
     /tmp/cci5PgaS.s:1286   .text:00000000000003b0 .LBB243
     /tmp/cci5PgaS.s:1297   .text:00000000000003b4 .LBE243
     /tmp/cci5PgaS.s:6368   .debug_loc:000000000000092f .LLST40
     /tmp/cci5PgaS.s:1299   .text:00000000000003b4 .LBB245
     /tmp/cci5PgaS.s:1313   .text:00000000000003bc .LBE245
     /tmp/cci5PgaS.s:6375   .debug_loc:0000000000000952 .LLST41
     /tmp/cci5PgaS.s:1283   .text:00000000000003b0 .LVL88
     /tmp/cci5PgaS.s:1316   .text:00000000000003bc .LBB217
     /tmp/cci5PgaS.s:1411   .text:00000000000003f8 .LBE217
     /tmp/cci5PgaS.s:6382   .debug_loc:0000000000000975 .LLST25
     /tmp/cci5PgaS.s:6389   .debug_loc:0000000000000998 .LLST26
     /tmp/cci5PgaS.s:6396   .debug_loc:00000000000009bb .LLST27
     /tmp/cci5PgaS.s:6403   .debug_loc:00000000000009de .LLST28
     /tmp/cci5PgaS.s:1318   .text:00000000000003bc .LBB218
     /tmp/cci5PgaS.s:1334   .text:00000000000003c8 .LBE218
     /tmp/cci5PgaS.s:1339   .text:00000000000003cc .LBB220
     /tmp/cci5PgaS.s:1355   .text:00000000000003d8 .LBE220
     /tmp/cci5PgaS.s:1383   .text:00000000000003ec .LBB222
     /tmp/cci5PgaS.s:1394   .text:00000000000003f0 .LBE222
GAS LISTING /tmp/cci5PgaS.s 			page 65


     /tmp/cci5PgaS.s:6410   .debug_loc:0000000000000a01 .LLST29
     /tmp/cci5PgaS.s:1396   .text:00000000000003f0 .LBB224
     /tmp/cci5PgaS.s:1410   .text:00000000000003f8 .LBE224
     /tmp/cci5PgaS.s:6417   .debug_loc:0000000000000a24 .LLST30
     /tmp/cci5PgaS.s:1373   .text:00000000000003e8 .LVL95
     /tmp/cci5PgaS.s:1413   .text:00000000000003f8 .LBB205
     /tmp/cci5PgaS.s:1510   .text:0000000000000438 .LBE205
     /tmp/cci5PgaS.s:6424   .debug_loc:0000000000000a47 .LLST19
     /tmp/cci5PgaS.s:6431   .debug_loc:0000000000000a6a .LLST20
     /tmp/cci5PgaS.s:6438   .debug_loc:0000000000000a8d .LLST21
     /tmp/cci5PgaS.s:6445   .debug_loc:0000000000000ab0 .LLST22
     /tmp/cci5PgaS.s:1415   .text:00000000000003f8 .LBB206
     /tmp/cci5PgaS.s:1431   .text:0000000000000404 .LBE206
     /tmp/cci5PgaS.s:1436   .text:0000000000000408 .LBB208
     /tmp/cci5PgaS.s:1452   .text:0000000000000414 .LBE208
     /tmp/cci5PgaS.s:1482   .text:000000000000042c .LBB210
     /tmp/cci5PgaS.s:1493   .text:0000000000000430 .LBE210
     /tmp/cci5PgaS.s:6453   .debug_loc:0000000000000ad4 .LLST23
     /tmp/cci5PgaS.s:1495   .text:0000000000000430 .LBB212
     /tmp/cci5PgaS.s:1509   .text:0000000000000438 .LBE212
     /tmp/cci5PgaS.s:6460   .debug_loc:0000000000000af7 .LLST24
     /tmp/cci5PgaS.s:1470   .text:0000000000000424 .LVL103
     /tmp/cci5PgaS.s:1512   .text:0000000000000438 .LBB191
     /tmp/cci5PgaS.s:1623   .text:0000000000000484 .LBE191
     /tmp/cci5PgaS.s:1514   .text:0000000000000438 .LBB192
     /tmp/cci5PgaS.s:1530   .text:0000000000000444 .LBE192
     /tmp/cci5PgaS.s:1535   .text:0000000000000448 .LBB194
     /tmp/cci5PgaS.s:1551   .text:0000000000000454 .LBE194
     /tmp/cci5PgaS.s:1556   .text:000000000000045c .LBB196
     /tmp/cci5PgaS.s:1567   .text:0000000000000460 .LBE196
     /tmp/cci5PgaS.s:1576   .text:0000000000000470 .LBB198
     /tmp/cci5PgaS.s:1587   .text:0000000000000474 .LBE198
     /tmp/cci5PgaS.s:1597   .text:0000000000000478 .LBB200
     /tmp/cci5PgaS.s:1608   .text:000000000000047c .LBE200
     /tmp/cci5PgaS.s:6467   .debug_loc:0000000000000b1a .LLST18
     /tmp/cci5PgaS.s:1610   .text:000000000000047c .LBB202
     /tmp/cci5PgaS.s:1622   .text:0000000000000484 .LBE202
     /tmp/cci5PgaS.s:1571   .text:0000000000000468 .LVL112
     /tmp/cci5PgaS.s:311    .text:00000000000000e0 .LBB178
     /tmp/cci5PgaS.s:428    .text:0000000000000130 .LBE178
     /tmp/cci5PgaS.s:6474   .debug_loc:0000000000000b3d .LLST13
     /tmp/cci5PgaS.s:6481   .debug_loc:0000000000000b60 .LLST14
     /tmp/cci5PgaS.s:6488   .debug_loc:0000000000000b83 .LLST15
     /tmp/cci5PgaS.s:313    .text:00000000000000e0 .LBB179
     /tmp/cci5PgaS.s:329    .text:00000000000000ec .LBE179
     /tmp/cci5PgaS.s:334    .text:00000000000000f0 .LBB181
     /tmp/cci5PgaS.s:350    .text:00000000000000fc .LBE181
     /tmp/cci5PgaS.s:370    .text:0000000000000110 .LBB183
     /tmp/cci5PgaS.s:381    .text:0000000000000114 .LBE183
     /tmp/cci5PgaS.s:390    .text:0000000000000124 .LBB185
     /tmp/cci5PgaS.s:401    .text:0000000000000128 .LBE185
     /tmp/cci5PgaS.s:403    .text:0000000000000128 .LBB187
     /tmp/cci5PgaS.s:414    .text:000000000000012c .LBE187
     /tmp/cci5PgaS.s:6495   .debug_loc:0000000000000ba6 .LLST16
     /tmp/cci5PgaS.s:416    .text:000000000000012c .LBB189
     /tmp/cci5PgaS.s:427    .text:0000000000000130 .LBE189
     /tmp/cci5PgaS.s:6502   .debug_loc:0000000000000bc9 .LLST17
GAS LISTING /tmp/cci5PgaS.s 			page 66


     /tmp/cci5PgaS.s:385    .text:000000000000011c .LVL11
     /tmp/cci5PgaS.s:66     .text:0000000000000040 .LBB154
     /tmp/cci5PgaS.s:82     .text:000000000000004c .LBE154
     /tmp/cci5PgaS.s:10     .text:0000000000000000 .LFB49
     /tmp/cci5PgaS.s:40     .text:0000000000000020 .LFE49
     /tmp/cci5PgaS.s:6560   .debug_str:000000000000008f .LASF201
     /tmp/cci5PgaS.s:6770   .debug_str:0000000000000799 .LASF200
     /tmp/cci5PgaS.s:6908   .debug_str:0000000000000c60 .LASF202
     /tmp/cci5PgaS.s:6716   .debug_str:00000000000005c6 .LASF203
     /tmp/cci5PgaS.s:6638   .debug_str:00000000000002fa .LASF204
     /tmp/cci5PgaS.s:6658   .debug_str:00000000000003b0 .LASF205
     /tmp/cci5PgaS.s:6596   .debug_str:000000000000019c .LASF206
     /tmp/cci5PgaS.s:1668   .text:00000000000004a0 .LVL117
     /tmp/cci5PgaS.s:1681   .text:00000000000004c0 .LVL118
     /tmp/cci5PgaS.s:1693   .text:00000000000004d0 .LVL119
     /tmp/cci5PgaS.s:1713   .text:00000000000004e4 .LVL121
     /tmp/cci5PgaS.s:1727   .text:00000000000004ec .LVL122
     /tmp/cci5PgaS.s:85     .text:0000000000000050 .LVL0
     /tmp/cci5PgaS.s:100    .text:0000000000000058 .LVL2
     /tmp/cci5PgaS.s:94     .text:0000000000000054 .LVL1
     /tmp/cci5PgaS.s:104    .text:0000000000000060 .LVL3
     /tmp/cci5PgaS.s:125    .text:0000000000000080 .LVL4
     /tmp/cci5PgaS.s:327    .text:00000000000000ec .LVL5
     /tmp/cci5PgaS.s:443    .text:0000000000000134 .LVL16
     /tmp/cci5PgaS.s:611    .text:00000000000001a8 .LVL29
     /tmp/cci5PgaS.s:682    .text:00000000000001d8 .LVL37
     /tmp/cci5PgaS.s:704    .text:00000000000001e4 .LVL38
     /tmp/cci5PgaS.s:773    .text:0000000000000210 .LVL45
     /tmp/cci5PgaS.s:795    .text:000000000000021c .LVL46
     /tmp/cci5PgaS.s:855    .text:0000000000000254 .LVL51
     /tmp/cci5PgaS.s:877    .text:0000000000000260 .LVL52
     /tmp/cci5PgaS.s:930    .text:0000000000000284 .LVL57
     /tmp/cci5PgaS.s:952    .text:0000000000000290 .LVL58
     /tmp/cci5PgaS.s:1009   .text:00000000000002c0 .LVL63
     /tmp/cci5PgaS.s:1031   .text:00000000000002cc .LVL64
     /tmp/cci5PgaS.s:1154   .text:0000000000000328 .LVL77
     /tmp/cci5PgaS.s:1209   .text:000000000000034c .LVL80
     /tmp/cci5PgaS.s:1310   .text:00000000000003bc .LVL90
     /tmp/cci5PgaS.s:1332   .text:00000000000003c8 .LVL91
     /tmp/cci5PgaS.s:1407   .text:00000000000003f8 .LVL98
     /tmp/cci5PgaS.s:1429   .text:0000000000000404 .LVL99
     /tmp/cci5PgaS.s:1506   .text:0000000000000438 .LVL106
     /tmp/cci5PgaS.s:1528   .text:0000000000000444 .LVL107
     /tmp/cci5PgaS.s:641    .text:00000000000001bc .LVL32
     /tmp/cci5PgaS.s:646    .text:00000000000001c0 .LVL33
     /tmp/cci5PgaS.s:734    .text:00000000000001f8 .LVL41
     /tmp/cci5PgaS.s:467    .text:0000000000000144 .LVL17
     /tmp/cci5PgaS.s:590    .text:000000000000019c .LVL28
     /tmp/cci5PgaS.s:483    .text:0000000000000150 .LVL18
     /tmp/cci5PgaS.s:516    .text:0000000000000164 .LVL19
     /tmp/cci5PgaS.s:522    .text:0000000000000168 .LVL20
     /tmp/cci5PgaS.s:528    .text:000000000000016c .LVL21
     /tmp/cci5PgaS.s:534    .text:0000000000000170 .LVL22
     /tmp/cci5PgaS.s:549    .text:0000000000000184 .LVL24
     /tmp/cci5PgaS.s:583    .text:0000000000000194 .LVL27
     /tmp/cci5PgaS.s:557    .text:0000000000000188 .LVL25
     /tmp/cci5PgaS.s:567    .text:000000000000018c .LVL26
GAS LISTING /tmp/cci5PgaS.s 			page 67


     /tmp/cci5PgaS.s:616    .text:00000000000001ac .LVL30
     /tmp/cci5PgaS.s:632    .text:00000000000001b8 .LVL31
     /tmp/cci5PgaS.s:656    .text:00000000000001cc .LVL35
     /tmp/cci5PgaS.s:666    .text:00000000000001d0 .LVL36
     /tmp/cci5PgaS.s:709    .text:00000000000001e8 .LVL39
     /tmp/cci5PgaS.s:725    .text:00000000000001f4 .LVL40
     /tmp/cci5PgaS.s:747    .text:0000000000000204 .LVL43
     /tmp/cci5PgaS.s:757    .text:0000000000000208 .LVL44
     /tmp/cci5PgaS.s:800    .text:0000000000000220 .LVL47
     /tmp/cci5PgaS.s:816    .text:000000000000022c .LVL48
     /tmp/cci5PgaS.s:839    .text:000000000000024c .LVL50
     /tmp/cci5PgaS.s:882    .text:0000000000000264 .LVL53
     /tmp/cci5PgaS.s:898    .text:0000000000000270 .LVL54
     /tmp/cci5PgaS.s:914    .text:000000000000027c .LVL56
     /tmp/cci5PgaS.s:957    .text:0000000000000294 .LVL59
     /tmp/cci5PgaS.s:973    .text:00000000000002a0 .LVL60
     /tmp/cci5PgaS.s:993    .text:00000000000002b8 .LVL62
     /tmp/cci5PgaS.s:1036   .text:00000000000002d0 .LVL65
     /tmp/cci5PgaS.s:1052   .text:00000000000002dc .LVL66
     /tmp/cci5PgaS.s:1073   .text:00000000000002e8 .LVL67
     /tmp/cci5PgaS.s:1079   .text:00000000000002ec .LVL68
     /tmp/cci5PgaS.s:1098   .text:0000000000000304 .LVL71
     /tmp/cci5PgaS.s:1107   .text:0000000000000308 .LVL72
     /tmp/cci5PgaS.s:1113   .text:0000000000000310 .LVL73
     /tmp/cci5PgaS.s:1147   .text:0000000000000320 .LVL76
     /tmp/cci5PgaS.s:1091   .text:00000000000002fc .LVL70
     /tmp/cci5PgaS.s:1121   .text:0000000000000314 .LVL74
     /tmp/cci5PgaS.s:1131   .text:0000000000000318 .LVL75
     /tmp/cci5PgaS.s:1178   .text:0000000000000338 .LVL78
     /tmp/cci5PgaS.s:1194   .text:0000000000000344 .LVL79
     /tmp/cci5PgaS.s:1213   .text:0000000000000350 .LVL81
     /tmp/cci5PgaS.s:1260   .text:000000000000038c .LVL86
     /tmp/cci5PgaS.s:1272   .text:00000000000003a0 .LVL87
     /tmp/cci5PgaS.s:1220   .text:0000000000000354 .LVL82
     /tmp/cci5PgaS.s:1253   .text:0000000000000388 .LVL85
     /tmp/cci5PgaS.s:1294   .text:00000000000003b4 .LVL89
     /tmp/cci5PgaS.s:1337   .text:00000000000003cc .LVL92
     /tmp/cci5PgaS.s:1353   .text:00000000000003d8 .LVL93
     /tmp/cci5PgaS.s:1368   .text:00000000000003e0 .LVL94
     /tmp/cci5PgaS.s:1381   .text:00000000000003ec .LVL96
     /tmp/cci5PgaS.s:1391   .text:00000000000003f0 .LVL97
     /tmp/cci5PgaS.s:1434   .text:0000000000000408 .LVL100
     /tmp/cci5PgaS.s:1450   .text:0000000000000414 .LVL101
     /tmp/cci5PgaS.s:1465   .text:000000000000041c .LVL102
     /tmp/cci5PgaS.s:1480   .text:000000000000042c .LVL104
     /tmp/cci5PgaS.s:1490   .text:0000000000000430 .LVL105
     /tmp/cci5PgaS.s:1595   .text:0000000000000478 .LVL115
     /tmp/cci5PgaS.s:1605   .text:000000000000047c .LVL116
     /tmp/cci5PgaS.s:332    .text:00000000000000f0 .LVL6
     /tmp/cci5PgaS.s:348    .text:00000000000000fc .LVL7
     /tmp/cci5PgaS.s:365    .text:0000000000000108 .LVL8
     /tmp/cci5PgaS.s:398    .text:0000000000000128 .LVL13
     /tmp/cci5PgaS.s:411    .text:000000000000012c .LVL14
     /tmp/cci5PgaS.s:424    .text:0000000000000130 .LVL15
     /tmp/cci5PgaS.s:1744   .debug_info:0000000000000000 .Ldebug_info0
     /tmp/cci5PgaS.s:1215   .text:0000000000000350 .LBB235
     /tmp/cci5PgaS.s:1242   .text:000000000000037c .LBE235
GAS LISTING /tmp/cci5PgaS.s 			page 68


     /tmp/cci5PgaS.s:1258   .text:000000000000038c .LBB242
     /tmp/cci5PgaS.s:1276   .text:00000000000003a0 .LBE242
     /tmp/cci5PgaS.s:1225   .text:000000000000035c .LBE236
     /tmp/cci5PgaS.s:1261   .text:000000000000038c .LBB239
     /tmp/cci5PgaS.s:1275   .text:00000000000003a0 .LBE239

UNDEFINED SYMBOLS
_ZN5Riscv11TrapConsoleEv
__putc
_ZN5Riscv14supervisorTrapEv
_ZN7_thread12createThreadEPFvPvES0_Pm
_ZN15MemoryAllocator10kmem_allocEm
_ZN15MemoryAllocator9kmem_freeEPv
_ZN7_thread7runningE
_ZN7_thread8dispatchEv
_ZN7_thread16timeSliceCounterE
_ZN10KSemaphorenwEm
_ZN9Scheduler3putEP7_thread
_ZN10KSemaphoredlEPv
_ZN10KSemaphore4waitEv
_ZN10KSemaphore6signalEv
__getc
console_handler
