GAS LISTING /tmp/ccTkEHoK.s 			page 1


   1              		.file	"Riscv.cpp"
   2              		.option pic
   3              		.option norelax
   4              		.text
   5              	.Ltext0:
   6              		.align	2
   7              		.globl	_ZN5Riscv10popSppSpieEv
   9              	_ZN5Riscv10popSppSpieEv:
  10              	.LFB42:
  11              		.file 1 "src/Riscv.cpp"
   1:src/Riscv.cpp **** //
   2:src/Riscv.cpp **** // Created by os on 6/17/22.
   3:src/Riscv.cpp **** //
   4:src/Riscv.cpp **** 
   5:src/Riscv.cpp **** #include "../h/Riscv.hpp"
   6:src/Riscv.cpp **** #include "../h/MemoryAllocator.hpp"
   7:src/Riscv.cpp **** #include "../h/_thread.hpp"
   8:src/Riscv.cpp **** 
   9:src/Riscv.cpp **** 
  10:src/Riscv.cpp **** 
  11:src/Riscv.cpp **** 
  12:src/Riscv.cpp **** void Riscv::popSppSpie()    //pop supervisor previous privilege, supervisor previous interrupt enab
  13:src/Riscv.cpp **** {
  12              		.loc 1 13 1
  13              		.cfi_startproc
  14 0000 130101FF 		addi	sp,sp,-16
  15              		.cfi_def_cfa_offset 16
  16 0004 23348100 		sd	s0,8(sp)
  17              		.cfi_offset 8, -8
  18 0008 13040101 		addi	s0,sp,16
  19              		.cfi_def_cfa 8, 0
  14:src/Riscv.cpp ****     __asm__ volatile ("csrw sepc, ra");
  20              		.loc 1 14 5
  21              		.loc 1 14 39 is_stmt 0
  22              	#APP
  23              	# 14 "src/Riscv.cpp" 1
  15              	    __asm__ volatile ("sret");  //exit privileged regime
  24              		csrw sepc, ra
  25              	# 0 "" 2
  26              		.loc 1 15 5 is_stmt 1
  27              		.loc 1 15 30 is_stmt 0
  28              	# 15 "src/Riscv.cpp" 1
  16              	}
  29              		sret
  30              	# 0 "" 2
  31              		.loc 1 16 1
  32              	#NO_APP
  33 0014 03348100 		ld	s0,8(sp)
  34              		.cfi_restore 8
  35              		.cfi_def_cfa 2, 16
  36 0018 13010101 		addi	sp,sp,16
  37              		.cfi_def_cfa_offset 0
  38 001c 67800000 		jr	ra
  39              		.cfi_endproc
  40              	.LFE42:
  42              		.align	2
  43              		.globl	_ZN5Riscv20handleSupervisorTrapEv
GAS LISTING /tmp/ccTkEHoK.s 			page 2


  45              	_ZN5Riscv20handleSupervisorTrapEv:
  46              	.LFB43:
  17:src/Riscv.cpp **** 
  18:src/Riscv.cpp **** void Riscv::handleSupervisorTrap(){
  47              		.loc 1 18 35 is_stmt 1
  48              		.cfi_startproc
  49 0020 130101F6 		addi	sp,sp,-160
  50              		.cfi_def_cfa_offset 160
  51 0024 233C1108 		sd	ra,152(sp)
  52 0028 23388108 		sd	s0,144(sp)
  53 002c 23349108 		sd	s1,136(sp)
  54 0030 23302109 		sd	s2,128(sp)
  55 0034 233C3107 		sd	s3,120(sp)
  56 0038 23384107 		sd	s4,112(sp)
  57              		.cfi_offset 1, -8
  58              		.cfi_offset 8, -16
  59              		.cfi_offset 9, -24
  60              		.cfi_offset 18, -32
  61              		.cfi_offset 19, -40
  62              		.cfi_offset 20, -48
  63 003c 1304010A 		addi	s0,sp,160
  64              		.cfi_def_cfa 8, 0
  19:src/Riscv.cpp ****     uint scause = r_scause();
  65              		.loc 1 19 5
  66              	.LBB65:
  67              	.LBB66:
  68              		.file 2 "src/../h/Riscv.hpp"
   1:src/../h/Riscv.hpp **** //
   2:src/../h/Riscv.hpp **** // Created by os on 6/17/22.
   3:src/../h/Riscv.hpp **** //
   4:src/../h/Riscv.hpp **** 
   5:src/../h/Riscv.hpp **** #ifndef PROJECT_BASE_V1_1_RISCV_HPP
   6:src/../h/Riscv.hpp **** #define PROJECT_BASE_V1_1_RISCV_HPP
   7:src/../h/Riscv.hpp **** 
   8:src/../h/Riscv.hpp **** #include "../lib/hw.h"
   9:src/../h/Riscv.hpp **** 
  10:src/../h/Riscv.hpp **** 
  11:src/../h/Riscv.hpp **** class Riscv
  12:src/../h/Riscv.hpp **** {
  13:src/../h/Riscv.hpp **** public:
  14:src/../h/Riscv.hpp **** 
  15:src/../h/Riscv.hpp ****     // pop sstatus.spp and sstatus.spie bits (has to be a non inline function)
  16:src/../h/Riscv.hpp ****     static void popSppSpie();
  17:src/../h/Riscv.hpp **** 
  18:src/../h/Riscv.hpp ****     // read register scause
  19:src/../h/Riscv.hpp ****     static uint64 r_scause();
  20:src/../h/Riscv.hpp **** 
  21:src/../h/Riscv.hpp ****     // write register scause
  22:src/../h/Riscv.hpp ****     static void w_scause(uint64 scause);
  23:src/../h/Riscv.hpp **** 
  24:src/../h/Riscv.hpp ****     // read register sepc
  25:src/../h/Riscv.hpp ****     static uint64 r_sepc();
  26:src/../h/Riscv.hpp **** 
  27:src/../h/Riscv.hpp ****     // write register sepc
  28:src/../h/Riscv.hpp ****     static void w_sepc(uint64 sepc);
  29:src/../h/Riscv.hpp **** 
  30:src/../h/Riscv.hpp ****     // read register stvec
GAS LISTING /tmp/ccTkEHoK.s 			page 3


  31:src/../h/Riscv.hpp ****     static uint64 r_stvec();
  32:src/../h/Riscv.hpp **** 
  33:src/../h/Riscv.hpp ****     // write register stvec
  34:src/../h/Riscv.hpp ****     static void w_stvec(uint64 stvec);
  35:src/../h/Riscv.hpp **** 
  36:src/../h/Riscv.hpp ****     // read register stval
  37:src/../h/Riscv.hpp ****     static uint64 r_stval();
  38:src/../h/Riscv.hpp **** 
  39:src/../h/Riscv.hpp ****     // write register stval
  40:src/../h/Riscv.hpp ****     static void w_stval(uint64 stval);
  41:src/../h/Riscv.hpp **** 
  42:src/../h/Riscv.hpp ****     enum BitMaskSip
  43:src/../h/Riscv.hpp ****     {
  44:src/../h/Riscv.hpp ****         SIP_SSIP = (1 << 1),
  45:src/../h/Riscv.hpp ****         SIP_STIP = (1 << 5),
  46:src/../h/Riscv.hpp ****         SIP_SEIP = (1 << 9),
  47:src/../h/Riscv.hpp ****     };
  48:src/../h/Riscv.hpp **** 
  49:src/../h/Riscv.hpp ****     // mask set register sip
  50:src/../h/Riscv.hpp ****     static void ms_sip(uint64 mask);
  51:src/../h/Riscv.hpp **** 
  52:src/../h/Riscv.hpp ****     // mask clear register sip
  53:src/../h/Riscv.hpp ****     static void mc_sip(uint64 mask);
  54:src/../h/Riscv.hpp **** 
  55:src/../h/Riscv.hpp ****     // read register sip
  56:src/../h/Riscv.hpp ****     static uint64 r_sip();
  57:src/../h/Riscv.hpp **** 
  58:src/../h/Riscv.hpp ****     // write register sip
  59:src/../h/Riscv.hpp ****     static void w_sip(uint64 sip);
  60:src/../h/Riscv.hpp **** 
  61:src/../h/Riscv.hpp ****     enum BitMaskSstatus
  62:src/../h/Riscv.hpp ****     {
  63:src/../h/Riscv.hpp ****         SSTATUS_SIE = (1 << 1),
  64:src/../h/Riscv.hpp ****         SSTATUS_SPIE = (1 << 5),
  65:src/../h/Riscv.hpp ****         SSTATUS_SPP = (1 << 8),
  66:src/../h/Riscv.hpp ****     };
  67:src/../h/Riscv.hpp **** 
  68:src/../h/Riscv.hpp ****     // mask set register sstatus
  69:src/../h/Riscv.hpp ****     static void ms_sstatus(uint64 mask);
  70:src/../h/Riscv.hpp **** 
  71:src/../h/Riscv.hpp ****     // mask clear register sstatus
  72:src/../h/Riscv.hpp ****     static void mc_sstatus(uint64 mask);
  73:src/../h/Riscv.hpp **** 
  74:src/../h/Riscv.hpp ****     // read register sstatus
  75:src/../h/Riscv.hpp ****     static uint64 r_sstatus();
  76:src/../h/Riscv.hpp **** 
  77:src/../h/Riscv.hpp ****     // write register sstatus
  78:src/../h/Riscv.hpp ****     static void w_sstatus(uint64 sstatus);
  79:src/../h/Riscv.hpp **** 
  80:src/../h/Riscv.hpp ****     // supervisor trap
  81:src/../h/Riscv.hpp ****     static void supervisorTrap();
  82:src/../h/Riscv.hpp **** 
  83:src/../h/Riscv.hpp **** private:
  84:src/../h/Riscv.hpp **** 
  85:src/../h/Riscv.hpp ****     // supervisor trap handler
  86:src/../h/Riscv.hpp ****     static void handleSupervisorTrap();
  87:src/../h/Riscv.hpp **** 
GAS LISTING /tmp/ccTkEHoK.s 			page 4


  88:src/../h/Riscv.hpp **** //    static void syscallHandler();
  89:src/../h/Riscv.hpp **** 
  90:src/../h/Riscv.hpp **** };
  91:src/../h/Riscv.hpp **** 
  92:src/../h/Riscv.hpp **** inline uint64 Riscv::r_scause()
  93:src/../h/Riscv.hpp **** {
  94:src/../h/Riscv.hpp ****     uint64 volatile scause;
  69              		.loc 2 94 5
  95:src/../h/Riscv.hpp ****     __asm__ volatile ("csrr %[scause], scause" : [scause] "=r"(scause));
  70              		.loc 2 95 5
  71              		.loc 2 95 72 is_stmt 0
  72              	#APP
  73              	# 95 "src/../h/Riscv.hpp" 1
  96              	    return scause;
  74              		csrr a5, scause
  75              	# 0 "" 2
  76              	#NO_APP
  77 0044 2334F4F6 		sd	a5,-152(s0)
  78              		.loc 2 96 5 is_stmt 1
  79              		.loc 2 96 12 is_stmt 0
  80 0048 833784F6 		ld	a5,-152(s0)
  81              	.LBE66:
  82              	.LBE65:
  83              		.loc 1 19 28
  84 004c 9B870700 		sext.w	a5,a5
  85              	.LVL0:
  20:src/Riscv.cpp ****     uint64 a0reg;
  86              		.loc 1 20 5 is_stmt 1
  21:src/Riscv.cpp **** //    uint64 arg0;
  22:src/Riscv.cpp ****     uint64 arg1;
  87              		.loc 1 22 5
  23:src/Riscv.cpp ****     __asm__ volatile("mv %0, a0" : "=r" (a0reg));
  88              		.loc 1 23 5
  89              		.loc 1 23 49 is_stmt 0
  90              	#APP
  91              	# 23 "src/Riscv.cpp" 1
  24              	
  92              		mv s1, a0
  93              	# 0 "" 2
  94              	.LVL1:
  25:src/Riscv.cpp ****     if (scause == 0x0000000000000008UL || scause==0x0000000000000009UL){
  95              		.loc 1 25 5 is_stmt 1
  96              	#NO_APP
  97              	.LBB67:
  98              		.loc 1 25 40 is_stmt 0
  99 0054 9B8787FF 		addiw	a5,a5,-8
 100              	.LVL2:
 101              		.loc 1 25 5
 102 0058 13071000 		li	a4,1
 103 005c 6372F702 		bleu	a5,a4,.L13
 104              	.LVL3:
 105              	.L3:
 106              	.LBE67:
  26:src/Riscv.cpp ****         // interrupt: no; cause code: environment call from U-mode(8) or S-mode(9)
  27:src/Riscv.cpp **** 
  28:src/Riscv.cpp ****         //call from yield
  29:src/Riscv.cpp ****         if(a0reg==0x04){
GAS LISTING /tmp/ccTkEHoK.s 			page 5


  30:src/Riscv.cpp ****             uint64 sepc = r_sepc() + 4;
  31:src/Riscv.cpp ****             uint64 sstatus = r_sstatus();
  32:src/Riscv.cpp **** 
  33:src/Riscv.cpp ****             _thread::timeSliceCounter = 0;
  34:src/Riscv.cpp ****             _thread::dispatch();
  35:src/Riscv.cpp **** 
  36:src/Riscv.cpp ****             w_sstatus(sstatus);
  37:src/Riscv.cpp ****             w_sepc(sepc);
  38:src/Riscv.cpp ****         }
  39:src/Riscv.cpp ****         else if(a0reg==0x11){
  40:src/Riscv.cpp ****             uint64 sepc = r_sepc() + 4;
  41:src/Riscv.cpp ****             uint64 sstatus = r_sstatus();
  42:src/Riscv.cpp **** 
  43:src/Riscv.cpp **** 
  44:src/Riscv.cpp ****             _thread::thread_t *arg1;
  45:src/Riscv.cpp ****             _thread::Body arg2;
  46:src/Riscv.cpp ****             uint64 arg3;
  47:src/Riscv.cpp ****             uint64 *arg4;
  48:src/Riscv.cpp **** 
  49:src/Riscv.cpp ****             __asm__ volatile("ld a1, 11*8(fp)"); //a1
  50:src/Riscv.cpp ****             __asm__ volatile("ld a2, 12*8(fp)"); //a2
  51:src/Riscv.cpp ****             __asm__ volatile("ld a3, 13*8(fp)"); //a3
  52:src/Riscv.cpp ****             __asm__ volatile("ld a4, 14*8(fp)"); //a4
  53:src/Riscv.cpp **** 
  54:src/Riscv.cpp **** 
  55:src/Riscv.cpp ****             __asm__ volatile("mv %0, a1" : "=r" (arg1));    //handle (thread_t*)
  56:src/Riscv.cpp ****             __asm__ volatile("mv %0, a2" : "=r" (arg2));    //start routine
  57:src/Riscv.cpp ****             __asm__ volatile("mv %0, a3" : "=r" (arg3));    //argument of start routine
  58:src/Riscv.cpp ****             __asm__ volatile("mv %0, a4" : "=r" (arg4));    //stack
  59:src/Riscv.cpp **** 
  60:src/Riscv.cpp ****             //make new thread object using overloaded new operator for that function
  61:src/Riscv.cpp ****             _thread* t = _thread::createThread(arg2,  (void*)arg3, arg4);    //t je thread_t
  62:src/Riscv.cpp ****             *arg1=t;
  63:src/Riscv.cpp **** 
  64:src/Riscv.cpp ****             uint64 ret;
  65:src/Riscv.cpp ****             if(t!= nullptr)ret=0;
  66:src/Riscv.cpp ****             else ret =-1;
  67:src/Riscv.cpp **** 
  68:src/Riscv.cpp **** 
  69:src/Riscv.cpp ****             //return _thread* adress through a0
  70:src/Riscv.cpp ****             __asm__ volatile("mv a0, %0" : : "r" (ret));
  71:src/Riscv.cpp **** 
  72:src/Riscv.cpp ****             w_sstatus(sstatus);
  73:src/Riscv.cpp ****             w_sepc(sepc);
  74:src/Riscv.cpp ****         }
  75:src/Riscv.cpp ****         if(a0reg== 0x01 ){
  76:src/Riscv.cpp ****             uint64 sepc = r_sepc() + 4;
  77:src/Riscv.cpp ****             uint64 sstatus = r_sstatus();
  78:src/Riscv.cpp ****             //kmem_alloc
  79:src/Riscv.cpp ****             __asm__ volatile("mv %0, a1" : "=r" (arg1));    //read size from a1 and move it to arg1
  80:src/Riscv.cpp ****             uint64 ptr= (uint64) MemoryAllocator::kmem_alloc(arg1*MEM_BLOCK_SIZE);
  81:src/Riscv.cpp **** 
  82:src/Riscv.cpp ****             //write return value to a0 register
  83:src/Riscv.cpp ****             __asm__ volatile("mv a0, %0" : : "r" (ptr));
  84:src/Riscv.cpp **** 
  85:src/Riscv.cpp ****             w_sstatus(sstatus);
  86:src/Riscv.cpp ****             w_sepc(sepc);
GAS LISTING /tmp/ccTkEHoK.s 			page 6


  87:src/Riscv.cpp ****         }
  88:src/Riscv.cpp ****         else if(a0reg==0x02){
  89:src/Riscv.cpp ****             uint64 sepc = r_sepc() + 4;
  90:src/Riscv.cpp ****             uint64 sstatus = r_sstatus();
  91:src/Riscv.cpp **** 
  92:src/Riscv.cpp ****             __asm__ volatile("mv %0, a1" : "=r" (arg1));    //read pointer to free from a1 and move
  93:src/Riscv.cpp ****             int ret = MemoryAllocator::kmem_free((void *) arg1);
  94:src/Riscv.cpp ****             __asm__ volatile("mv a0, %0" : : "r" (ret));
  95:src/Riscv.cpp **** 
  96:src/Riscv.cpp ****             w_sstatus(sstatus);
  97:src/Riscv.cpp ****             w_sepc(sepc);
  98:src/Riscv.cpp ****         }
  99:src/Riscv.cpp **** 
 100:src/Riscv.cpp ****         else if(a0reg==0x12){
 101:src/Riscv.cpp ****             uint64 sepc = r_sepc() + 4;
 102:src/Riscv.cpp ****             uint64 sstatus = r_sstatus();
 103:src/Riscv.cpp **** 
 104:src/Riscv.cpp ****             _thread::running->finished=true;
 105:src/Riscv.cpp ****             _thread::dispatch();
 106:src/Riscv.cpp **** 
 107:src/Riscv.cpp ****             w_sstatus(sstatus);
 108:src/Riscv.cpp ****             w_sepc(sepc);
 109:src/Riscv.cpp **** 
 110:src/Riscv.cpp **** 
 111:src/Riscv.cpp ****         }
 112:src/Riscv.cpp ****         else if(a0reg == 0x13){
 113:src/Riscv.cpp ****             uint64 sepc = r_sepc() + 4;
 114:src/Riscv.cpp ****             uint64 sstatus = r_sstatus();
 115:src/Riscv.cpp **** 
 116:src/Riscv.cpp ****             _thread::dispatch();
 117:src/Riscv.cpp **** 
 118:src/Riscv.cpp ****             w_sstatus(sstatus);
 119:src/Riscv.cpp ****             w_sepc(sepc);
 120:src/Riscv.cpp ****         }
 121:src/Riscv.cpp **** 
 122:src/Riscv.cpp **** 
 123:src/Riscv.cpp **** 
 124:src/Riscv.cpp ****     }
 125:src/Riscv.cpp ****     else if (scause == 0x8000000000000001UL){
 126:src/Riscv.cpp ****         // interrupt: yes; cause code: supervisor software interrupt (CLINT; machine timer interrup
 127:src/Riscv.cpp **** 
 128:src/Riscv.cpp ****     }
 129:src/Riscv.cpp ****     else if (scause == 0x8000000000000009UL)
 130:src/Riscv.cpp ****     {
 131:src/Riscv.cpp ****         // interrupt: yes; cause code: supervisor external interrupt (PLIC; could be keyboard)
 132:src/Riscv.cpp **** 
 133:src/Riscv.cpp ****     }
 134:src/Riscv.cpp ****     else{
 135:src/Riscv.cpp ****         // unexpected trap cause
 136:src/Riscv.cpp ****         //print(scause)
 137:src/Riscv.cpp ****         //print(sepc)
 138:src/Riscv.cpp ****         //print(stval) //trap value
 139:src/Riscv.cpp **** 
 140:src/Riscv.cpp ****     }
 141:src/Riscv.cpp **** 
 142:src/Riscv.cpp **** }
 107              		.loc 1 142 1
GAS LISTING /tmp/ccTkEHoK.s 			page 7


 108 0060 83308109 		ld	ra,152(sp)
 109              		.cfi_remember_state
 110              		.cfi_restore 1
 111 0064 03340109 		ld	s0,144(sp)
 112              		.cfi_restore 8
 113              		.cfi_def_cfa 2, 160
 114 0068 83348108 		ld	s1,136(sp)
 115              		.cfi_restore 9
 116 006c 03390108 		ld	s2,128(sp)
 117              		.cfi_restore 18
 118 0070 83398107 		ld	s3,120(sp)
 119              		.cfi_restore 19
 120 0074 033A0107 		ld	s4,112(sp)
 121              		.cfi_restore 20
 122 0078 1301010A 		addi	sp,sp,160
 123              		.cfi_def_cfa_offset 0
 124 007c 67800000 		jr	ra
 125              	.LVL4:
 126              	.L13:
 127              		.cfi_restore_state
  29:src/Riscv.cpp ****             uint64 sepc = r_sepc() + 4;
 128              		.loc 1 29 9 is_stmt 1
 129              	.LBB140:
 130              	.LBB68:
 131 0080 93074000 		li	a5,4
 132 0084 638EF404 		beq	s1,a5,.L14
 133              	.LBE68:
 134              	.LBE140:
  39:src/Riscv.cpp ****             uint64 sepc = r_sepc() + 4;
 135              		.loc 1 39 14
 136              	.LBB141:
 137              	.LBB89:
 138              	.LBB69:
 139 0088 93071001 		li	a5,17
 140 008c 6388F408 		beq	s1,a5,.L15
 141              	.L6:
 142              	.LBE69:
 143              	.LBE89:
 144              	.LBE141:
  75:src/Riscv.cpp ****             uint64 sepc = r_sepc() + 4;
 145              		.loc 1 75 9
 146              	.LBB142:
 147              	.LBB90:
 148 0090 93071000 		li	a5,1
 149 0094 6388F40E 		beq	s1,a5,.L16
 150              	.LBE90:
 151              	.LBE142:
  88:src/Riscv.cpp ****             uint64 sepc = r_sepc() + 4;
 152              		.loc 1 88 14
 153              	.LBB143:
 154              	.LBB135:
 155              	.LBB91:
 156 0098 93072000 		li	a5,2
 157 009c 6382F412 		beq	s1,a5,.L17
 158              	.LBE91:
 159              	.LBE135:
 160              	.LBE143:
GAS LISTING /tmp/ccTkEHoK.s 			page 8


 100:src/Riscv.cpp ****             uint64 sepc = r_sepc() + 4;
 161              		.loc 1 100 14
 162              	.LBB144:
 163              	.LBB136:
 164              	.LBB123:
 165              	.LBB92:
 166 00a0 93072001 		li	a5,18
 167 00a4 638AF414 		beq	s1,a5,.L18
 168              	.LBE92:
 169              	.LBE123:
 170              	.LBE136:
 171              	.LBE144:
 112:src/Riscv.cpp ****             uint64 sepc = r_sepc() + 4;
 172              		.loc 1 112 14
 173              	.LBB145:
 174              	.LBB137:
 175              	.LBB124:
 176              	.LBB112:
 177              	.LBB93:
 178 00a8 93073001 		li	a5,19
 179 00ac E39AF4FA 		bne	s1,a5,.L3
 180              	.LBB94:
 113:src/Riscv.cpp ****             uint64 sstatus = r_sstatus();
 181              		.loc 1 113 13
 182              	.LBB95:
 183              	.LBB96:
  97:src/../h/Riscv.hpp **** }
  98:src/../h/Riscv.hpp **** 
  99:src/../h/Riscv.hpp **** inline void Riscv::w_scause(uint64 scause)
 100:src/../h/Riscv.hpp **** {
 101:src/../h/Riscv.hpp ****     __asm__ volatile ("csrw scause, %[scause]" : : [scause] "r"(scause));
 102:src/../h/Riscv.hpp **** }
 103:src/../h/Riscv.hpp **** 
 104:src/../h/Riscv.hpp **** inline uint64 Riscv::r_sepc()
 105:src/../h/Riscv.hpp **** {
 106:src/../h/Riscv.hpp ****     uint64 volatile sepc;
 184              		.loc 2 106 5
 107:src/../h/Riscv.hpp ****     __asm__ volatile ("csrr %[sepc], sepc" : [sepc] "=r"(sepc));
 185              		.loc 2 107 5
 186              		.loc 2 107 64 is_stmt 0
 187              	#APP
 188              	# 107 "src/../h/Riscv.hpp" 1
 108              	    return sepc;
 189              		csrr a5, sepc
 190              	# 0 "" 2
 191              	#NO_APP
 192 00b4 2334F4FC 		sd	a5,-56(s0)
 193              		.loc 2 108 5 is_stmt 1
 194              		.loc 2 108 12 is_stmt 0
 195 00b8 833484FC 		ld	s1,-56(s0)
 196              	.LVL5:
 197              	.LBE96:
 198              	.LBE95:
 113:src/Riscv.cpp ****             uint64 sstatus = r_sstatus();
 199              		.loc 1 113 38
 200 00bc 93844400 		addi	s1,s1,4
 201              	.LVL6:
GAS LISTING /tmp/ccTkEHoK.s 			page 9


 114:src/Riscv.cpp **** 
 202              		.loc 1 114 13 is_stmt 1
 203              	.LBB97:
 204              	.LBB98:
 109:src/../h/Riscv.hpp **** }
 110:src/../h/Riscv.hpp **** 
 111:src/../h/Riscv.hpp **** inline void Riscv::w_sepc(uint64 sepc)
 112:src/../h/Riscv.hpp **** {
 113:src/../h/Riscv.hpp ****     __asm__ volatile ("csrw sepc, %[sepc]" : : [sepc] "r"(sepc));
 114:src/../h/Riscv.hpp **** }
 115:src/../h/Riscv.hpp **** 
 116:src/../h/Riscv.hpp **** inline uint64 Riscv::r_stvec()
 117:src/../h/Riscv.hpp **** {
 118:src/../h/Riscv.hpp ****     uint64 volatile stvec;
 119:src/../h/Riscv.hpp ****     __asm__ volatile ("csrr %[stvec], stvec" : [stvec] "=r"(stvec));
 120:src/../h/Riscv.hpp ****     return stvec;
 121:src/../h/Riscv.hpp **** }
 122:src/../h/Riscv.hpp **** 
 123:src/../h/Riscv.hpp **** inline void Riscv::w_stvec(uint64 stvec)
 124:src/../h/Riscv.hpp **** {
 125:src/../h/Riscv.hpp ****     __asm__ volatile ("csrw stvec, %[stvec]" : : [stvec] "r"(stvec));
 126:src/../h/Riscv.hpp **** }
 127:src/../h/Riscv.hpp **** 
 128:src/../h/Riscv.hpp **** inline uint64 Riscv::r_stval()
 129:src/../h/Riscv.hpp **** {
 130:src/../h/Riscv.hpp ****     uint64 volatile stval;
 131:src/../h/Riscv.hpp ****     __asm__ volatile ("csrr %[stval], stval" : [stval] "=r"(stval));
 132:src/../h/Riscv.hpp ****     return stval;
 133:src/../h/Riscv.hpp **** }
 134:src/../h/Riscv.hpp **** 
 135:src/../h/Riscv.hpp **** inline void Riscv::w_stval(uint64 stval)
 136:src/../h/Riscv.hpp **** {
 137:src/../h/Riscv.hpp ****     __asm__ volatile ("csrw stval, %[stval]" : : [stval] "r"(stval));
 138:src/../h/Riscv.hpp **** }
 139:src/../h/Riscv.hpp **** 
 140:src/../h/Riscv.hpp **** inline void Riscv::ms_sip(uint64 mask)
 141:src/../h/Riscv.hpp **** {
 142:src/../h/Riscv.hpp ****     __asm__ volatile ("csrs sip, %[mask]" : : [mask] "r"(mask));
 143:src/../h/Riscv.hpp **** }
 144:src/../h/Riscv.hpp **** 
 145:src/../h/Riscv.hpp **** inline void Riscv::mc_sip(uint64 mask)
 146:src/../h/Riscv.hpp **** {
 147:src/../h/Riscv.hpp ****     __asm__ volatile ("csrc sip, %[mask]" : : [mask] "r"(mask));
 148:src/../h/Riscv.hpp **** }
 149:src/../h/Riscv.hpp **** 
 150:src/../h/Riscv.hpp **** inline uint64 Riscv::r_sip()
 151:src/../h/Riscv.hpp **** {
 152:src/../h/Riscv.hpp ****     uint64 volatile sip;
 153:src/../h/Riscv.hpp ****     __asm__ volatile ("csrr %[sip], sip" : [sip] "=r"(sip));
 154:src/../h/Riscv.hpp ****     return sip;
 155:src/../h/Riscv.hpp **** }
 156:src/../h/Riscv.hpp **** 
 157:src/../h/Riscv.hpp **** inline void Riscv::w_sip(uint64 sip)
 158:src/../h/Riscv.hpp **** {
 159:src/../h/Riscv.hpp ****     __asm__ volatile ("csrw sip, %[sip]" : : [sip] "r"(sip));
 160:src/../h/Riscv.hpp **** }
 161:src/../h/Riscv.hpp **** 
GAS LISTING /tmp/ccTkEHoK.s 			page 10


 162:src/../h/Riscv.hpp **** //mask set
 163:src/../h/Riscv.hpp **** inline void Riscv::ms_sstatus(uint64 mask)
 164:src/../h/Riscv.hpp **** {
 165:src/../h/Riscv.hpp ****     __asm__ volatile ("csrs sstatus, %[mask]" : : [mask] "r"(mask));
 166:src/../h/Riscv.hpp **** }
 167:src/../h/Riscv.hpp **** 
 168:src/../h/Riscv.hpp **** //mask clear
 169:src/../h/Riscv.hpp **** inline void Riscv::mc_sstatus(uint64 mask)
 170:src/../h/Riscv.hpp **** {
 171:src/../h/Riscv.hpp ****     __asm__ volatile ("csrc sstatus, %[mask]" : : [mask] "r"(mask));
 172:src/../h/Riscv.hpp **** }
 173:src/../h/Riscv.hpp **** 
 174:src/../h/Riscv.hpp **** inline uint64 Riscv::r_sstatus()
 175:src/../h/Riscv.hpp **** {
 176:src/../h/Riscv.hpp ****     uint64 volatile sstatus;
 205              		.loc 2 176 5
 177:src/../h/Riscv.hpp ****     __asm__ volatile ("csrr %[sstatus], sstatus" : [sstatus] "=r"(sstatus));
 206              		.loc 2 177 5
 207              		.loc 2 177 76 is_stmt 0
 208              	#APP
 209              	# 177 "src/../h/Riscv.hpp" 1
 178              	    return sstatus;
 210              		csrr a5, sstatus
 211              	# 0 "" 2
 212              	#NO_APP
 213 00c4 2330F4FC 		sd	a5,-64(s0)
 214              		.loc 2 178 5 is_stmt 1
 215              		.loc 2 178 12 is_stmt 0
 216 00c8 033904FC 		ld	s2,-64(s0)
 217              	.LVL7:
 218              	.LBE98:
 219              	.LBE97:
 116:src/Riscv.cpp **** 
 220              		.loc 1 116 13 is_stmt 1
 116:src/Riscv.cpp **** 
 221              		.loc 1 116 30 is_stmt 0
 222 00cc 97000000 		call	_ZN7_thread8dispatchEv@plt
 222      E7800000 
 223              	.LVL8:
 118:src/Riscv.cpp ****             w_sepc(sepc);
 224              		.loc 1 118 13 is_stmt 1
 225              	.LBB99:
 226              	.LBB100:
 179:src/../h/Riscv.hpp **** }
 180:src/../h/Riscv.hpp **** 
 181:src/../h/Riscv.hpp **** inline void Riscv::w_sstatus(uint64 sstatus)
 182:src/../h/Riscv.hpp **** {
 183:src/../h/Riscv.hpp ****     __asm__ volatile ("csrw sstatus, %[sstatus]" : : [sstatus] "r"(sstatus));
 227              		.loc 2 183 5
 228              		.loc 2 183 77 is_stmt 0
 229              	#APP
 230              	# 183 "src/../h/Riscv.hpp" 1
 184              	}
 231              		csrw sstatus, s2
 232              	# 0 "" 2
 233              	.LVL9:
 234              	#NO_APP
GAS LISTING /tmp/ccTkEHoK.s 			page 11


 235              	.LBE100:
 236              	.LBE99:
 119:src/Riscv.cpp ****         }
 237              		.loc 1 119 13 is_stmt 1
 238              	.LBB101:
 239              	.LBB102:
 113:src/../h/Riscv.hpp **** }
 240              		.loc 2 113 5
 113:src/../h/Riscv.hpp **** }
 241              		.loc 2 113 65 is_stmt 0
 242              	#APP
 243              	# 113 "src/../h/Riscv.hpp" 1
 244              		csrw sepc, s1
 245              	# 0 "" 2
 246              	.LVL10:
 247              	#NO_APP
 248              	.LBE102:
 249              	.LBE101:
 250              	.LBE94:
 251              	.LBE93:
 252              	.LBE112:
 253              	.LBE124:
 254              	.LBE137:
 125:src/Riscv.cpp ****         // interrupt: yes; cause code: supervisor software interrupt (CLINT; machine timer interrup
 255              		.loc 1 125 10 is_stmt 1
 129:src/Riscv.cpp ****     {
 256              		.loc 1 129 10
 257              	.LBE145:
 258              		.loc 1 142 1 is_stmt 0
 259 00dc 6FF05FF8 		j	.L3
 260              	.LVL11:
 261              	.L14:
 262              	.LBB146:
 263              	.LBB138:
 264              	.LBB79:
  30:src/Riscv.cpp ****             uint64 sstatus = r_sstatus();
 265              		.loc 1 30 13 is_stmt 1
 266              	.LBB80:
 267              	.LBB81:
 106:src/../h/Riscv.hpp ****     __asm__ volatile ("csrr %[sepc], sepc" : [sepc] "=r"(sepc));
 268              		.loc 2 106 5
 107:src/../h/Riscv.hpp ****     return sepc;
 269              		.loc 2 107 5
 107:src/../h/Riscv.hpp ****     return sepc;
 270              		.loc 2 107 64 is_stmt 0
 271              	#APP
 272              	# 107 "src/../h/Riscv.hpp" 1
 273              		csrr a5, sepc
 274              	# 0 "" 2
 275              	#NO_APP
 276 00e4 233CF4F6 		sd	a5,-136(s0)
 108:src/../h/Riscv.hpp **** }
 277              		.loc 2 108 5 is_stmt 1
 108:src/../h/Riscv.hpp **** }
 278              		.loc 2 108 12 is_stmt 0
 279 00e8 033984F7 		ld	s2,-136(s0)
 280              	.LBE81:
GAS LISTING /tmp/ccTkEHoK.s 			page 12


 281              	.LBE80:
  30:src/Riscv.cpp ****             uint64 sstatus = r_sstatus();
 282              		.loc 1 30 38
 283 00ec 13094900 		addi	s2,s2,4
 284              	.LVL12:
  31:src/Riscv.cpp **** 
 285              		.loc 1 31 13 is_stmt 1
 286              	.LBB82:
 287              	.LBB83:
 176:src/../h/Riscv.hpp ****     __asm__ volatile ("csrr %[sstatus], sstatus" : [sstatus] "=r"(sstatus));
 288              		.loc 2 176 5
 177:src/../h/Riscv.hpp ****     return sstatus;
 289              		.loc 2 177 5
 177:src/../h/Riscv.hpp ****     return sstatus;
 290              		.loc 2 177 76 is_stmt 0
 291              	#APP
 292              	# 177 "src/../h/Riscv.hpp" 1
 293              		csrr a5, sstatus
 294              	# 0 "" 2
 295              	#NO_APP
 296 00f4 2338F4F6 		sd	a5,-144(s0)
 178:src/../h/Riscv.hpp **** }
 297              		.loc 2 178 5 is_stmt 1
 178:src/../h/Riscv.hpp **** }
 298              		.loc 2 178 12 is_stmt 0
 299 00f8 833904F7 		ld	s3,-144(s0)
 300              	.LVL13:
 301              	.LBE83:
 302              	.LBE82:
  33:src/Riscv.cpp ****             _thread::dispatch();
 303              		.loc 1 33 13 is_stmt 1
  33:src/Riscv.cpp ****             _thread::dispatch();
 304              		.loc 1 33 39 is_stmt 0
 305 00fc 97070000 		la	a5,_ZN7_thread16timeSliceCounterE
 305      83B70700 
 306 0104 23B00700 		sd	zero,0(a5)
  34:src/Riscv.cpp **** 
 307              		.loc 1 34 13 is_stmt 1
  34:src/Riscv.cpp **** 
 308              		.loc 1 34 30 is_stmt 0
 309 0108 97000000 		call	_ZN7_thread8dispatchEv@plt
 309      E7800000 
 310              	.LVL14:
  36:src/Riscv.cpp ****             w_sepc(sepc);
 311              		.loc 1 36 13 is_stmt 1
 312              	.LBB84:
 313              	.LBB85:
 183:src/../h/Riscv.hpp **** }
 314              		.loc 2 183 5
 183:src/../h/Riscv.hpp **** }
 315              		.loc 2 183 77 is_stmt 0
 316              	#APP
 317              	# 183 "src/../h/Riscv.hpp" 1
 318              		csrw sstatus, s3
 319              	# 0 "" 2
 320              	.LVL15:
 321              	#NO_APP
GAS LISTING /tmp/ccTkEHoK.s 			page 13


 322              	.LBE85:
 323              	.LBE84:
  37:src/Riscv.cpp ****         }
 324              		.loc 1 37 13 is_stmt 1
 325              	.LBB86:
 326              	.LBB87:
 113:src/../h/Riscv.hpp **** }
 327              		.loc 2 113 5
 113:src/../h/Riscv.hpp **** }
 328              		.loc 2 113 65 is_stmt 0
 329              	#APP
 330              	# 113 "src/../h/Riscv.hpp" 1
 114:src/../h/Riscv.hpp **** 
 331              		csrw sepc, s2
 332              	# 0 "" 2
 333              		.loc 2 114 1
 334              	#NO_APP
 335 0118 6FF09FF7 		j	.L6
 336              	.LVL16:
 337              	.L15:
 338              	.LBE87:
 339              	.LBE86:
 340              	.LBE79:
 341              	.LBB88:
 342              	.LBB70:
  40:src/Riscv.cpp ****             uint64 sstatus = r_sstatus();
 343              		.loc 1 40 13 is_stmt 1
 344              	.LBB71:
 345              	.LBB72:
 106:src/../h/Riscv.hpp ****     __asm__ volatile ("csrr %[sepc], sepc" : [sepc] "=r"(sepc));
 346              		.loc 2 106 5
 107:src/../h/Riscv.hpp ****     return sepc;
 347              		.loc 2 107 5
 107:src/../h/Riscv.hpp ****     return sepc;
 348              		.loc 2 107 64 is_stmt 0
 349              	#APP
 350              	# 107 "src/../h/Riscv.hpp" 1
 351              		csrr a5, sepc
 352              	# 0 "" 2
 353              	#NO_APP
 354 0120 2334F4F8 		sd	a5,-120(s0)
 108:src/../h/Riscv.hpp **** }
 355              		.loc 2 108 5 is_stmt 1
 108:src/../h/Riscv.hpp **** }
 356              		.loc 2 108 12 is_stmt 0
 357 0124 033984F8 		ld	s2,-120(s0)
 358              	.LBE72:
 359              	.LBE71:
  40:src/Riscv.cpp ****             uint64 sstatus = r_sstatus();
 360              		.loc 1 40 38
 361 0128 13094900 		addi	s2,s2,4
 362              	.LVL17:
  41:src/Riscv.cpp **** 
 363              		.loc 1 41 13 is_stmt 1
 364              	.LBB73:
 365              	.LBB74:
 176:src/../h/Riscv.hpp ****     __asm__ volatile ("csrr %[sstatus], sstatus" : [sstatus] "=r"(sstatus));
GAS LISTING /tmp/ccTkEHoK.s 			page 14


 366              		.loc 2 176 5
 177:src/../h/Riscv.hpp ****     return sstatus;
 367              		.loc 2 177 5
 177:src/../h/Riscv.hpp ****     return sstatus;
 368              		.loc 2 177 76 is_stmt 0
 369              	#APP
 370              	# 177 "src/../h/Riscv.hpp" 1
 371              		csrr a5, sstatus
 372              	# 0 "" 2
 373              	#NO_APP
 374 0130 2330F4F8 		sd	a5,-128(s0)
 178:src/../h/Riscv.hpp **** }
 375              		.loc 2 178 5 is_stmt 1
 178:src/../h/Riscv.hpp **** }
 376              		.loc 2 178 12 is_stmt 0
 377 0134 833904F8 		ld	s3,-128(s0)
 378              	.LVL18:
 379              	.LBE74:
 380              	.LBE73:
  44:src/Riscv.cpp ****             _thread::Body arg2;
 381              		.loc 1 44 13 is_stmt 1
  45:src/Riscv.cpp ****             uint64 arg3;
 382              		.loc 1 45 13
  46:src/Riscv.cpp ****             uint64 *arg4;
 383              		.loc 1 46 13
  47:src/Riscv.cpp **** 
 384              		.loc 1 47 13
  49:src/Riscv.cpp ****             __asm__ volatile("ld a2, 12*8(fp)"); //a2
 385              		.loc 1 49 13
  49:src/Riscv.cpp ****             __asm__ volatile("ld a2, 12*8(fp)"); //a2
 386              		.loc 1 49 48 is_stmt 0
 387              	#APP
 388              	# 49 "src/Riscv.cpp" 1
  50:src/Riscv.cpp ****             __asm__ volatile("ld a3, 13*8(fp)"); //a3
 389              		ld a1, 11*8(fp)
 390              	# 0 "" 2
 391              		.loc 1 50 13 is_stmt 1
  50:src/Riscv.cpp ****             __asm__ volatile("ld a3, 13*8(fp)"); //a3
 392              		.loc 1 50 48 is_stmt 0
 393              	# 50 "src/Riscv.cpp" 1
  51:src/Riscv.cpp ****             __asm__ volatile("ld a4, 14*8(fp)"); //a4
 394              		ld a2, 12*8(fp)
 395              	# 0 "" 2
 396              		.loc 1 51 13 is_stmt 1
  51:src/Riscv.cpp ****             __asm__ volatile("ld a4, 14*8(fp)"); //a4
 397              		.loc 1 51 48 is_stmt 0
 398              	# 51 "src/Riscv.cpp" 1
  52:src/Riscv.cpp **** 
 399              		ld a3, 13*8(fp)
 400              	# 0 "" 2
 401              		.loc 1 52 13 is_stmt 1
  52:src/Riscv.cpp **** 
 402              		.loc 1 52 48 is_stmt 0
 403              	# 52 "src/Riscv.cpp" 1
  55:src/Riscv.cpp ****             __asm__ volatile("mv %0, a2" : "=r" (arg2));    //start routine
 404              		ld a4, 14*8(fp)
 405              	# 0 "" 2
GAS LISTING /tmp/ccTkEHoK.s 			page 15


 406              		.loc 1 55 13 is_stmt 1
  55:src/Riscv.cpp ****             __asm__ volatile("mv %0, a2" : "=r" (arg2));    //start routine
 407              		.loc 1 55 56 is_stmt 0
 408              	# 55 "src/Riscv.cpp" 1
 409              		mv s4, a1
 410              	# 0 "" 2
 411              	.LVL19:
  56:src/Riscv.cpp ****             __asm__ volatile("mv %0, a3" : "=r" (arg3));    //argument of start routine
 412              		.loc 1 56 13 is_stmt 1
  56:src/Riscv.cpp ****             __asm__ volatile("mv %0, a3" : "=r" (arg3));    //argument of start routine
 413              		.loc 1 56 56 is_stmt 0
 414              	# 56 "src/Riscv.cpp" 1
 415              		mv a0, a2
 416              	# 0 "" 2
 417              	.LVL20:
  57:src/Riscv.cpp ****             __asm__ volatile("mv %0, a4" : "=r" (arg4));    //stack
 418              		.loc 1 57 13 is_stmt 1
  57:src/Riscv.cpp ****             __asm__ volatile("mv %0, a4" : "=r" (arg4));    //stack
 419              		.loc 1 57 56 is_stmt 0
 420              	# 57 "src/Riscv.cpp" 1
 421              		mv a1, a3
 422              	# 0 "" 2
 423              	.LVL21:
  58:src/Riscv.cpp **** 
 424              		.loc 1 58 13 is_stmt 1
  58:src/Riscv.cpp **** 
 425              		.loc 1 58 56 is_stmt 0
 426              	# 58 "src/Riscv.cpp" 1
 427              		mv a2, a4
 428              	# 0 "" 2
 429              	.LVL22:
  61:src/Riscv.cpp ****             *arg1=t;
 430              		.loc 1 61 13 is_stmt 1
  61:src/Riscv.cpp ****             *arg1=t;
 431              		.loc 1 61 47 is_stmt 0
 432              	#NO_APP
 433 0158 97000000 		call	_ZN7_thread12createThreadEPFvPvES0_Pm@plt
 433      E7800000 
 434              	.LVL23:
  62:src/Riscv.cpp **** 
 435              		.loc 1 62 13 is_stmt 1
  62:src/Riscv.cpp **** 
 436              		.loc 1 62 18 is_stmt 0
 437 0160 2330AA00 		sd	a0,0(s4)
  64:src/Riscv.cpp ****             if(t!= nullptr)ret=0;
 438              		.loc 1 64 13 is_stmt 1
  65:src/Riscv.cpp ****             else ret =-1;
 439              		.loc 1 65 13
 440 0164 630C0500 		beqz	a0,.L11
  65:src/Riscv.cpp ****             else ret =-1;
 441              		.loc 1 65 31 is_stmt 0
 442 0168 93070000 		li	a5,0
 443              	.L7:
 444              	.LVL24:
  70:src/Riscv.cpp **** 
 445              		.loc 1 70 13 is_stmt 1
  70:src/Riscv.cpp **** 
GAS LISTING /tmp/ccTkEHoK.s 			page 16


 446              		.loc 1 70 56 is_stmt 0
 447              	#APP
 448              	# 70 "src/Riscv.cpp" 1
  72:src/Riscv.cpp ****             w_sepc(sepc);
 449              		mv a0, a5
 450              	# 0 "" 2
 451              		.loc 1 72 13 is_stmt 1
 452              	.LVL25:
 453              	#NO_APP
 454              	.LBB75:
 455              	.LBB76:
 183:src/../h/Riscv.hpp **** }
 456              		.loc 2 183 5
 183:src/../h/Riscv.hpp **** }
 457              		.loc 2 183 77 is_stmt 0
 458              	#APP
 459              	# 183 "src/../h/Riscv.hpp" 1
 460              		csrw sstatus, s3
 461              	# 0 "" 2
 462              	.LVL26:
 463              	#NO_APP
 464              	.LBE76:
 465              	.LBE75:
  73:src/Riscv.cpp ****         }
 466              		.loc 1 73 13 is_stmt 1
 467              	.LBB77:
 468              	.LBB78:
 113:src/../h/Riscv.hpp **** }
 469              		.loc 2 113 5
 113:src/../h/Riscv.hpp **** }
 470              		.loc 2 113 65 is_stmt 0
 471              	#APP
 472              	# 113 "src/../h/Riscv.hpp" 1
 114:src/../h/Riscv.hpp **** 
 473              		csrw sepc, s2
 474              	# 0 "" 2
 475              		.loc 2 114 1
 476              	#NO_APP
 477 0178 6FF09FF1 		j	.L6
 478              	.LVL27:
 479              	.L11:
 480              	.LBE78:
 481              	.LBE77:
  66:src/Riscv.cpp **** 
 482              		.loc 1 66 22
 483 017c 9307F0FF 		li	a5,-1
 484 0180 6FF0DFFE 		j	.L7
 485              	.LVL28:
 486              	.L16:
 487              	.LBE70:
 488              	.LBE88:
 489              	.LBE138:
 490              	.LBB139:
 491              	.LBB125:
  76:src/Riscv.cpp ****             uint64 sstatus = r_sstatus();
 492              		.loc 1 76 13 is_stmt 1
 493              	.LBB126:
GAS LISTING /tmp/ccTkEHoK.s 			page 17


 494              	.LBB127:
 106:src/../h/Riscv.hpp ****     __asm__ volatile ("csrr %[sepc], sepc" : [sepc] "=r"(sepc));
 495              		.loc 2 106 5
 107:src/../h/Riscv.hpp ****     return sepc;
 496              		.loc 2 107 5
 107:src/../h/Riscv.hpp ****     return sepc;
 497              		.loc 2 107 64 is_stmt 0
 498              	#APP
 499              	# 107 "src/../h/Riscv.hpp" 1
 500              		csrr a5, sepc
 501              	# 0 "" 2
 502              	#NO_APP
 503 0188 233CF4F8 		sd	a5,-104(s0)
 108:src/../h/Riscv.hpp **** }
 504              		.loc 2 108 5 is_stmt 1
 108:src/../h/Riscv.hpp **** }
 505              		.loc 2 108 12 is_stmt 0
 506 018c 833484F9 		ld	s1,-104(s0)
 507              	.LVL29:
 508              	.LBE127:
 509              	.LBE126:
  76:src/Riscv.cpp ****             uint64 sstatus = r_sstatus();
 510              		.loc 1 76 38
 511 0190 93844400 		addi	s1,s1,4
 512              	.LVL30:
  77:src/Riscv.cpp ****             //kmem_alloc
 513              		.loc 1 77 13 is_stmt 1
 514              	.LBB128:
 515              	.LBB129:
 176:src/../h/Riscv.hpp ****     __asm__ volatile ("csrr %[sstatus], sstatus" : [sstatus] "=r"(sstatus));
 516              		.loc 2 176 5
 177:src/../h/Riscv.hpp ****     return sstatus;
 517              		.loc 2 177 5
 177:src/../h/Riscv.hpp ****     return sstatus;
 518              		.loc 2 177 76 is_stmt 0
 519              	#APP
 520              	# 177 "src/../h/Riscv.hpp" 1
 521              		csrr a5, sstatus
 522              	# 0 "" 2
 523              	#NO_APP
 524 0198 2338F4F8 		sd	a5,-112(s0)
 178:src/../h/Riscv.hpp **** }
 525              		.loc 2 178 5 is_stmt 1
 178:src/../h/Riscv.hpp **** }
 526              		.loc 2 178 12 is_stmt 0
 527 019c 033904F9 		ld	s2,-112(s0)
 528              	.LVL31:
 529              	.LBE129:
 530              	.LBE128:
  79:src/Riscv.cpp ****             uint64 ptr= (uint64) MemoryAllocator::kmem_alloc(arg1*MEM_BLOCK_SIZE);
 531              		.loc 1 79 13 is_stmt 1
  79:src/Riscv.cpp ****             uint64 ptr= (uint64) MemoryAllocator::kmem_alloc(arg1*MEM_BLOCK_SIZE);
 532              		.loc 1 79 56 is_stmt 0
 533              	#APP
 534              	# 79 "src/Riscv.cpp" 1
 535              		mv a0, a1
 536              	# 0 "" 2
GAS LISTING /tmp/ccTkEHoK.s 			page 18


 537              	.LVL32:
  80:src/Riscv.cpp **** 
 538              		.loc 1 80 13 is_stmt 1
  80:src/Riscv.cpp **** 
 539              		.loc 1 80 61 is_stmt 0
 540              	#NO_APP
 541 01a4 13156500 		slli	a0,a0,6
 542              	.LVL33:
 543 01a8 97000000 		call	_ZN15MemoryAllocator10kmem_allocEm@plt
 543      E7800000 
 544              	.LVL34:
  83:src/Riscv.cpp **** 
 545              		.loc 1 83 13 is_stmt 1
  83:src/Riscv.cpp **** 
 546              		.loc 1 83 56 is_stmt 0
 547              	#APP
 548              	# 83 "src/Riscv.cpp" 1
  85:src/Riscv.cpp ****             w_sepc(sepc);
 549              		mv a0, a0
 550              	# 0 "" 2
 551              		.loc 1 85 13 is_stmt 1
 552              	.LVL35:
 553              	#NO_APP
 554              	.LBB130:
 555              	.LBB131:
 183:src/../h/Riscv.hpp **** }
 556              		.loc 2 183 5
 183:src/../h/Riscv.hpp **** }
 557              		.loc 2 183 77 is_stmt 0
 558              	#APP
 559              	# 183 "src/../h/Riscv.hpp" 1
 560              		csrw sstatus, s2
 561              	# 0 "" 2
 562              	.LVL36:
 563              	#NO_APP
 564              	.LBE131:
 565              	.LBE130:
  86:src/Riscv.cpp ****         }
 566              		.loc 1 86 13 is_stmt 1
 567              	.LBB132:
 568              	.LBB133:
 113:src/../h/Riscv.hpp **** }
 569              		.loc 2 113 5
 113:src/../h/Riscv.hpp **** }
 570              		.loc 2 113 65 is_stmt 0
 571              	#APP
 572              	# 113 "src/../h/Riscv.hpp" 1
 114:src/../h/Riscv.hpp **** 
 573              		csrw sepc, s1
 574              	# 0 "" 2
 575              		.loc 2 114 1
 576              	#NO_APP
 577 01bc 6FF05FEA 		j	.L3
 578              	.LVL37:
 579              	.L17:
 580              	.LBE133:
 581              	.LBE132:
GAS LISTING /tmp/ccTkEHoK.s 			page 19


 582              	.LBE125:
 583              	.LBB134:
 584              	.LBB113:
  89:src/Riscv.cpp ****             uint64 sstatus = r_sstatus();
 585              		.loc 1 89 13 is_stmt 1
 586              	.LBB114:
 587              	.LBB115:
 106:src/../h/Riscv.hpp ****     __asm__ volatile ("csrr %[sepc], sepc" : [sepc] "=r"(sepc));
 588              		.loc 2 106 5
 107:src/../h/Riscv.hpp ****     return sepc;
 589              		.loc 2 107 5
 107:src/../h/Riscv.hpp ****     return sepc;
 590              		.loc 2 107 64 is_stmt 0
 591              	#APP
 592              	# 107 "src/../h/Riscv.hpp" 1
 593              		csrr a5, sepc
 594              	# 0 "" 2
 595              	#NO_APP
 596 01c4 2334F4FA 		sd	a5,-88(s0)
 108:src/../h/Riscv.hpp **** }
 597              		.loc 2 108 5 is_stmt 1
 108:src/../h/Riscv.hpp **** }
 598              		.loc 2 108 12 is_stmt 0
 599 01c8 833484FA 		ld	s1,-88(s0)
 600              	.LVL38:
 601              	.LBE115:
 602              	.LBE114:
  89:src/Riscv.cpp ****             uint64 sstatus = r_sstatus();
 603              		.loc 1 89 38
 604 01cc 93844400 		addi	s1,s1,4
 605              	.LVL39:
  90:src/Riscv.cpp **** 
 606              		.loc 1 90 13 is_stmt 1
 607              	.LBB116:
 608              	.LBB117:
 176:src/../h/Riscv.hpp ****     __asm__ volatile ("csrr %[sstatus], sstatus" : [sstatus] "=r"(sstatus));
 609              		.loc 2 176 5
 177:src/../h/Riscv.hpp ****     return sstatus;
 610              		.loc 2 177 5
 177:src/../h/Riscv.hpp ****     return sstatus;
 611              		.loc 2 177 76 is_stmt 0
 612              	#APP
 613              	# 177 "src/../h/Riscv.hpp" 1
 614              		csrr a5, sstatus
 615              	# 0 "" 2
 616              	#NO_APP
 617 01d4 2330F4FA 		sd	a5,-96(s0)
 178:src/../h/Riscv.hpp **** }
 618              		.loc 2 178 5 is_stmt 1
 178:src/../h/Riscv.hpp **** }
 619              		.loc 2 178 12 is_stmt 0
 620 01d8 033904FA 		ld	s2,-96(s0)
 621              	.LVL40:
 622              	.LBE117:
 623              	.LBE116:
  92:src/Riscv.cpp ****             int ret = MemoryAllocator::kmem_free((void *) arg1);
 624              		.loc 1 92 13 is_stmt 1
GAS LISTING /tmp/ccTkEHoK.s 			page 20


  92:src/Riscv.cpp ****             int ret = MemoryAllocator::kmem_free((void *) arg1);
 625              		.loc 1 92 56 is_stmt 0
 626              	#APP
 627              	# 92 "src/Riscv.cpp" 1
 628              		mv a0, a1
 629              	# 0 "" 2
 630              	.LVL41:
  93:src/Riscv.cpp ****             __asm__ volatile("mv a0, %0" : : "r" (ret));
 631              		.loc 1 93 13 is_stmt 1
  93:src/Riscv.cpp ****             __asm__ volatile("mv a0, %0" : : "r" (ret));
 632              		.loc 1 93 49 is_stmt 0
 633              	#NO_APP
 634 01e0 97000000 		call	_ZN15MemoryAllocator9kmem_freeEPv@plt
 634      E7800000 
 635              	.LVL42:
  94:src/Riscv.cpp **** 
 636              		.loc 1 94 13 is_stmt 1
  94:src/Riscv.cpp **** 
 637              		.loc 1 94 56 is_stmt 0
 638              	#APP
 639              	# 94 "src/Riscv.cpp" 1
  96:src/Riscv.cpp ****             w_sepc(sepc);
 640              		mv a0, a0
 641              	# 0 "" 2
 642              		.loc 1 96 13 is_stmt 1
 643              	.LVL43:
 644              	#NO_APP
 645              	.LBB118:
 646              	.LBB119:
 183:src/../h/Riscv.hpp **** }
 647              		.loc 2 183 5
 183:src/../h/Riscv.hpp **** }
 648              		.loc 2 183 77 is_stmt 0
 649              	#APP
 650              	# 183 "src/../h/Riscv.hpp" 1
 651              		csrw sstatus, s2
 652              	# 0 "" 2
 653              	.LVL44:
 654              	#NO_APP
 655              	.LBE119:
 656              	.LBE118:
  97:src/Riscv.cpp ****         }
 657              		.loc 1 97 13 is_stmt 1
 658              	.LBB120:
 659              	.LBB121:
 113:src/../h/Riscv.hpp **** }
 660              		.loc 2 113 5
 113:src/../h/Riscv.hpp **** }
 661              		.loc 2 113 65 is_stmt 0
 662              	#APP
 663              	# 113 "src/../h/Riscv.hpp" 1
 114:src/../h/Riscv.hpp **** 
 664              		csrw sepc, s1
 665              	# 0 "" 2
 666              		.loc 2 114 1
 667              	#NO_APP
 668 01f4 6FF0DFE6 		j	.L3
GAS LISTING /tmp/ccTkEHoK.s 			page 21


 669              	.LVL45:
 670              	.L18:
 671              	.LBE121:
 672              	.LBE120:
 673              	.LBE113:
 674              	.LBB122:
 675              	.LBB103:
 101:src/Riscv.cpp ****             uint64 sstatus = r_sstatus();
 676              		.loc 1 101 13 is_stmt 1
 677              	.LBB104:
 678              	.LBB105:
 106:src/../h/Riscv.hpp ****     __asm__ volatile ("csrr %[sepc], sepc" : [sepc] "=r"(sepc));
 679              		.loc 2 106 5
 107:src/../h/Riscv.hpp ****     return sepc;
 680              		.loc 2 107 5
 107:src/../h/Riscv.hpp ****     return sepc;
 681              		.loc 2 107 64 is_stmt 0
 682              	#APP
 683              	# 107 "src/../h/Riscv.hpp" 1
 684              		csrr a5, sepc
 685              	# 0 "" 2
 686              	#NO_APP
 687 01fc 233CF4FA 		sd	a5,-72(s0)
 108:src/../h/Riscv.hpp **** }
 688              		.loc 2 108 5 is_stmt 1
 108:src/../h/Riscv.hpp **** }
 689              		.loc 2 108 12 is_stmt 0
 690 0200 833484FB 		ld	s1,-72(s0)
 691              	.LVL46:
 692              	.LBE105:
 693              	.LBE104:
 101:src/Riscv.cpp ****             uint64 sstatus = r_sstatus();
 694              		.loc 1 101 38
 695 0204 93844400 		addi	s1,s1,4
 696              	.LVL47:
 102:src/Riscv.cpp **** 
 697              		.loc 1 102 13 is_stmt 1
 698              	.LBB106:
 699              	.LBB107:
 176:src/../h/Riscv.hpp ****     __asm__ volatile ("csrr %[sstatus], sstatus" : [sstatus] "=r"(sstatus));
 700              		.loc 2 176 5
 177:src/../h/Riscv.hpp ****     return sstatus;
 701              		.loc 2 177 5
 177:src/../h/Riscv.hpp ****     return sstatus;
 702              		.loc 2 177 76 is_stmt 0
 703              	#APP
 704              	# 177 "src/../h/Riscv.hpp" 1
 705              		csrr a5, sstatus
 706              	# 0 "" 2
 707              	#NO_APP
 708 020c 2338F4FA 		sd	a5,-80(s0)
 178:src/../h/Riscv.hpp **** }
 709              		.loc 2 178 5 is_stmt 1
 178:src/../h/Riscv.hpp **** }
 710              		.loc 2 178 12 is_stmt 0
 711 0210 033904FB 		ld	s2,-80(s0)
 712              	.LVL48:
GAS LISTING /tmp/ccTkEHoK.s 			page 22


 713              	.LBE107:
 714              	.LBE106:
 104:src/Riscv.cpp ****             _thread::dispatch();
 715              		.loc 1 104 13 is_stmt 1
 104:src/Riscv.cpp ****             _thread::dispatch();
 716              		.loc 1 104 31 is_stmt 0
 717 0214 97070000 		la	a5,_ZN7_thread7runningE
 717      83B70700 
 718 021c 83B70700 		ld	a5,0(a5)
 104:src/Riscv.cpp ****             _thread::dispatch();
 719              		.loc 1 104 39
 720 0220 13071000 		li	a4,1
 721 0224 2384E702 		sb	a4,40(a5)
 105:src/Riscv.cpp **** 
 722              		.loc 1 105 13 is_stmt 1
 105:src/Riscv.cpp **** 
 723              		.loc 1 105 30 is_stmt 0
 724 0228 97000000 		call	_ZN7_thread8dispatchEv@plt
 724      E7800000 
 725              	.LVL49:
 107:src/Riscv.cpp ****             w_sepc(sepc);
 726              		.loc 1 107 13 is_stmt 1
 727              	.LBB108:
 728              	.LBB109:
 183:src/../h/Riscv.hpp **** }
 729              		.loc 2 183 5
 183:src/../h/Riscv.hpp **** }
 730              		.loc 2 183 77 is_stmt 0
 731              	#APP
 732              	# 183 "src/../h/Riscv.hpp" 1
 733              		csrw sstatus, s2
 734              	# 0 "" 2
 735              	.LVL50:
 736              	#NO_APP
 737              	.LBE109:
 738              	.LBE108:
 108:src/Riscv.cpp **** 
 739              		.loc 1 108 13 is_stmt 1
 740              	.LBB110:
 741              	.LBB111:
 113:src/../h/Riscv.hpp **** }
 742              		.loc 2 113 5
 113:src/../h/Riscv.hpp **** }
 743              		.loc 2 113 65 is_stmt 0
 744              	#APP
 745              	# 113 "src/../h/Riscv.hpp" 1
 114:src/../h/Riscv.hpp **** 
 746              		csrw sepc, s1
 747              	# 0 "" 2
 748              		.loc 2 114 1
 749              	#NO_APP
 750 0238 6FF09FE2 		j	.L3
 751              	.LBE111:
 752              	.LBE110:
 753              	.LBE103:
 754              	.LBE122:
 755              	.LBE134:
GAS LISTING /tmp/ccTkEHoK.s 			page 23


 756              	.LBE139:
 757              	.LBE146:
 758              		.cfi_endproc
 759              	.LFE43:
 761              	.Letext0:
 762              		.file 3 "src/../h/../lib/hw.h"
 763              		.file 4 "src/../h/MemoryAllocator.hpp"
 764              		.file 5 "src/../h/_thread.hpp"
GAS LISTING /tmp/ccTkEHoK.s 			page 24


DEFINED SYMBOLS
                            *ABS*:0000000000000000 Riscv.cpp
     /tmp/ccTkEHoK.s:9      .text:0000000000000000 _ZN5Riscv10popSppSpieEv
     /tmp/ccTkEHoK.s:13     .text:0000000000000000 .L0 
     /tmp/ccTkEHoK.s:14     .text:0000000000000000 .L0 
     /tmp/ccTkEHoK.s:15     .text:0000000000000004 .L0 
     /tmp/ccTkEHoK.s:17     .text:0000000000000008 .L0 
     /tmp/ccTkEHoK.s:19     .text:000000000000000c .L0 
     /tmp/ccTkEHoK.s:21     .text:000000000000000c .L0 
       src/Riscv.cpp:14     .text:000000000000000c .L0 
     /tmp/ccTkEHoK.s:27     .text:0000000000000010 .L0 
       src/Riscv.cpp:15     .text:0000000000000010 .L0 
     /tmp/ccTkEHoK.s:33     .text:0000000000000014 .L0 
     /tmp/ccTkEHoK.s:34     .text:0000000000000018 .L0 
     /tmp/ccTkEHoK.s:35     .text:0000000000000018 .L0 
     /tmp/ccTkEHoK.s:37     .text:000000000000001c .L0 
     /tmp/ccTkEHoK.s:39     .text:0000000000000020 .L0 
     /tmp/ccTkEHoK.s:45     .text:0000000000000020 _ZN5Riscv20handleSupervisorTrapEv
     /tmp/ccTkEHoK.s:48     .text:0000000000000020 .L0 
     /tmp/ccTkEHoK.s:49     .text:0000000000000020 .L0 
     /tmp/ccTkEHoK.s:50     .text:0000000000000024 .L0 
     /tmp/ccTkEHoK.s:57     .text:000000000000003c .L0 
     /tmp/ccTkEHoK.s:58     .text:000000000000003c .L0 
     /tmp/ccTkEHoK.s:59     .text:000000000000003c .L0 
     /tmp/ccTkEHoK.s:60     .text:000000000000003c .L0 
     /tmp/ccTkEHoK.s:61     .text:000000000000003c .L0 
     /tmp/ccTkEHoK.s:62     .text:000000000000003c .L0 
     /tmp/ccTkEHoK.s:64     .text:0000000000000040 .L0 
     /tmp/ccTkEHoK.s:69     .text:0000000000000040 .L0 
     /tmp/ccTkEHoK.s:70     .text:0000000000000040 .L0 
     /tmp/ccTkEHoK.s:71     .text:0000000000000040 .L0 
  src/../h/Riscv.hpp:95     .text:0000000000000040 .L0 
     /tmp/ccTkEHoK.s:79     .text:0000000000000048 .L0 
     /tmp/ccTkEHoK.s:80     .text:0000000000000048 .L0 
     /tmp/ccTkEHoK.s:84     .text:000000000000004c .L0 
     /tmp/ccTkEHoK.s:87     .text:0000000000000050 .L0 
     /tmp/ccTkEHoK.s:88     .text:0000000000000050 .L0 
     /tmp/ccTkEHoK.s:89     .text:0000000000000050 .L0 
       src/Riscv.cpp:23     .text:0000000000000050 .L0 
     /tmp/ccTkEHoK.s:98     .text:0000000000000054 .L0 
     /tmp/ccTkEHoK.s:99     .text:0000000000000054 .L0 
     /tmp/ccTkEHoK.s:102    .text:0000000000000058 .L0 
     /tmp/ccTkEHoK.s:108    .text:0000000000000060 .L0 
     /tmp/ccTkEHoK.s:109    .text:0000000000000064 .L0 
     /tmp/ccTkEHoK.s:110    .text:0000000000000064 .L0 
     /tmp/ccTkEHoK.s:112    .text:0000000000000068 .L0 
     /tmp/ccTkEHoK.s:113    .text:0000000000000068 .L0 
     /tmp/ccTkEHoK.s:115    .text:000000000000006c .L0 
     /tmp/ccTkEHoK.s:117    .text:0000000000000070 .L0 
     /tmp/ccTkEHoK.s:119    .text:0000000000000074 .L0 
     /tmp/ccTkEHoK.s:121    .text:0000000000000078 .L0 
     /tmp/ccTkEHoK.s:123    .text:000000000000007c .L0 
     /tmp/ccTkEHoK.s:127    .text:0000000000000080 .L0 
     /tmp/ccTkEHoK.s:131    .text:0000000000000080 .L0 
     /tmp/ccTkEHoK.s:139    .text:0000000000000088 .L0 
     /tmp/ccTkEHoK.s:148    .text:0000000000000090 .L0 
     /tmp/ccTkEHoK.s:156    .text:0000000000000098 .L0 
GAS LISTING /tmp/ccTkEHoK.s 			page 25


     /tmp/ccTkEHoK.s:166    .text:00000000000000a0 .L0 
     /tmp/ccTkEHoK.s:178    .text:00000000000000a8 .L0 
     /tmp/ccTkEHoK.s:184    .text:00000000000000b0 .L0 
     /tmp/ccTkEHoK.s:185    .text:00000000000000b0 .L0 
     /tmp/ccTkEHoK.s:186    .text:00000000000000b0 .L0 
  src/../h/Riscv.hpp:107    .text:00000000000000b0 .L0 
     /tmp/ccTkEHoK.s:194    .text:00000000000000b8 .L0 
     /tmp/ccTkEHoK.s:195    .text:00000000000000b8 .L0 
     /tmp/ccTkEHoK.s:200    .text:00000000000000bc .L0 
     /tmp/ccTkEHoK.s:205    .text:00000000000000c0 .L0 
     /tmp/ccTkEHoK.s:206    .text:00000000000000c0 .L0 
     /tmp/ccTkEHoK.s:207    .text:00000000000000c0 .L0 
  src/../h/Riscv.hpp:177    .text:00000000000000c0 .L0 
     /tmp/ccTkEHoK.s:215    .text:00000000000000c8 .L0 
     /tmp/ccTkEHoK.s:216    .text:00000000000000c8 .L0 
     /tmp/ccTkEHoK.s:221    .text:00000000000000cc .L0 
     /tmp/ccTkEHoK.s:222    .text:00000000000000cc .L0 
     /tmp/ccTkEHoK.s:227    .text:00000000000000d4 .L0 
     /tmp/ccTkEHoK.s:228    .text:00000000000000d4 .L0 
  src/../h/Riscv.hpp:183    .text:00000000000000d4 .L0 
     /tmp/ccTkEHoK.s:240    .text:00000000000000d8 .L0 
     /tmp/ccTkEHoK.s:241    .text:00000000000000d8 .L0 
  src/../h/Riscv.hpp:113    .text:00000000000000d8 .L0 
     /tmp/ccTkEHoK.s:256    .text:00000000000000dc .L0 
     /tmp/ccTkEHoK.s:258    .text:00000000000000dc .L0 
     /tmp/ccTkEHoK.s:259    .text:00000000000000dc .L0 
     /tmp/ccTkEHoK.s:268    .text:00000000000000e0 .L0 
     /tmp/ccTkEHoK.s:269    .text:00000000000000e0 .L0 
     /tmp/ccTkEHoK.s:270    .text:00000000000000e0 .L0 
  src/../h/Riscv.hpp:107    .text:00000000000000e0 .L0 
     /tmp/ccTkEHoK.s:278    .text:00000000000000e8 .L0 
     /tmp/ccTkEHoK.s:279    .text:00000000000000e8 .L0 
     /tmp/ccTkEHoK.s:283    .text:00000000000000ec .L0 
     /tmp/ccTkEHoK.s:288    .text:00000000000000f0 .L0 
     /tmp/ccTkEHoK.s:289    .text:00000000000000f0 .L0 
     /tmp/ccTkEHoK.s:290    .text:00000000000000f0 .L0 
  src/../h/Riscv.hpp:177    .text:00000000000000f0 .L0 
     /tmp/ccTkEHoK.s:298    .text:00000000000000f8 .L0 
     /tmp/ccTkEHoK.s:299    .text:00000000000000f8 .L0 
     /tmp/ccTkEHoK.s:304    .text:00000000000000fc .L0 
     /tmp/ccTkEHoK.s:305    .text:00000000000000fc .L0 
     /tmp/ccTkEHoK.s:308    .text:0000000000000108 .L0 
     /tmp/ccTkEHoK.s:309    .text:0000000000000108 .L0 
     /tmp/ccTkEHoK.s:314    .text:0000000000000110 .L0 
     /tmp/ccTkEHoK.s:315    .text:0000000000000110 .L0 
  src/../h/Riscv.hpp:183    .text:0000000000000110 .L0 
     /tmp/ccTkEHoK.s:327    .text:0000000000000114 .L0 
     /tmp/ccTkEHoK.s:328    .text:0000000000000114 .L0 
  src/../h/Riscv.hpp:113    .text:0000000000000114 .L0 
     /tmp/ccTkEHoK.s:335    .text:0000000000000118 .L0 
     /tmp/ccTkEHoK.s:346    .text:000000000000011c .L0 
     /tmp/ccTkEHoK.s:347    .text:000000000000011c .L0 
     /tmp/ccTkEHoK.s:348    .text:000000000000011c .L0 
  src/../h/Riscv.hpp:107    .text:000000000000011c .L0 
     /tmp/ccTkEHoK.s:356    .text:0000000000000124 .L0 
     /tmp/ccTkEHoK.s:357    .text:0000000000000124 .L0 
     /tmp/ccTkEHoK.s:361    .text:0000000000000128 .L0 
GAS LISTING /tmp/ccTkEHoK.s 			page 26


     /tmp/ccTkEHoK.s:366    .text:000000000000012c .L0 
     /tmp/ccTkEHoK.s:367    .text:000000000000012c .L0 
     /tmp/ccTkEHoK.s:368    .text:000000000000012c .L0 
  src/../h/Riscv.hpp:177    .text:000000000000012c .L0 
     /tmp/ccTkEHoK.s:376    .text:0000000000000134 .L0 
     /tmp/ccTkEHoK.s:377    .text:0000000000000134 .L0 
     /tmp/ccTkEHoK.s:382    .text:0000000000000138 .L0 
     /tmp/ccTkEHoK.s:383    .text:0000000000000138 .L0 
     /tmp/ccTkEHoK.s:384    .text:0000000000000138 .L0 
     /tmp/ccTkEHoK.s:385    .text:0000000000000138 .L0 
     /tmp/ccTkEHoK.s:386    .text:0000000000000138 .L0 
       src/Riscv.cpp:49     .text:0000000000000138 .L0 
     /tmp/ccTkEHoK.s:392    .text:000000000000013c .L0 
       src/Riscv.cpp:50     .text:000000000000013c .L0 
     /tmp/ccTkEHoK.s:397    .text:0000000000000140 .L0 
       src/Riscv.cpp:51     .text:0000000000000140 .L0 
     /tmp/ccTkEHoK.s:402    .text:0000000000000144 .L0 
       src/Riscv.cpp:52     .text:0000000000000144 .L0 
     /tmp/ccTkEHoK.s:407    .text:0000000000000148 .L0 
       src/Riscv.cpp:55     .text:0000000000000148 .L0 
     /tmp/ccTkEHoK.s:413    .text:000000000000014c .L0 
       src/Riscv.cpp:56     .text:000000000000014c .L0 
     /tmp/ccTkEHoK.s:419    .text:0000000000000150 .L0 
       src/Riscv.cpp:57     .text:0000000000000150 .L0 
     /tmp/ccTkEHoK.s:425    .text:0000000000000154 .L0 
       src/Riscv.cpp:58     .text:0000000000000154 .L0 
     /tmp/ccTkEHoK.s:431    .text:0000000000000158 .L0 
     /tmp/ccTkEHoK.s:433    .text:0000000000000158 .L0 
     /tmp/ccTkEHoK.s:436    .text:0000000000000160 .L0 
     /tmp/ccTkEHoK.s:437    .text:0000000000000160 .L0 
     /tmp/ccTkEHoK.s:439    .text:0000000000000164 .L0 
     /tmp/ccTkEHoK.s:440    .text:0000000000000164 .L0 
     /tmp/ccTkEHoK.s:442    .text:0000000000000168 .L0 
     /tmp/ccTkEHoK.s:446    .text:000000000000016c .L0 
       src/Riscv.cpp:70     .text:000000000000016c .L0 
     /tmp/ccTkEHoK.s:456    .text:0000000000000170 .L0 
     /tmp/ccTkEHoK.s:457    .text:0000000000000170 .L0 
  src/../h/Riscv.hpp:183    .text:0000000000000170 .L0 
     /tmp/ccTkEHoK.s:469    .text:0000000000000174 .L0 
     /tmp/ccTkEHoK.s:470    .text:0000000000000174 .L0 
  src/../h/Riscv.hpp:113    .text:0000000000000174 .L0 
     /tmp/ccTkEHoK.s:477    .text:0000000000000178 .L0 
     /tmp/ccTkEHoK.s:483    .text:000000000000017c .L0 
     /tmp/ccTkEHoK.s:495    .text:0000000000000184 .L0 
     /tmp/ccTkEHoK.s:496    .text:0000000000000184 .L0 
     /tmp/ccTkEHoK.s:497    .text:0000000000000184 .L0 
  src/../h/Riscv.hpp:107    .text:0000000000000184 .L0 
     /tmp/ccTkEHoK.s:505    .text:000000000000018c .L0 
     /tmp/ccTkEHoK.s:506    .text:000000000000018c .L0 
     /tmp/ccTkEHoK.s:511    .text:0000000000000190 .L0 
     /tmp/ccTkEHoK.s:516    .text:0000000000000194 .L0 
     /tmp/ccTkEHoK.s:517    .text:0000000000000194 .L0 
     /tmp/ccTkEHoK.s:518    .text:0000000000000194 .L0 
  src/../h/Riscv.hpp:177    .text:0000000000000194 .L0 
     /tmp/ccTkEHoK.s:526    .text:000000000000019c .L0 
     /tmp/ccTkEHoK.s:527    .text:000000000000019c .L0 
     /tmp/ccTkEHoK.s:532    .text:00000000000001a0 .L0 
GAS LISTING /tmp/ccTkEHoK.s 			page 27


       src/Riscv.cpp:79     .text:00000000000001a0 .L0 
     /tmp/ccTkEHoK.s:539    .text:00000000000001a4 .L0 
     /tmp/ccTkEHoK.s:541    .text:00000000000001a4 .L0 
     /tmp/ccTkEHoK.s:546    .text:00000000000001b0 .L0 
       src/Riscv.cpp:83     .text:00000000000001b0 .L0 
     /tmp/ccTkEHoK.s:556    .text:00000000000001b4 .L0 
     /tmp/ccTkEHoK.s:557    .text:00000000000001b4 .L0 
  src/../h/Riscv.hpp:183    .text:00000000000001b4 .L0 
     /tmp/ccTkEHoK.s:569    .text:00000000000001b8 .L0 
     /tmp/ccTkEHoK.s:570    .text:00000000000001b8 .L0 
  src/../h/Riscv.hpp:113    .text:00000000000001b8 .L0 
     /tmp/ccTkEHoK.s:577    .text:00000000000001bc .L0 
     /tmp/ccTkEHoK.s:588    .text:00000000000001c0 .L0 
     /tmp/ccTkEHoK.s:589    .text:00000000000001c0 .L0 
     /tmp/ccTkEHoK.s:590    .text:00000000000001c0 .L0 
  src/../h/Riscv.hpp:107    .text:00000000000001c0 .L0 
     /tmp/ccTkEHoK.s:598    .text:00000000000001c8 .L0 
     /tmp/ccTkEHoK.s:599    .text:00000000000001c8 .L0 
     /tmp/ccTkEHoK.s:604    .text:00000000000001cc .L0 
     /tmp/ccTkEHoK.s:609    .text:00000000000001d0 .L0 
     /tmp/ccTkEHoK.s:610    .text:00000000000001d0 .L0 
     /tmp/ccTkEHoK.s:611    .text:00000000000001d0 .L0 
  src/../h/Riscv.hpp:177    .text:00000000000001d0 .L0 
     /tmp/ccTkEHoK.s:619    .text:00000000000001d8 .L0 
     /tmp/ccTkEHoK.s:620    .text:00000000000001d8 .L0 
     /tmp/ccTkEHoK.s:625    .text:00000000000001dc .L0 
       src/Riscv.cpp:92     .text:00000000000001dc .L0 
     /tmp/ccTkEHoK.s:632    .text:00000000000001e0 .L0 
     /tmp/ccTkEHoK.s:634    .text:00000000000001e0 .L0 
     /tmp/ccTkEHoK.s:637    .text:00000000000001e8 .L0 
       src/Riscv.cpp:94     .text:00000000000001e8 .L0 
     /tmp/ccTkEHoK.s:647    .text:00000000000001ec .L0 
     /tmp/ccTkEHoK.s:648    .text:00000000000001ec .L0 
  src/../h/Riscv.hpp:183    .text:00000000000001ec .L0 
     /tmp/ccTkEHoK.s:660    .text:00000000000001f0 .L0 
     /tmp/ccTkEHoK.s:661    .text:00000000000001f0 .L0 
  src/../h/Riscv.hpp:113    .text:00000000000001f0 .L0 
     /tmp/ccTkEHoK.s:668    .text:00000000000001f4 .L0 
     /tmp/ccTkEHoK.s:679    .text:00000000000001f8 .L0 
     /tmp/ccTkEHoK.s:680    .text:00000000000001f8 .L0 
     /tmp/ccTkEHoK.s:681    .text:00000000000001f8 .L0 
  src/../h/Riscv.hpp:107    .text:00000000000001f8 .L0 
     /tmp/ccTkEHoK.s:689    .text:0000000000000200 .L0 
     /tmp/ccTkEHoK.s:690    .text:0000000000000200 .L0 
     /tmp/ccTkEHoK.s:695    .text:0000000000000204 .L0 
     /tmp/ccTkEHoK.s:700    .text:0000000000000208 .L0 
     /tmp/ccTkEHoK.s:701    .text:0000000000000208 .L0 
     /tmp/ccTkEHoK.s:702    .text:0000000000000208 .L0 
  src/../h/Riscv.hpp:177    .text:0000000000000208 .L0 
     /tmp/ccTkEHoK.s:710    .text:0000000000000210 .L0 
     /tmp/ccTkEHoK.s:711    .text:0000000000000210 .L0 
     /tmp/ccTkEHoK.s:716    .text:0000000000000214 .L0 
     /tmp/ccTkEHoK.s:717    .text:0000000000000214 .L0 
     /tmp/ccTkEHoK.s:720    .text:0000000000000220 .L0 
     /tmp/ccTkEHoK.s:723    .text:0000000000000228 .L0 
     /tmp/ccTkEHoK.s:724    .text:0000000000000228 .L0 
     /tmp/ccTkEHoK.s:729    .text:0000000000000230 .L0 
GAS LISTING /tmp/ccTkEHoK.s 			page 28


     /tmp/ccTkEHoK.s:730    .text:0000000000000230 .L0 
  src/../h/Riscv.hpp:183    .text:0000000000000230 .L0 
     /tmp/ccTkEHoK.s:742    .text:0000000000000234 .L0 
     /tmp/ccTkEHoK.s:743    .text:0000000000000234 .L0 
  src/../h/Riscv.hpp:113    .text:0000000000000234 .L0 
     /tmp/ccTkEHoK.s:750    .text:0000000000000238 .L0 
     /tmp/ccTkEHoK.s:758    .text:000000000000023c .L0 
     /tmp/ccTkEHoK.s:765    .text:000000000000023c .L0 
     /tmp/ccTkEHoK.s:305    .text:00000000000000fc .L0 
     /tmp/ccTkEHoK.s:717    .text:0000000000000214 .L0 
     /tmp/ccTkEHoK.s:126    .text:0000000000000080 .L13
     /tmp/ccTkEHoK.s:261    .text:00000000000000e0 .L14
     /tmp/ccTkEHoK.s:337    .text:000000000000011c .L15
     /tmp/ccTkEHoK.s:486    .text:0000000000000184 .L16
     /tmp/ccTkEHoK.s:579    .text:00000000000001c0 .L17
     /tmp/ccTkEHoK.s:670    .text:00000000000001f8 .L18
     /tmp/ccTkEHoK.s:105    .text:0000000000000060 .L3
     /tmp/ccTkEHoK.s:141    .text:0000000000000090 .L6
     /tmp/ccTkEHoK.s:479    .text:000000000000017c .L11
     /tmp/ccTkEHoK.s:443    .text:000000000000016c .L7
     /tmp/ccTkEHoK.s:2169   .debug_abbrev:0000000000000000 .Ldebug_abbrev0
     /tmp/ccTkEHoK.s:3483   .debug_str:0000000000000663 .LASF124
     /tmp/ccTkEHoK.s:3383   .debug_str:0000000000000385 .LASF125
     /tmp/ccTkEHoK.s:3281   .debug_str:000000000000007e .LASF126
     /tmp/ccTkEHoK.s:5      .text:0000000000000000 .Ltext0
     /tmp/ccTkEHoK.s:761    .text:000000000000023c .Letext0
     /tmp/ccTkEHoK.s:3263   .debug_line:0000000000000000 .Ldebug_line0
     /tmp/ccTkEHoK.s:3301   .debug_str:0000000000000146 .LASF3
     /tmp/ccTkEHoK.s:3399   .debug_str:00000000000003eb .LASF0
     /tmp/ccTkEHoK.s:3419   .debug_str:0000000000000459 .LASF1
     /tmp/ccTkEHoK.s:3385   .debug_str:0000000000000393 .LASF2
     /tmp/ccTkEHoK.s:3355   .debug_str:00000000000002d2 .LASF4
     /tmp/ccTkEHoK.s:3455   .debug_str:0000000000000583 .LASF5
     /tmp/ccTkEHoK.s:3287   .debug_str:00000000000000d9 .LASF6
     /tmp/ccTkEHoK.s:3423   .debug_str:0000000000000473 .LASF7
     /tmp/ccTkEHoK.s:3397   .debug_str:00000000000003d8 .LASF8
     /tmp/ccTkEHoK.s:3499   .debug_str:00000000000007a5 .LASF9
     /tmp/ccTkEHoK.s:3343   .debug_str:000000000000025f .LASF10
     /tmp/ccTkEHoK.s:3431   .debug_str:00000000000004a7 .LASF11
     /tmp/ccTkEHoK.s:3487   .debug_str:0000000000000733 .LASF12
     /tmp/ccTkEHoK.s:3289   .debug_str:00000000000000e0 .LASF13
     /tmp/ccTkEHoK.s:3271   .debug_str:0000000000000034 .LASF14
     /tmp/ccTkEHoK.s:3297   .debug_str:000000000000012a .LASF15
     /tmp/ccTkEHoK.s:3447   .debug_str:000000000000053f .LASF16
     /tmp/ccTkEHoK.s:3307   .debug_str:0000000000000174 .LASF17
     /tmp/ccTkEHoK.s:3415   .debug_str:0000000000000446 .LASF54
     /tmp/ccTkEHoK.s:3443   .debug_str:000000000000050e .LASF50
     /tmp/ccTkEHoK.s:3513   .debug_str:0000000000000815 .LASF52
     /tmp/ccTkEHoK.s:3273   .debug_str:0000000000000044 .LASF18
     /tmp/ccTkEHoK.s:3467   .debug_str:00000000000005d9 .LASF20
     /tmp/ccTkEHoK.s:3319   .debug_str:00000000000001ed .LASF22
     /tmp/ccTkEHoK.s:3317   .debug_str:00000000000001d8 .LASF24
     /tmp/ccTkEHoK.s:3459   .debug_str:00000000000005a6 .LASF19
     /tmp/ccTkEHoK.s:3437   .debug_str:00000000000004ee .LASF21
     /tmp/ccTkEHoK.s:3481   .debug_str:000000000000065c .LASF23
     /tmp/ccTkEHoK.s:3471   .debug_str:0000000000000606 .LASF25
     /tmp/ccTkEHoK.s:3333   .debug_str:0000000000000242 .LASF26
GAS LISTING /tmp/ccTkEHoK.s 			page 29


     /tmp/ccTkEHoK.s:3309   .debug_str:000000000000018a .LASF27
     /tmp/ccTkEHoK.s:3267   .debug_str:0000000000000009 .LASF28
     /tmp/ccTkEHoK.s:3349   .debug_str:00000000000002a0 .LASF29
     /tmp/ccTkEHoK.s:3323   .debug_str:00000000000001fe .LASF30
     /tmp/ccTkEHoK.s:3291   .debug_str:00000000000000f0 .LASF31
     /tmp/ccTkEHoK.s:3519   .debug_str:0000000000000849 .LASF32
     /tmp/ccTkEHoK.s:3325   .debug_str:0000000000000206 .LASF33
     /tmp/ccTkEHoK.s:3401   .debug_str:00000000000003f8 .LASF34
     /tmp/ccTkEHoK.s:3511   .debug_str:0000000000000802 .LASF35
     /tmp/ccTkEHoK.s:3283   .debug_str:00000000000000ae .LASF36
     /tmp/ccTkEHoK.s:3331   .debug_str:000000000000022f .LASF37
     /tmp/ccTkEHoK.s:3341   .debug_str:0000000000000259 .LASF38
     /tmp/ccTkEHoK.s:3479   .debug_str:000000000000064a .LASF39
     /tmp/ccTkEHoK.s:3371   .debug_str:0000000000000337 .LASF40
     /tmp/ccTkEHoK.s:3523   .debug_str:0000000000000861 .LASF41
     /tmp/ccTkEHoK.s:3517   .debug_str:000000000000083e .LASF42
     /tmp/ccTkEHoK.s:3453   .debug_str:000000000000056b .LASF43
     /tmp/ccTkEHoK.s:3365   .debug_str:0000000000000302 .LASF44
     /tmp/ccTkEHoK.s:3469   .debug_str:00000000000005ee .LASF45
     /tmp/ccTkEHoK.s:3295   .debug_str:0000000000000120 .LASF46
     /tmp/ccTkEHoK.s:3351   .debug_str:00000000000002b4 .LASF47
     /tmp/ccTkEHoK.s:3389   .debug_str:00000000000003ad .LASF48
     /tmp/ccTkEHoK.s:3345   .debug_str:000000000000026d .LASF49
     /tmp/ccTkEHoK.s:3461   .debug_str:00000000000005ad .LASF51
     /tmp/ccTkEHoK.s:3293   .debug_str:0000000000000104 .LASF53
     /tmp/ccTkEHoK.s:3503   .debug_str:00000000000007bf .LASF101
     /tmp/ccTkEHoK.s:3369   .debug_str:0000000000000315 .LASF103
     /tmp/ccTkEHoK.s:3381   .debug_str:0000000000000375 .LASF55
     /tmp/ccTkEHoK.s:3485   .debug_str:0000000000000727 .LASF56
     /tmp/ccTkEHoK.s:3285   .debug_str:00000000000000b5 .LASF57
     /tmp/ccTkEHoK.s:3495   .debug_str:000000000000077e .LASF58
     /tmp/ccTkEHoK.s:3269   .debug_str:0000000000000011 .LASF60
     /tmp/ccTkEHoK.s:3501   .debug_str:00000000000007b5 .LASF59
     /tmp/ccTkEHoK.s:3279   .debug_str:000000000000005c .LASF61
     /tmp/ccTkEHoK.s:3497   .debug_str:0000000000000789 .LASF63
     /tmp/ccTkEHoK.s:3393   .debug_str:00000000000003bd .LASF62
     /tmp/ccTkEHoK.s:3505   .debug_str:00000000000007d4 .LASF64
     /tmp/ccTkEHoK.s:3315   .debug_str:00000000000001bf .LASF106
     /tmp/ccTkEHoK.s:3353   .debug_str:00000000000002ca .LASF65
     /tmp/ccTkEHoK.s:3489   .debug_str:0000000000000742 .LASF127
     /tmp/ccTkEHoK.s:3429   .debug_str:00000000000004a1 .LASF66
     /tmp/ccTkEHoK.s:3463   .debug_str:00000000000005bc .LASF67
     /tmp/ccTkEHoK.s:3357   .debug_str:00000000000002d9 .LASF68
     /tmp/ccTkEHoK.s:3277   .debug_str:0000000000000054 .LASF128
     /tmp/ccTkEHoK.s:3493   .debug_str:0000000000000775 .LASF69
     /tmp/ccTkEHoK.s:3427   .debug_str:0000000000000491 .LASF70
     /tmp/ccTkEHoK.s:3425   .debug_str:0000000000000486 .LASF71
     /tmp/ccTkEHoK.s:3311   .debug_str:000000000000019e .LASF72
     /tmp/ccTkEHoK.s:3387   .debug_str:00000000000003a1 .LASF73
     /tmp/ccTkEHoK.s:3303   .debug_str:000000000000014b .LASF74
     /tmp/ccTkEHoK.s:3379   .debug_str:0000000000000368 .LASF75
     /tmp/ccTkEHoK.s:3433   .debug_str:00000000000004b6 .LASF76
     /tmp/ccTkEHoK.s:3417   .debug_str:000000000000044c .LASF77
     /tmp/ccTkEHoK.s:3445   .debug_str:0000000000000519 .LASF78
     /tmp/ccTkEHoK.s:3441   .debug_str:0000000000000509 .LASF113
     /tmp/ccTkEHoK.s:3449   .debug_str:0000000000000555 .LASF79
     /tmp/ccTkEHoK.s:3477   .debug_str:0000000000000636 .LASF80
GAS LISTING /tmp/ccTkEHoK.s 			page 30


     /tmp/ccTkEHoK.s:3313   .debug_str:00000000000001b9 .LASF81
     /tmp/ccTkEHoK.s:3465   .debug_str:00000000000005c5 .LASF82
     /tmp/ccTkEHoK.s:3321   .debug_str:00000000000001f6 .LASF129
     /tmp/ccTkEHoK.s:3473   .debug_str:0000000000000619 .LASF83
     /tmp/ccTkEHoK.s:3375   .debug_str:000000000000034b .LASF84
     /tmp/ccTkEHoK.s:3413   .debug_str:0000000000000439 .LASF85
     /tmp/ccTkEHoK.s:3407   .debug_str:000000000000040e .LASF86
     /tmp/ccTkEHoK.s:3509   .debug_str:00000000000007f5 .LASF87
     /tmp/ccTkEHoK.s:3451   .debug_str:000000000000055b .LASF88
     /tmp/ccTkEHoK.s:3521   .debug_str:0000000000000851 .LASF89
     /tmp/ccTkEHoK.s:3327   .debug_str:000000000000021a .LASF90
     /tmp/ccTkEHoK.s:3299   .debug_str:0000000000000136 .LASF91
     /tmp/ccTkEHoK.s:3515   .debug_str:000000000000082d .LASF92
     /tmp/ccTkEHoK.s:3359   .debug_str:00000000000002e1 .LASF93
     /tmp/ccTkEHoK.s:3395   .debug_str:00000000000003c7 .LASF94
     /tmp/ccTkEHoK.s:3435   .debug_str:00000000000004d3 .LASF95
     /tmp/ccTkEHoK.s:3363   .debug_str:00000000000002fd .LASF96
     /tmp/ccTkEHoK.s:3405   .debug_str:0000000000000408 .LASF97
     /tmp/ccTkEHoK.s:3367   .debug_str:000000000000030d .LASF98
     /tmp/ccTkEHoK.s:3411   .debug_str:000000000000042f .LASF99
     /tmp/ccTkEHoK.s:3361   .debug_str:00000000000002f4 .LASF100
     /tmp/ccTkEHoK.s:3373   .debug_str:000000000000033d .LASF102
     /tmp/ccTkEHoK.s:3347   .debug_str:0000000000000283 .LASF104
     /tmp/ccTkEHoK.s:3305   .debug_str:0000000000000166 .LASF105
     /tmp/ccTkEHoK.s:3491   .debug_str:0000000000000749 .LASF107
     /tmp/ccTkEHoK.s:3403   .debug_str:00000000000003ff .LASF108
     /tmp/ccTkEHoK.s:3475   .debug_str:000000000000061f .LASF109
     /tmp/ccTkEHoK.s:3457   .debug_str:0000000000000595 .LASF110
     /tmp/ccTkEHoK.s:3377   .debug_str:000000000000035f .LASF111
     /tmp/ccTkEHoK.s:3421   .debug_str:000000000000046c .LASF112
     /tmp/ccTkEHoK.s:3265   .debug_str:0000000000000000 .LASF114
     /tmp/ccTkEHoK.s:3329   .debug_str:000000000000022a .LASF115
     /tmp/ccTkEHoK.s:46     .text:0000000000000020 .LFB43
     /tmp/ccTkEHoK.s:759    .text:000000000000023c .LFE43
     /tmp/ccTkEHoK.s:3275   .debug_str:000000000000004d .LASF116
     /tmp/ccTkEHoK.s:3006   .debug_loc:0000000000000000 .LLST0
     /tmp/ccTkEHoK.s:3391   .debug_str:00000000000003b7 .LASF117
     /tmp/ccTkEHoK.s:3013   .debug_loc:0000000000000023 .LLST1
     /tmp/ccTkEHoK.s:3335   .debug_str:000000000000024a .LASF118
     /tmp/ccTkEHoK.s:3036   .debug_loc:0000000000000092 .LLST2
     /tmp/ccTkEHoK.s:264    .text:00000000000000e0 .LBB79
     /tmp/ccTkEHoK.s:340    .text:000000000000011c .LBE79
     /tmp/ccTkEHoK.s:3409   .debug_str:000000000000042a .LASF119
     /tmp/ccTkEHoK.s:3047   .debug_loc:00000000000000c8 .LLST13
     /tmp/ccTkEHoK.s:3439   .debug_str:0000000000000501 .LASF120
     /tmp/ccTkEHoK.s:3054   .debug_loc:00000000000000eb .LLST14
     /tmp/ccTkEHoK.s:266    .text:00000000000000e0 .LBB80
     /tmp/ccTkEHoK.s:281    .text:00000000000000ec .LBE80
     /tmp/ccTkEHoK.s:286    .text:00000000000000f0 .LBB82
     /tmp/ccTkEHoK.s:302    .text:00000000000000fc .LBE82
     /tmp/ccTkEHoK.s:312    .text:0000000000000110 .LBB84
     /tmp/ccTkEHoK.s:323    .text:0000000000000114 .LBE84
     /tmp/ccTkEHoK.s:3061   .debug_loc:000000000000010e .LLST15
     /tmp/ccTkEHoK.s:325    .text:0000000000000114 .LBB86
     /tmp/ccTkEHoK.s:339    .text:000000000000011c .LBE86
     /tmp/ccTkEHoK.s:3068   .debug_loc:0000000000000131 .LLST16
     /tmp/ccTkEHoK.s:310    .text:0000000000000110 .LVL14
GAS LISTING /tmp/ccTkEHoK.s 			page 31


     /tmp/ccTkEHoK.s:342    .text:000000000000011c .LBB70
     /tmp/ccTkEHoK.s:487    .text:0000000000000184 .LBE70
     /tmp/ccTkEHoK.s:3075   .debug_loc:0000000000000154 .LLST3
     /tmp/ccTkEHoK.s:3082   .debug_loc:0000000000000177 .LLST4
     /tmp/ccTkEHoK.s:3089   .debug_loc:000000000000019a .LLST5
     /tmp/ccTkEHoK.s:3337   .debug_str:000000000000024f .LASF121
     /tmp/ccTkEHoK.s:3096   .debug_loc:00000000000001bd .LLST6
     /tmp/ccTkEHoK.s:3339   .debug_str:0000000000000254 .LASF122
     /tmp/ccTkEHoK.s:3103   .debug_loc:00000000000001e0 .LLST7
     /tmp/ccTkEHoK.s:3507   .debug_str:00000000000007f0 .LASF123
     /tmp/ccTkEHoK.s:3110   .debug_loc:0000000000000203 .LLST8
     /tmp/ccTkEHoK.s:3117   .debug_loc:0000000000000226 .LLST9
     /tmp/ccTkEHoK.s:3124   .debug_loc:0000000000000249 .LLST10
     /tmp/ccTkEHoK.s:344    .text:000000000000011c .LBB71
     /tmp/ccTkEHoK.s:359    .text:0000000000000128 .LBE71
     /tmp/ccTkEHoK.s:364    .text:000000000000012c .LBB73
     /tmp/ccTkEHoK.s:380    .text:0000000000000138 .LBE73
     /tmp/ccTkEHoK.s:454    .text:0000000000000170 .LBB75
     /tmp/ccTkEHoK.s:465    .text:0000000000000174 .LBE75
     /tmp/ccTkEHoK.s:3131   .debug_loc:000000000000026c .LLST11
     /tmp/ccTkEHoK.s:467    .text:0000000000000174 .LBB77
     /tmp/ccTkEHoK.s:481    .text:000000000000017c .LBE77
     /tmp/ccTkEHoK.s:3138   .debug_loc:000000000000028f .LLST12
     /tmp/ccTkEHoK.s:434    .text:0000000000000160 .LVL23
     /tmp/ccTkEHoK.s:491    .text:0000000000000184 .LBB125
     /tmp/ccTkEHoK.s:582    .text:00000000000001c0 .LBE125
     /tmp/ccTkEHoK.s:3145   .debug_loc:00000000000002b2 .LLST27
     /tmp/ccTkEHoK.s:3152   .debug_loc:00000000000002d5 .LLST28
     /tmp/ccTkEHoK.s:3159   .debug_loc:00000000000002f8 .LLST29
     /tmp/ccTkEHoK.s:493    .text:0000000000000184 .LBB126
     /tmp/ccTkEHoK.s:509    .text:0000000000000190 .LBE126
     /tmp/ccTkEHoK.s:514    .text:0000000000000194 .LBB128
     /tmp/ccTkEHoK.s:530    .text:00000000000001a0 .LBE128
     /tmp/ccTkEHoK.s:554    .text:00000000000001b4 .LBB130
     /tmp/ccTkEHoK.s:565    .text:00000000000001b8 .LBE130
     /tmp/ccTkEHoK.s:3166   .debug_loc:000000000000031b .LLST30
     /tmp/ccTkEHoK.s:567    .text:00000000000001b8 .LBB132
     /tmp/ccTkEHoK.s:581    .text:00000000000001c0 .LBE132
     /tmp/ccTkEHoK.s:3173   .debug_loc:000000000000033e .LLST31
     /tmp/ccTkEHoK.s:544    .text:00000000000001b0 .LVL34
     /tmp/ccTkEHoK.s:584    .text:00000000000001c0 .LBB113
     /tmp/ccTkEHoK.s:673    .text:00000000000001f8 .LBE113
     /tmp/ccTkEHoK.s:3180   .debug_loc:0000000000000361 .LLST22
     /tmp/ccTkEHoK.s:3187   .debug_loc:0000000000000384 .LLST23
     /tmp/ccTkEHoK.s:3194   .debug_loc:00000000000003a7 .LLST24
     /tmp/ccTkEHoK.s:586    .text:00000000000001c0 .LBB114
     /tmp/ccTkEHoK.s:602    .text:00000000000001cc .LBE114
     /tmp/ccTkEHoK.s:607    .text:00000000000001d0 .LBB116
     /tmp/ccTkEHoK.s:623    .text:00000000000001dc .LBE116
     /tmp/ccTkEHoK.s:645    .text:00000000000001ec .LBB118
     /tmp/ccTkEHoK.s:656    .text:00000000000001f0 .LBE118
     /tmp/ccTkEHoK.s:3201   .debug_loc:00000000000003ca .LLST25
     /tmp/ccTkEHoK.s:658    .text:00000000000001f0 .LBB120
     /tmp/ccTkEHoK.s:672    .text:00000000000001f8 .LBE120
     /tmp/ccTkEHoK.s:3208   .debug_loc:00000000000003ed .LLST26
     /tmp/ccTkEHoK.s:635    .text:00000000000001e8 .LVL42
     /tmp/ccTkEHoK.s:675    .text:00000000000001f8 .LBB103
GAS LISTING /tmp/ccTkEHoK.s 			page 32


     /tmp/ccTkEHoK.s:753    .text:000000000000023c .LBE103
     /tmp/ccTkEHoK.s:677    .text:00000000000001f8 .LBB104
     /tmp/ccTkEHoK.s:693    .text:0000000000000204 .LBE104
     /tmp/ccTkEHoK.s:698    .text:0000000000000208 .LBB106
     /tmp/ccTkEHoK.s:714    .text:0000000000000214 .LBE106
     /tmp/ccTkEHoK.s:727    .text:0000000000000230 .LBB108
     /tmp/ccTkEHoK.s:738    .text:0000000000000234 .LBE108
     /tmp/ccTkEHoK.s:3215   .debug_loc:0000000000000410 .LLST21
     /tmp/ccTkEHoK.s:740    .text:0000000000000234 .LBB110
     /tmp/ccTkEHoK.s:752    .text:000000000000023c .LBE110
     /tmp/ccTkEHoK.s:725    .text:0000000000000230 .LVL49
     /tmp/ccTkEHoK.s:180    .text:00000000000000b0 .LBB94
     /tmp/ccTkEHoK.s:250    .text:00000000000000dc .LBE94
     /tmp/ccTkEHoK.s:3222   .debug_loc:0000000000000433 .LLST17
     /tmp/ccTkEHoK.s:3229   .debug_loc:0000000000000456 .LLST18
     /tmp/ccTkEHoK.s:182    .text:00000000000000b0 .LBB95
     /tmp/ccTkEHoK.s:198    .text:00000000000000bc .LBE95
     /tmp/ccTkEHoK.s:203    .text:00000000000000c0 .LBB97
     /tmp/ccTkEHoK.s:219    .text:00000000000000cc .LBE97
     /tmp/ccTkEHoK.s:225    .text:00000000000000d4 .LBB99
     /tmp/ccTkEHoK.s:236    .text:00000000000000d8 .LBE99
     /tmp/ccTkEHoK.s:3236   .debug_loc:0000000000000479 .LLST19
     /tmp/ccTkEHoK.s:238    .text:00000000000000d8 .LBB101
     /tmp/ccTkEHoK.s:249    .text:00000000000000dc .LBE101
     /tmp/ccTkEHoK.s:3243   .debug_loc:000000000000049c .LLST20
     /tmp/ccTkEHoK.s:223    .text:00000000000000d4 .LVL8
     /tmp/ccTkEHoK.s:66     .text:0000000000000040 .LBB65
     /tmp/ccTkEHoK.s:82     .text:000000000000004c .LBE65
     /tmp/ccTkEHoK.s:10     .text:0000000000000000 .LFB42
     /tmp/ccTkEHoK.s:40     .text:0000000000000020 .LFE42
     /tmp/ccTkEHoK.s:85     .text:0000000000000050 .LVL0
     /tmp/ccTkEHoK.s:100    .text:0000000000000058 .LVL2
     /tmp/ccTkEHoK.s:94     .text:0000000000000054 .LVL1
     /tmp/ccTkEHoK.s:104    .text:0000000000000060 .LVL3
     /tmp/ccTkEHoK.s:125    .text:0000000000000080 .LVL4
     /tmp/ccTkEHoK.s:196    .text:00000000000000bc .LVL5
     /tmp/ccTkEHoK.s:260    .text:00000000000000e0 .LVL11
     /tmp/ccTkEHoK.s:507    .text:0000000000000190 .LVL29
     /tmp/ccTkEHoK.s:578    .text:00000000000001c0 .LVL37
     /tmp/ccTkEHoK.s:600    .text:00000000000001cc .LVL38
     /tmp/ccTkEHoK.s:669    .text:00000000000001f8 .LVL45
     /tmp/ccTkEHoK.s:691    .text:0000000000000204 .LVL46
     /tmp/ccTkEHoK.s:537    .text:00000000000001a4 .LVL32
     /tmp/ccTkEHoK.s:542    .text:00000000000001a8 .LVL33
     /tmp/ccTkEHoK.s:630    .text:00000000000001e0 .LVL41
     /tmp/ccTkEHoK.s:284    .text:00000000000000f0 .LVL12
     /tmp/ccTkEHoK.s:336    .text:000000000000011c .LVL16
     /tmp/ccTkEHoK.s:300    .text:00000000000000fc .LVL13
     /tmp/ccTkEHoK.s:320    .text:0000000000000114 .LVL15
     /tmp/ccTkEHoK.s:362    .text:000000000000012c .LVL17
     /tmp/ccTkEHoK.s:485    .text:0000000000000184 .LVL28
     /tmp/ccTkEHoK.s:378    .text:0000000000000138 .LVL18
     /tmp/ccTkEHoK.s:411    .text:000000000000014c .LVL19
     /tmp/ccTkEHoK.s:417    .text:0000000000000150 .LVL20
     /tmp/ccTkEHoK.s:423    .text:0000000000000154 .LVL21
     /tmp/ccTkEHoK.s:429    .text:0000000000000158 .LVL22
     /tmp/ccTkEHoK.s:444    .text:000000000000016c .LVL24
GAS LISTING /tmp/ccTkEHoK.s 			page 33


     /tmp/ccTkEHoK.s:478    .text:000000000000017c .LVL27
     /tmp/ccTkEHoK.s:452    .text:0000000000000170 .LVL25
     /tmp/ccTkEHoK.s:462    .text:0000000000000174 .LVL26
     /tmp/ccTkEHoK.s:512    .text:0000000000000194 .LVL30
     /tmp/ccTkEHoK.s:528    .text:00000000000001a0 .LVL31
     /tmp/ccTkEHoK.s:552    .text:00000000000001b4 .LVL35
     /tmp/ccTkEHoK.s:562    .text:00000000000001b8 .LVL36
     /tmp/ccTkEHoK.s:605    .text:00000000000001d0 .LVL39
     /tmp/ccTkEHoK.s:621    .text:00000000000001dc .LVL40
     /tmp/ccTkEHoK.s:643    .text:00000000000001ec .LVL43
     /tmp/ccTkEHoK.s:653    .text:00000000000001f0 .LVL44
     /tmp/ccTkEHoK.s:735    .text:0000000000000234 .LVL50
     /tmp/ccTkEHoK.s:201    .text:00000000000000c0 .LVL6
     /tmp/ccTkEHoK.s:217    .text:00000000000000cc .LVL7
     /tmp/ccTkEHoK.s:233    .text:00000000000000d8 .LVL9
     /tmp/ccTkEHoK.s:246    .text:00000000000000dc .LVL10
     /tmp/ccTkEHoK.s:766    .debug_info:0000000000000000 .Ldebug_info0

UNDEFINED SYMBOLS
_ZN7_thread8dispatchEv
_ZN7_thread16timeSliceCounterE
_ZN7_thread12createThreadEPFvPvES0_Pm
_ZN15MemoryAllocator10kmem_allocEm
_ZN15MemoryAllocator9kmem_freeEPv
_ZN7_thread7runningE
