GAS LISTING /tmp/cc4qqfw8.s 			page 1


   1              		.file	"Riscv.cpp"
   2              		.option pic
   3              		.option norelax
   4              		.text
   5              	.Ltext0:
   6              		.align	2
   7              		.globl	_ZN5Riscv10popSppSpieEv
   9              	_ZN5Riscv10popSppSpieEv:
  10              	.LFB52:
  11              		.file 1 "src/Riscv.cpp"
   1:src/Riscv.cpp **** //
   2:src/Riscv.cpp **** // Created by os on 6/17/22.
   3:src/Riscv.cpp **** //
   4:src/Riscv.cpp **** 
   5:src/Riscv.cpp **** #include "../h/Riscv.hpp"
   6:src/Riscv.cpp **** #include "../h/MemoryAllocator.hpp"
   7:src/Riscv.cpp **** #include "../h/_thread.hpp"
   8:src/Riscv.cpp **** #include "../h/KSemaphore.hpp"
   9:src/Riscv.cpp **** #include "../h/KConsole.hpp"
  10:src/Riscv.cpp **** 
  11:src/Riscv.cpp **** 
  12:src/Riscv.cpp **** 
  13:src/Riscv.cpp **** 
  14:src/Riscv.cpp **** void Riscv::popSppSpie()    //pop supervisor previous privilege, supervisor previous interrupt enab
  15:src/Riscv.cpp **** {
  12              		.loc 1 15 1
  13              		.cfi_startproc
  14 0000 130101FF 		addi	sp,sp,-16
  15              		.cfi_def_cfa_offset 16
  16 0004 23348100 		sd	s0,8(sp)
  17              		.cfi_offset 8, -8
  18 0008 13040101 		addi	s0,sp,16
  19              		.cfi_def_cfa 8, 0
  16:src/Riscv.cpp ****     __asm__ volatile ("csrw sepc, ra");
  20              		.loc 1 16 5
  21              		.loc 1 16 39 is_stmt 0
  22              	#APP
  23              	# 16 "src/Riscv.cpp" 1
  17              	    mc_sstatus(SSTATUS_SPP);
  24              		csrw sepc, ra
  25              	# 0 "" 2
  26              		.loc 1 17 5 is_stmt 1
  27              	.LVL0:
  28              	#NO_APP
  29              	.LBB170:
  30              	.LBB171:
  31              		.file 2 "src/../h/Riscv.hpp"
   1:src/../h/Riscv.hpp **** //
   2:src/../h/Riscv.hpp **** // Created by os on 6/17/22.
   3:src/../h/Riscv.hpp **** //
   4:src/../h/Riscv.hpp **** 
   5:src/../h/Riscv.hpp **** #ifndef PROJECT_BASE_V1_1_RISCV_HPP
   6:src/../h/Riscv.hpp **** #define PROJECT_BASE_V1_1_RISCV_HPP
   7:src/../h/Riscv.hpp **** 
   8:src/../h/Riscv.hpp **** #include "../lib/hw.h"
   9:src/../h/Riscv.hpp **** 
  10:src/../h/Riscv.hpp **** 
GAS LISTING /tmp/cc4qqfw8.s 			page 2


  11:src/../h/Riscv.hpp **** class Riscv
  12:src/../h/Riscv.hpp **** {
  13:src/../h/Riscv.hpp **** public:
  14:src/../h/Riscv.hpp **** 
  15:src/../h/Riscv.hpp ****     static bool privilege;
  16:src/../h/Riscv.hpp **** 
  17:src/../h/Riscv.hpp ****     // pop sstatus.spp and sstatus.spie bits (has to be a non inline function)
  18:src/../h/Riscv.hpp ****     static void popSppSpie();
  19:src/../h/Riscv.hpp **** 
  20:src/../h/Riscv.hpp ****     // read register scause
  21:src/../h/Riscv.hpp ****     static uint64 r_scause();
  22:src/../h/Riscv.hpp **** 
  23:src/../h/Riscv.hpp ****     // write register scause
  24:src/../h/Riscv.hpp ****     static void w_scause(uint64 scause);
  25:src/../h/Riscv.hpp **** 
  26:src/../h/Riscv.hpp ****     // read register sepc
  27:src/../h/Riscv.hpp ****     static uint64 r_sepc();
  28:src/../h/Riscv.hpp **** 
  29:src/../h/Riscv.hpp ****     // write register sepc
  30:src/../h/Riscv.hpp ****     static void w_sepc(uint64 sepc);
  31:src/../h/Riscv.hpp **** 
  32:src/../h/Riscv.hpp ****     // read register stvec
  33:src/../h/Riscv.hpp ****     static uint64 r_stvec();
  34:src/../h/Riscv.hpp **** 
  35:src/../h/Riscv.hpp ****     // write register stvec
  36:src/../h/Riscv.hpp ****     static void w_stvec(uint64 stvec);
  37:src/../h/Riscv.hpp **** 
  38:src/../h/Riscv.hpp ****     // read register stval
  39:src/../h/Riscv.hpp ****     static uint64 r_stval();
  40:src/../h/Riscv.hpp **** 
  41:src/../h/Riscv.hpp ****     // write register stval
  42:src/../h/Riscv.hpp ****     static void w_stval(uint64 stval);
  43:src/../h/Riscv.hpp **** 
  44:src/../h/Riscv.hpp ****     enum BitMaskSip
  45:src/../h/Riscv.hpp ****     {
  46:src/../h/Riscv.hpp ****         SIP_SSIP = (1 << 1),
  47:src/../h/Riscv.hpp ****         SIP_STIP = (1 << 5),
  48:src/../h/Riscv.hpp ****         SIP_SEIP = (1 << 9),
  49:src/../h/Riscv.hpp ****     };
  50:src/../h/Riscv.hpp **** 
  51:src/../h/Riscv.hpp ****     // mask set register sip
  52:src/../h/Riscv.hpp ****     static void ms_sip(uint64 mask);
  53:src/../h/Riscv.hpp **** 
  54:src/../h/Riscv.hpp ****     // mask clear register sip
  55:src/../h/Riscv.hpp ****     static void mc_sip(uint64 mask);
  56:src/../h/Riscv.hpp **** 
  57:src/../h/Riscv.hpp ****     // read register sip
  58:src/../h/Riscv.hpp ****     static uint64 r_sip();
  59:src/../h/Riscv.hpp **** 
  60:src/../h/Riscv.hpp ****     // write register sip
  61:src/../h/Riscv.hpp ****     static void w_sip(uint64 sip);
  62:src/../h/Riscv.hpp **** 
  63:src/../h/Riscv.hpp ****     enum BitMaskSstatus
  64:src/../h/Riscv.hpp ****     {
  65:src/../h/Riscv.hpp ****         SSTATUS_SIE = (1 << 1),
  66:src/../h/Riscv.hpp ****         SSTATUS_SPIE = (1 << 5),
  67:src/../h/Riscv.hpp ****         SSTATUS_SPP = (1 << 8),
GAS LISTING /tmp/cc4qqfw8.s 			page 3


  68:src/../h/Riscv.hpp ****     };
  69:src/../h/Riscv.hpp **** 
  70:src/../h/Riscv.hpp ****     // mask set register sstatus
  71:src/../h/Riscv.hpp ****     static void ms_sstatus(uint64 mask);
  72:src/../h/Riscv.hpp **** 
  73:src/../h/Riscv.hpp ****     // mask clear register sstatus
  74:src/../h/Riscv.hpp ****     static void mc_sstatus(uint64 mask);
  75:src/../h/Riscv.hpp **** 
  76:src/../h/Riscv.hpp ****     // read register sstatus
  77:src/../h/Riscv.hpp ****     static uint64 r_sstatus();
  78:src/../h/Riscv.hpp **** 
  79:src/../h/Riscv.hpp ****     // write register sstatus
  80:src/../h/Riscv.hpp ****     static void w_sstatus(uint64 sstatus);
  81:src/../h/Riscv.hpp **** 
  82:src/../h/Riscv.hpp ****     // supervisor trap
  83:src/../h/Riscv.hpp ****     static void supervisorTrap();
  84:src/../h/Riscv.hpp **** 
  85:src/../h/Riscv.hpp ****     static void TrapConsole();
  86:src/../h/Riscv.hpp **** 
  87:src/../h/Riscv.hpp ****     static void initKernel();
  88:src/../h/Riscv.hpp **** 
  89:src/../h/Riscv.hpp **** private:
  90:src/../h/Riscv.hpp **** 
  91:src/../h/Riscv.hpp ****     // supervisor trap handler
  92:src/../h/Riscv.hpp ****     static void handleSupervisorTrap();
  93:src/../h/Riscv.hpp **** 
  94:src/../h/Riscv.hpp ****     static void handleTrapConsole();
  95:src/../h/Riscv.hpp **** 
  96:src/../h/Riscv.hpp **** //    static void syscallHandler();
  97:src/../h/Riscv.hpp **** 
  98:src/../h/Riscv.hpp **** };
  99:src/../h/Riscv.hpp **** 
 100:src/../h/Riscv.hpp **** inline uint64 Riscv::r_scause()
 101:src/../h/Riscv.hpp **** {
 102:src/../h/Riscv.hpp ****     uint64 volatile scause;
 103:src/../h/Riscv.hpp ****     __asm__ volatile ("csrr %[scause], scause" : [scause] "=r"(scause));
 104:src/../h/Riscv.hpp ****     return scause;
 105:src/../h/Riscv.hpp **** }
 106:src/../h/Riscv.hpp **** 
 107:src/../h/Riscv.hpp **** inline void Riscv::w_scause(uint64 scause)
 108:src/../h/Riscv.hpp **** {
 109:src/../h/Riscv.hpp ****     __asm__ volatile ("csrw scause, %[scause]" : : [scause] "r"(scause));
 110:src/../h/Riscv.hpp **** }
 111:src/../h/Riscv.hpp **** 
 112:src/../h/Riscv.hpp **** inline uint64 Riscv::r_sepc()
 113:src/../h/Riscv.hpp **** {
 114:src/../h/Riscv.hpp ****     uint64 volatile sepc;
 115:src/../h/Riscv.hpp ****     __asm__ volatile ("csrr %[sepc], sepc" : [sepc] "=r"(sepc));
 116:src/../h/Riscv.hpp ****     return sepc;
 117:src/../h/Riscv.hpp **** }
 118:src/../h/Riscv.hpp **** 
 119:src/../h/Riscv.hpp **** inline void Riscv::w_sepc(uint64 sepc)
 120:src/../h/Riscv.hpp **** {
 121:src/../h/Riscv.hpp ****     __asm__ volatile ("csrw sepc, %[sepc]" : : [sepc] "r"(sepc));
 122:src/../h/Riscv.hpp **** }
 123:src/../h/Riscv.hpp **** 
 124:src/../h/Riscv.hpp **** inline uint64 Riscv::r_stvec()
GAS LISTING /tmp/cc4qqfw8.s 			page 4


 125:src/../h/Riscv.hpp **** {
 126:src/../h/Riscv.hpp ****     uint64 volatile stvec;
 127:src/../h/Riscv.hpp ****     __asm__ volatile ("csrr %[stvec], stvec" : [stvec] "=r"(stvec));
 128:src/../h/Riscv.hpp ****     return stvec;
 129:src/../h/Riscv.hpp **** }
 130:src/../h/Riscv.hpp **** 
 131:src/../h/Riscv.hpp **** inline void Riscv::w_stvec(uint64 stvec)
 132:src/../h/Riscv.hpp **** {
 133:src/../h/Riscv.hpp ****     __asm__ volatile ("csrw stvec, %[stvec]" : : [stvec] "r"(stvec));
 134:src/../h/Riscv.hpp **** }
 135:src/../h/Riscv.hpp **** 
 136:src/../h/Riscv.hpp **** inline uint64 Riscv::r_stval()
 137:src/../h/Riscv.hpp **** {
 138:src/../h/Riscv.hpp ****     uint64 volatile stval;
 139:src/../h/Riscv.hpp ****     __asm__ volatile ("csrr %[stval], stval" : [stval] "=r"(stval));
 140:src/../h/Riscv.hpp ****     return stval;
 141:src/../h/Riscv.hpp **** }
 142:src/../h/Riscv.hpp **** 
 143:src/../h/Riscv.hpp **** inline void Riscv::w_stval(uint64 stval)
 144:src/../h/Riscv.hpp **** {
 145:src/../h/Riscv.hpp ****     __asm__ volatile ("csrw stval, %[stval]" : : [stval] "r"(stval));
 146:src/../h/Riscv.hpp **** }
 147:src/../h/Riscv.hpp **** 
 148:src/../h/Riscv.hpp **** inline void Riscv::ms_sip(uint64 mask)
 149:src/../h/Riscv.hpp **** {
 150:src/../h/Riscv.hpp ****     __asm__ volatile ("csrs sip, %[mask]" : : [mask] "r"(mask));
 151:src/../h/Riscv.hpp **** }
 152:src/../h/Riscv.hpp **** 
 153:src/../h/Riscv.hpp **** inline void Riscv::mc_sip(uint64 mask)
 154:src/../h/Riscv.hpp **** {
 155:src/../h/Riscv.hpp ****     __asm__ volatile ("csrc sip, %[mask]" : : [mask] "r"(mask));
 156:src/../h/Riscv.hpp **** }
 157:src/../h/Riscv.hpp **** 
 158:src/../h/Riscv.hpp **** inline uint64 Riscv::r_sip()
 159:src/../h/Riscv.hpp **** {
 160:src/../h/Riscv.hpp ****     uint64 volatile sip;
 161:src/../h/Riscv.hpp ****     __asm__ volatile ("csrr %[sip], sip" : [sip] "=r"(sip));
 162:src/../h/Riscv.hpp ****     return sip;
 163:src/../h/Riscv.hpp **** }
 164:src/../h/Riscv.hpp **** 
 165:src/../h/Riscv.hpp **** inline void Riscv::w_sip(uint64 sip)
 166:src/../h/Riscv.hpp **** {
 167:src/../h/Riscv.hpp ****     __asm__ volatile ("csrw sip, %[sip]" : : [sip] "r"(sip));
 168:src/../h/Riscv.hpp **** }
 169:src/../h/Riscv.hpp **** 
 170:src/../h/Riscv.hpp **** //mask set
 171:src/../h/Riscv.hpp **** inline void Riscv::ms_sstatus(uint64 mask)
 172:src/../h/Riscv.hpp **** {
 173:src/../h/Riscv.hpp ****     __asm__ volatile ("csrs sstatus, %[mask]" : : [mask] "r"(mask));
 174:src/../h/Riscv.hpp **** }
 175:src/../h/Riscv.hpp **** 
 176:src/../h/Riscv.hpp **** //mask clear
 177:src/../h/Riscv.hpp **** inline void Riscv::mc_sstatus(uint64 mask)
 178:src/../h/Riscv.hpp **** {
 179:src/../h/Riscv.hpp ****     __asm__ volatile ("csrc sstatus, %[mask]" : : [mask] "r"(mask));
  32              		.loc 2 179 5
  33              		.loc 2 179 68 is_stmt 0
GAS LISTING /tmp/cc4qqfw8.s 			page 5


  34 0010 93070010 		li	a5,256
  35              	#APP
  36              	# 179 "src/../h/Riscv.hpp" 1
 180              	}
  37              		csrc sstatus, a5
  38              	# 0 "" 2
  39              	.LVL1:
  40              	#NO_APP
  41              	.LBE171:
  42              	.LBE170:
  18:src/Riscv.cpp ****     __asm__ volatile ("sret");  //exit privileged regime
  43              		.loc 1 18 5 is_stmt 1
  44              		.loc 1 18 30 is_stmt 0
  45              	#APP
  46              	# 18 "src/Riscv.cpp" 1
  19              	}
  47              		sret
  48              	# 0 "" 2
  49              		.loc 1 19 1
  50              	#NO_APP
  51 001c 03348100 		ld	s0,8(sp)
  52              		.cfi_restore 8
  53              		.cfi_def_cfa 2, 16
  54 0020 13010101 		addi	sp,sp,16
  55              		.cfi_def_cfa_offset 0
  56 0024 67800000 		jr	ra
  57              		.cfi_endproc
  58              	.LFE52:
  60              		.align	2
  61              		.globl	_ZN5Riscv20handleSupervisorTrapEv
  63              	_ZN5Riscv20handleSupervisorTrapEv:
  64              	.LFB53:
  20:src/Riscv.cpp **** 
  21:src/Riscv.cpp **** bool Riscv::privilege=false;
  22:src/Riscv.cpp **** 
  23:src/Riscv.cpp **** void Riscv::handleSupervisorTrap(){
  65              		.loc 1 23 35 is_stmt 1
  66              		.cfi_startproc
  67 0028 130101EF 		addi	sp,sp,-272
  68              		.cfi_def_cfa_offset 272
  69 002c 23341110 		sd	ra,264(sp)
  70 0030 23308110 		sd	s0,256(sp)
  71 0034 233C910E 		sd	s1,248(sp)
  72 0038 2338210F 		sd	s2,240(sp)
  73 003c 2334310F 		sd	s3,232(sp)
  74 0040 2330410F 		sd	s4,224(sp)
  75 0044 233C510D 		sd	s5,216(sp)
  76 0048 2338610D 		sd	s6,208(sp)
  77              		.cfi_offset 1, -8
  78              		.cfi_offset 8, -16
  79              		.cfi_offset 9, -24
  80              		.cfi_offset 18, -32
  81              		.cfi_offset 19, -40
  82              		.cfi_offset 20, -48
  83              		.cfi_offset 21, -56
  84              		.cfi_offset 22, -64
  85 004c 13040111 		addi	s0,sp,272
GAS LISTING /tmp/cc4qqfw8.s 			page 6


  86              		.cfi_def_cfa 8, 0
  24:src/Riscv.cpp ****     uint64 scause = r_scause();
  87              		.loc 1 24 5
  88              	.LBB172:
  89              	.LBB173:
 102:src/../h/Riscv.hpp ****     __asm__ volatile ("csrr %[scause], scause" : [scause] "=r"(scause));
  90              		.loc 2 102 5
 103:src/../h/Riscv.hpp ****     return scause;
  91              		.loc 2 103 5
 103:src/../h/Riscv.hpp ****     return scause;
  92              		.loc 2 103 72 is_stmt 0
  93              	#APP
  94              	# 103 "src/../h/Riscv.hpp" 1
  95              		csrr a5, scause
  96              	# 0 "" 2
  97              	#NO_APP
  98 0054 2338F4EE 		sd	a5,-272(s0)
 104:src/../h/Riscv.hpp **** }
  99              		.loc 2 104 5 is_stmt 1
 104:src/../h/Riscv.hpp **** }
 100              		.loc 2 104 12 is_stmt 0
 101 0058 033704EF 		ld	a4,-272(s0)
 102              	.LVL2:
 103              	.LBE173:
 104              	.LBE172:
  25:src/Riscv.cpp ****     uint64 a0reg;
 105              		.loc 1 25 5 is_stmt 1
  26:src/Riscv.cpp ****     uint64 arg1;
 106              		.loc 1 26 5
  27:src/Riscv.cpp ****     __asm__ volatile("mv %0, a0" : "=r" (a0reg));
 107              		.loc 1 27 5
 108              		.loc 1 27 49 is_stmt 0
 109              	#APP
 110              	# 27 "src/Riscv.cpp" 1
  28              	
 111              		mv s1, a0
 112              	# 0 "" 2
 113              	.LVL3:
  29:src/Riscv.cpp ****     if(scause == 0x8000000000000001){
 114              		.loc 1 29 5 is_stmt 1
 115              	#NO_APP
 116              	.LBB174:
 117 0060 9307F0FF 		li	a5,-1
 118 0064 9397F703 		slli	a5,a5,63
 119 0068 93871700 		addi	a5,a5,1
 120 006c 630EF702 		beq	a4,a5,.L28
 121              	.LBE174:
  30:src/Riscv.cpp ****         mc_sip(SIP_SSIP);
  31:src/Riscv.cpp ****     }
  32:src/Riscv.cpp ****     else if(!privilege){
 122              		.loc 1 32 10
 123              	.LBB437:
 124              	.LBB175:
 125              		.loc 1 32 13 is_stmt 0
 126 0070 97070000 		lbu	a5,.LANCHOR0
 126      83C70700 
 127              		.loc 1 32 10
GAS LISTING /tmp/cc4qqfw8.s 			page 7


 128 0078 63900706 		bnez	a5,.L6
 129              	.LBB176:
  33:src/Riscv.cpp ****         uint64 sepc = r_sepc();
 130              		.loc 1 33 9 is_stmt 1
 131              	.LBB177:
 132              	.LBB178:
 114:src/../h/Riscv.hpp ****     __asm__ volatile ("csrr %[sepc], sepc" : [sepc] "=r"(sepc));
 133              		.loc 2 114 5
 115:src/../h/Riscv.hpp ****     return sepc;
 134              		.loc 2 115 5
 115:src/../h/Riscv.hpp ****     return sepc;
 135              		.loc 2 115 64 is_stmt 0
 136              	#APP
 137              	# 115 "src/../h/Riscv.hpp" 1
 138              		csrr a5, sepc
 139              	# 0 "" 2
 140              	#NO_APP
 141 0080 233CF4EE 		sd	a5,-264(s0)
 116:src/../h/Riscv.hpp **** }
 142              		.loc 2 116 5 is_stmt 1
 116:src/../h/Riscv.hpp **** }
 143              		.loc 2 116 12 is_stmt 0
 144 0084 833784EF 		ld	a5,-264(s0)
 145              	.LVL4:
 146              	.LBE178:
 147              	.LBE177:
  34:src/Riscv.cpp ****         mc_sstatus(SSTATUS_SPP);
 148              		.loc 1 34 9 is_stmt 1
 149              	.LBB179:
 150              	.LBB180:
 179:src/../h/Riscv.hpp **** }
 151              		.loc 2 179 5
 179:src/../h/Riscv.hpp **** }
 152              		.loc 2 179 68 is_stmt 0
 153 0088 13070010 		li	a4,256
 154              	.LVL5:
 155              	#APP
 156              	# 179 "src/../h/Riscv.hpp" 1
 157              		csrc sstatus, a4
 158              	# 0 "" 2
 159              	.LVL6:
 160              	#NO_APP
 161              	.LBE180:
 162              	.LBE179:
  35:src/Riscv.cpp ****         privilege=true;
 163              		.loc 1 35 9 is_stmt 1
 164              		.loc 1 35 18 is_stmt 0
 165 0090 13071000 		li	a4,1
 166 0094 97060000 		sb	a4,.LANCHOR0,a3
 166      2380E600 
  36:src/Riscv.cpp ****         w_sepc(sepc + 4);
 167              		.loc 1 36 9 is_stmt 1
 168              		.loc 1 36 15 is_stmt 0
 169 009c 93874700 		addi	a5,a5,4
 170              	.LVL7:
 171              	.LBB181:
 172              	.LBB182:
GAS LISTING /tmp/cc4qqfw8.s 			page 8


 121:src/../h/Riscv.hpp **** }
 173              		.loc 2 121 5 is_stmt 1
 121:src/../h/Riscv.hpp **** }
 174              		.loc 2 121 65 is_stmt 0
 175              	#APP
 176              	# 121 "src/../h/Riscv.hpp" 1
 122:src/../h/Riscv.hpp **** 
 177              		csrw sepc, a5
 178              	# 0 "" 2
 179              		.loc 2 122 1
 180              	#NO_APP
 181 00a4 6F00C000 		j	.L3
 182              	.LVL8:
 183              	.L28:
 184              	.LBE182:
 185              	.LBE181:
 186              	.LBE176:
 187              	.LBE175:
  30:src/Riscv.cpp ****     }
 188              		.loc 1 30 9 is_stmt 1
 189              	.LBB420:
 190              	.LBB421:
 155:src/../h/Riscv.hpp **** }
 191              		.loc 2 155 5
 155:src/../h/Riscv.hpp **** }
 192              		.loc 2 155 64 is_stmt 0
 193 00a8 93072000 		li	a5,2
 194              	#APP
 195              	# 155 "src/../h/Riscv.hpp" 1
 196              		csrc sip, a5
 197              	# 0 "" 2
 198              	.LVL9:
 199              	#NO_APP
 200              	.L3:
 201              	.LBE421:
 202              	.LBE420:
 203              	.LBE437:
  37:src/Riscv.cpp ****     }
  38:src/Riscv.cpp ****     else if (scause == 0x8000000000000009UL){
  39:src/Riscv.cpp ****         console_handler();
  40:src/Riscv.cpp ****     }
  41:src/Riscv.cpp ****     else if (scause == 0x0000000000000008UL || scause==0x0000000000000009UL){
  42:src/Riscv.cpp ****         // interrupt: no; cause code: environment call from U-mode(8) or S-mode(9)
  43:src/Riscv.cpp **** 
  44:src/Riscv.cpp **** 
  45:src/Riscv.cpp ****         if(a0reg==0x11){
  46:src/Riscv.cpp ****             uint64 sepc = r_sepc() + 4;
  47:src/Riscv.cpp ****             uint64 sstatus = r_sstatus();
  48:src/Riscv.cpp **** 
  49:src/Riscv.cpp **** 
  50:src/Riscv.cpp ****             _thread::thread_t *arg1;
  51:src/Riscv.cpp ****             _thread::Body arg2;
  52:src/Riscv.cpp ****             uint64 arg3;
  53:src/Riscv.cpp **** 
  54:src/Riscv.cpp **** 
  55:src/Riscv.cpp ****             __asm__ volatile("ld a1, 11*8(fp)"); //a1
  56:src/Riscv.cpp ****             __asm__ volatile("ld a2, 12*8(fp)"); //a2
GAS LISTING /tmp/cc4qqfw8.s 			page 9


  57:src/Riscv.cpp ****             __asm__ volatile("ld a3, 13*8(fp)"); //a3
  58:src/Riscv.cpp **** 
  59:src/Riscv.cpp **** 
  60:src/Riscv.cpp ****             __asm__ volatile("mv %0, a1" : "=r" (arg1));    //handle (thread_t*)
  61:src/Riscv.cpp ****             __asm__ volatile("mv %0, a2" : "=r" (arg2));    //start routine
  62:src/Riscv.cpp ****             __asm__ volatile("mv %0, a3" : "=r" (arg3));    //argument of start routine
  63:src/Riscv.cpp **** 
  64:src/Riscv.cpp ****             uint64* stack =(uint64*) MemoryAllocator::kmem_alloc(DEFAULT_STACK_SIZE* sizeof(uint64)
  65:src/Riscv.cpp **** 
  66:src/Riscv.cpp ****             //make new thread object using overloaded new operator for that function
  67:src/Riscv.cpp ****             _thread* t = _thread::createThread(arg2,  (void*)arg3, stack);    //t je thread_t
  68:src/Riscv.cpp ****             *arg1=t;
  69:src/Riscv.cpp **** 
  70:src/Riscv.cpp ****             uint64 ret;
  71:src/Riscv.cpp ****             if(t!= nullptr)ret=0;
  72:src/Riscv.cpp ****             else ret =-1;
  73:src/Riscv.cpp **** 
  74:src/Riscv.cpp ****             //return _thread* adress through a0
  75:src/Riscv.cpp ****             __asm__ volatile("mv a0, %0" : : "r" (ret));
  76:src/Riscv.cpp **** 
  77:src/Riscv.cpp ****             w_sstatus(sstatus);
  78:src/Riscv.cpp ****             w_sepc(sepc);
  79:src/Riscv.cpp ****         }
  80:src/Riscv.cpp ****         if(a0reg== 0x01 ){
  81:src/Riscv.cpp ****             uint64 sepc = r_sepc() + 4;
  82:src/Riscv.cpp ****             uint64 sstatus = r_sstatus();
  83:src/Riscv.cpp ****             //kmem_alloc
  84:src/Riscv.cpp ****             __asm__ volatile("ld a0, 11*8(fp)"); //a1
  85:src/Riscv.cpp **** 
  86:src/Riscv.cpp ****             __asm__ volatile("mv %0, a0" : "=r" (arg1));
  87:src/Riscv.cpp ****             uint64 ptr= (uint64) MemoryAllocator::kmem_alloc(arg1*MEM_BLOCK_SIZE);
  88:src/Riscv.cpp **** 
  89:src/Riscv.cpp ****             //write return value to a0 register
  90:src/Riscv.cpp ****             __asm__ volatile("mv a0, %0" : : "r" (ptr));
  91:src/Riscv.cpp **** 
  92:src/Riscv.cpp ****             w_sstatus(sstatus);
  93:src/Riscv.cpp ****             w_sepc(sepc);
  94:src/Riscv.cpp ****         }
  95:src/Riscv.cpp ****         else if(a0reg==0x02){
  96:src/Riscv.cpp ****             uint64 sepc = r_sepc() + 4;
  97:src/Riscv.cpp ****             uint64 sstatus = r_sstatus();
  98:src/Riscv.cpp **** 
  99:src/Riscv.cpp ****             __asm__ volatile("ld a0, 11*8(fp)"); //a1
 100:src/Riscv.cpp **** 
 101:src/Riscv.cpp ****             __asm__ volatile("mv %0, a0" : "=r" (arg1));
 102:src/Riscv.cpp ****             int ret = MemoryAllocator::kmem_free((void *) arg1);
 103:src/Riscv.cpp ****             __asm__ volatile("mv a0, %0" : : "r" (ret));
 104:src/Riscv.cpp **** 
 105:src/Riscv.cpp ****             w_sstatus(sstatus);
 106:src/Riscv.cpp ****             w_sepc(sepc);
 107:src/Riscv.cpp ****         }
 108:src/Riscv.cpp **** 
 109:src/Riscv.cpp ****         else if(a0reg==0x12){
 110:src/Riscv.cpp ****             uint64 sepc = r_sepc() + 4;
 111:src/Riscv.cpp ****             uint64 sstatus = r_sstatus();
 112:src/Riscv.cpp **** 
 113:src/Riscv.cpp ****             _thread::running->finished=true;
GAS LISTING /tmp/cc4qqfw8.s 			page 10


 114:src/Riscv.cpp ****             _thread::dispatch();
 115:src/Riscv.cpp **** 
 116:src/Riscv.cpp ****             w_sstatus(sstatus);
 117:src/Riscv.cpp ****             w_sepc(sepc);
 118:src/Riscv.cpp **** 
 119:src/Riscv.cpp **** 
 120:src/Riscv.cpp ****         }
 121:src/Riscv.cpp ****         else if(a0reg == 0x13){
 122:src/Riscv.cpp ****             //thread dispatch
 123:src/Riscv.cpp ****             uint64 sepc = r_sepc() + 4;
 124:src/Riscv.cpp ****             uint64 sstatus = r_sstatus();
 125:src/Riscv.cpp **** 
 126:src/Riscv.cpp **** 
 127:src/Riscv.cpp ****             _thread::dispatch();
 128:src/Riscv.cpp **** 
 129:src/Riscv.cpp ****             w_sstatus(sstatus);
 130:src/Riscv.cpp ****             w_sepc(sepc);
 131:src/Riscv.cpp ****         }
 132:src/Riscv.cpp **** 
 133:src/Riscv.cpp ****         else if(a0reg==0x04){
 134:src/Riscv.cpp ****             //call from yield
 135:src/Riscv.cpp ****             uint64 sepc = r_sepc() + 4;
 136:src/Riscv.cpp ****             uint64 sstatus = r_sstatus();
 137:src/Riscv.cpp **** 
 138:src/Riscv.cpp ****             _thread::timeSliceCounter = 0;
 139:src/Riscv.cpp ****             _thread::dispatch();
 140:src/Riscv.cpp **** 
 141:src/Riscv.cpp ****             w_sstatus(sstatus);
 142:src/Riscv.cpp ****             w_sepc(sepc);
 143:src/Riscv.cpp ****         }
 144:src/Riscv.cpp ****         else if(a0reg==0x21){
 145:src/Riscv.cpp ****             uint64 sepc = r_sepc() + 4;
 146:src/Riscv.cpp ****             uint64 sstatus = r_sstatus();
 147:src/Riscv.cpp **** 
 148:src/Riscv.cpp ****            KSemaphore::sem_t *arg1;
 149:src/Riscv.cpp ****            uint64 arg2;
 150:src/Riscv.cpp **** 
 151:src/Riscv.cpp ****             __asm__ volatile("ld a1, 11*8(fp)"); //a1
 152:src/Riscv.cpp ****             __asm__ volatile("ld a2, 12*8(fp)"); //a2
 153:src/Riscv.cpp **** 
 154:src/Riscv.cpp ****             __asm__ volatile("mv %0, a1" : "=r" (arg1));    //handle (sem_t*)
 155:src/Riscv.cpp ****             __asm__ volatile("mv %0, a2" : "=r" (arg2));    //init val
 156:src/Riscv.cpp **** 
 157:src/Riscv.cpp ****             KSemaphore* sem = new KSemaphore(arg2);
 158:src/Riscv.cpp ****             sem->opened=true;
 159:src/Riscv.cpp ****             *arg1=sem;
 160:src/Riscv.cpp **** 
 161:src/Riscv.cpp ****             uint64 ret=0;
 162:src/Riscv.cpp ****             if(sem!= nullptr)ret=0;
 163:src/Riscv.cpp ****             else ret=-1;
 164:src/Riscv.cpp **** 
 165:src/Riscv.cpp ****             __asm__ volatile("mv a0, %0" : : "r" (ret));
 166:src/Riscv.cpp **** 
 167:src/Riscv.cpp ****             w_sstatus(sstatus);
 168:src/Riscv.cpp ****             w_sepc(sepc);
 169:src/Riscv.cpp ****         }
 170:src/Riscv.cpp ****         else if(a0reg==0x22){
GAS LISTING /tmp/cc4qqfw8.s 			page 11


 171:src/Riscv.cpp ****             uint64 sepc = r_sepc() + 4;
 172:src/Riscv.cpp ****             uint64 sstatus = r_sstatus();
 173:src/Riscv.cpp **** 
 174:src/Riscv.cpp ****             KSemaphore::sem_t arg1; //handle
 175:src/Riscv.cpp **** 
 176:src/Riscv.cpp **** 
 177:src/Riscv.cpp ****             __asm__ volatile("ld a1, 11*8(fp)"); //a1
 178:src/Riscv.cpp **** 
 179:src/Riscv.cpp ****             __asm__ volatile("mv %0, a1" : "=r" (arg1));    //handle (sem_t*)
 180:src/Riscv.cpp **** 
 181:src/Riscv.cpp ****             KSemaphore* sem = arg1;
 182:src/Riscv.cpp ****             //deblock all blocked threads on this semaphore
 183:src/Riscv.cpp ****             while(sem->blocked.peekFirst()!=0){
 184:src/Riscv.cpp ****                 _thread* t = sem->blocked.removeFirst();
 185:src/Riscv.cpp ****                 t->setDeblocked();
 186:src/Riscv.cpp ****                 sem->val++;
 187:src/Riscv.cpp ****                 Scheduler::put(t);
 188:src/Riscv.cpp ****             }
 189:src/Riscv.cpp ****              sem->opened=false;
 190:src/Riscv.cpp **** 
 191:src/Riscv.cpp ****             delete sem;
 192:src/Riscv.cpp **** 
 193:src/Riscv.cpp ****             w_sstatus(sstatus);
 194:src/Riscv.cpp ****             w_sepc(sepc);
 195:src/Riscv.cpp ****         }
 196:src/Riscv.cpp ****         else if(a0reg==0x23){
 197:src/Riscv.cpp ****             uint64 sepc = r_sepc() + 4;
 198:src/Riscv.cpp ****             uint64 sstatus = r_sstatus();
 199:src/Riscv.cpp **** 
 200:src/Riscv.cpp ****             KSemaphore::sem_t arg1; //handle
 201:src/Riscv.cpp **** 
 202:src/Riscv.cpp ****             __asm__ volatile("ld a1, 11*8(fp)"); //a1
 203:src/Riscv.cpp **** 
 204:src/Riscv.cpp ****             __asm__ volatile("mv %0, a1" : "=r" (arg1));    //handle (sem_t*)
 205:src/Riscv.cpp **** 
 206:src/Riscv.cpp ****             uint64 ret;
 207:src/Riscv.cpp **** //            KSemaphore* sem = *arg1;
 208:src/Riscv.cpp **** 
 209:src/Riscv.cpp ****                  ret = arg1->wait();
 210:src/Riscv.cpp **** 
 211:src/Riscv.cpp ****             __asm__ volatile("mv a0, %0" : : "r" (ret));
 212:src/Riscv.cpp **** 
 213:src/Riscv.cpp ****             w_sstatus(sstatus);
 214:src/Riscv.cpp ****             w_sepc(sepc);
 215:src/Riscv.cpp ****         }
 216:src/Riscv.cpp ****         else if(a0reg==0x24){
 217:src/Riscv.cpp ****             uint64 sepc = r_sepc() + 4;
 218:src/Riscv.cpp ****             uint64 sstatus = r_sstatus();
 219:src/Riscv.cpp **** 
 220:src/Riscv.cpp ****             KSemaphore::sem_t arg1; //handle
 221:src/Riscv.cpp **** 
 222:src/Riscv.cpp ****             __asm__ volatile("ld a1, 11*8(fp)"); //a1
 223:src/Riscv.cpp **** 
 224:src/Riscv.cpp ****             __asm__ volatile("mv %0, a1" : "=r" (arg1));    //handle (sem_t*)
 225:src/Riscv.cpp **** 
 226:src/Riscv.cpp ****             uint64 ret;
 227:src/Riscv.cpp **** 
GAS LISTING /tmp/cc4qqfw8.s 			page 12


 228:src/Riscv.cpp ****                 arg1->signal();
 229:src/Riscv.cpp ****                 ret=0;
 230:src/Riscv.cpp **** 
 231:src/Riscv.cpp **** 
 232:src/Riscv.cpp ****             __asm__ volatile("mv a0, %0" : : "r" (ret));
 233:src/Riscv.cpp **** 
 234:src/Riscv.cpp ****             w_sstatus(sstatus);
 235:src/Riscv.cpp ****             w_sepc(sepc);
 236:src/Riscv.cpp ****         }
 237:src/Riscv.cpp ****         else if(a0reg==0x41){
 238:src/Riscv.cpp ****             uint64 sepc = r_sepc() + 4;
 239:src/Riscv.cpp ****             uint64 sstatus = r_sstatus();
 240:src/Riscv.cpp **** 
 241:src/Riscv.cpp ****             //call method from kernel Console class
 242:src/Riscv.cpp ****             Riscv::w_stvec((uint64)&Riscv::TrapConsole);
 243:src/Riscv.cpp ****             char c = __getc();
 244:src/Riscv.cpp ****             Riscv::w_stvec((uint64)&Riscv::supervisorTrap);
 245:src/Riscv.cpp **** 
 246:src/Riscv.cpp ****             __asm__ volatile("mv a0, %0" : : "r" (c));
 247:src/Riscv.cpp **** 
 248:src/Riscv.cpp **** 
 249:src/Riscv.cpp ****             w_sstatus(sstatus);
 250:src/Riscv.cpp ****             w_sepc(sepc);
 251:src/Riscv.cpp ****         }
 252:src/Riscv.cpp ****         else if(a0reg==0x42){
 253:src/Riscv.cpp ****             uint64 sepc = r_sepc() + 4;
 254:src/Riscv.cpp ****             uint64 sstatus = r_sstatus();
 255:src/Riscv.cpp **** 
 256:src/Riscv.cpp ****             char c;
 257:src/Riscv.cpp ****             __asm__ volatile("ld a1, 11*8(fp)"); //a1
 258:src/Riscv.cpp **** 
 259:src/Riscv.cpp ****             __asm__ volatile("mv %0, a1" : "=r" (c));
 260:src/Riscv.cpp **** 
 261:src/Riscv.cpp ****             Riscv::w_stvec((uint64)&Riscv::TrapConsole);
 262:src/Riscv.cpp ****             __putc(c);
 263:src/Riscv.cpp ****             Riscv::w_stvec((uint64)&Riscv::supervisorTrap);
 264:src/Riscv.cpp **** 
 265:src/Riscv.cpp ****             w_sstatus(sstatus);
 266:src/Riscv.cpp ****             w_sepc(sepc);
 267:src/Riscv.cpp ****         }
 268:src/Riscv.cpp ****         else{
 269:src/Riscv.cpp ****             // unexpected trap cause
 270:src/Riscv.cpp ****         }
 271:src/Riscv.cpp **** 
 272:src/Riscv.cpp ****     }
 273:src/Riscv.cpp **** 
 274:src/Riscv.cpp **** }
 204              		.loc 1 274 1
 205 00b0 83308110 		ld	ra,264(sp)
 206              		.cfi_remember_state
 207              		.cfi_restore 1
 208 00b4 03340110 		ld	s0,256(sp)
 209              		.cfi_restore 8
 210              		.cfi_def_cfa 2, 272
 211 00b8 8334810F 		ld	s1,248(sp)
 212              		.cfi_restore 9
 213 00bc 0339010F 		ld	s2,240(sp)
GAS LISTING /tmp/cc4qqfw8.s 			page 13


 214              		.cfi_restore 18
 215 00c0 8339810E 		ld	s3,232(sp)
 216              		.cfi_restore 19
 217 00c4 033A010E 		ld	s4,224(sp)
 218              		.cfi_restore 20
 219 00c8 833A810D 		ld	s5,216(sp)
 220              		.cfi_restore 21
 221 00cc 033B010D 		ld	s6,208(sp)
 222              		.cfi_restore 22
 223 00d0 13010111 		addi	sp,sp,272
 224              		.cfi_def_cfa_offset 0
 225 00d4 67800000 		jr	ra
 226              	.LVL10:
 227              	.L6:
 228              		.cfi_restore_state
  38:src/Riscv.cpp ****         console_handler();
 229              		.loc 1 38 10 is_stmt 1
 230              	.LBB438:
 231              	.LBB422:
 232              	.LBB183:
 233 00d8 9307F0FF 		li	a5,-1
 234 00dc 9397F703 		slli	a5,a5,63
 235 00e0 93879700 		addi	a5,a5,9
 236 00e4 6302F70C 		beq	a4,a5,.L29
 237              	.LBE183:
 238              	.LBE422:
 239              	.LBE438:
  41:src/Riscv.cpp ****         // interrupt: no; cause code: environment call from U-mode(8) or S-mode(9)
 240              		.loc 1 41 10
 241              	.LBB439:
 242              	.LBB423:
 243              	.LBB406:
 244              	.LBB184:
  41:src/Riscv.cpp ****         // interrupt: no; cause code: environment call from U-mode(8) or S-mode(9)
 245              		.loc 1 41 45 is_stmt 0
 246 00e8 130787FF 		addi	a4,a4,-8
 247              	.LVL11:
  41:src/Riscv.cpp ****         // interrupt: no; cause code: environment call from U-mode(8) or S-mode(9)
 248              		.loc 1 41 10
 249 00ec 93071000 		li	a5,1
 250 00f0 E3E0E7FC 		bgtu	a4,a5,.L3
 251              	.LBE184:
 252              	.LBE406:
 253              	.LBE423:
 254              	.LBE439:
  45:src/Riscv.cpp ****             uint64 sepc = r_sepc() + 4;
 255              		.loc 1 45 9 is_stmt 1
 256              	.LBB440:
 257              	.LBB424:
 258              	.LBB407:
 259              	.LBB393:
 260              	.LBB185:
 261 00f4 93071001 		li	a5,17
 262 00f8 638EF40A 		beq	s1,a5,.L30
 263              	.LVL12:
 264              	.L8:
 265              	.LBE185:
GAS LISTING /tmp/cc4qqfw8.s 			page 14


 266              	.LBE393:
 267              	.LBE407:
 268              	.LBE424:
 269              	.LBE440:
  80:src/Riscv.cpp ****             uint64 sepc = r_sepc() + 4;
 270              		.loc 1 80 9
 271              	.LBB441:
 272              	.LBB425:
 273              	.LBB408:
 274              	.LBB394:
 275              	.LBB195:
 276 00fc 93071000 		li	a5,1
 277 0100 6386F412 		beq	s1,a5,.L31
 278              	.LBE195:
 279              	.LBE394:
 280              	.LBE408:
 281              	.LBE425:
 282              	.LBE441:
  95:src/Riscv.cpp ****             uint64 sepc = r_sepc() + 4;
 283              		.loc 1 95 14
 284              	.LBB442:
 285              	.LBB426:
 286              	.LBB409:
 287              	.LBB395:
 288              	.LBB381:
 289              	.LBB196:
 290 0104 93072000 		li	a5,2
 291 0108 6382F416 		beq	s1,a5,.L32
 292              	.LBE196:
 293              	.LBE381:
 294              	.LBE395:
 295              	.LBE409:
 296              	.LBE426:
 297              	.LBE442:
 109:src/Riscv.cpp ****             uint64 sepc = r_sepc() + 4;
 298              		.loc 1 109 14
 299              	.LBB443:
 300              	.LBB427:
 301              	.LBB410:
 302              	.LBB396:
 303              	.LBB382:
 304              	.LBB362:
 305              	.LBB197:
 306 010c 93072001 		li	a5,18
 307 0110 638CF418 		beq	s1,a5,.L33
 308              	.LBE197:
 309              	.LBE362:
 310              	.LBE382:
 311              	.LBE396:
 312              	.LBE410:
 313              	.LBE427:
 314              	.LBE443:
 121:src/Riscv.cpp ****             //thread dispatch
 315              		.loc 1 121 14
 316              	.LBB444:
 317              	.LBB428:
 318              	.LBB411:
GAS LISTING /tmp/cc4qqfw8.s 			page 15


 319              	.LBB397:
 320              	.LBB383:
 321              	.LBB363:
 322              	.LBB344:
 323              	.LBB198:
 324 0114 93073001 		li	a5,19
 325 0118 638AF41C 		beq	s1,a5,.L34
 326              	.LBE198:
 327              	.LBE344:
 328              	.LBE363:
 329              	.LBE383:
 330              	.LBE397:
 331              	.LBE411:
 332              	.LBE428:
 333              	.LBE444:
 133:src/Riscv.cpp ****             //call from yield
 334              		.loc 1 133 14
 335              	.LBB445:
 336              	.LBB429:
 337              	.LBB412:
 338              	.LBB398:
 339              	.LBB384:
 340              	.LBB364:
 341              	.LBB345:
 342              	.LBB327:
 343              	.LBB199:
 344 011c 93074000 		li	a5,4
 345 0120 638EF41E 		beq	s1,a5,.L35
 346              	.LBE199:
 347              	.LBE327:
 348              	.LBE345:
 349              	.LBE364:
 350              	.LBE384:
 351              	.LBE398:
 352              	.LBE412:
 353              	.LBE429:
 354              	.LBE445:
 144:src/Riscv.cpp ****             uint64 sepc = r_sepc() + 4;
 355              		.loc 1 144 14
 356              	.LBB446:
 357              	.LBB430:
 358              	.LBB413:
 359              	.LBB399:
 360              	.LBB385:
 361              	.LBB365:
 362              	.LBB346:
 363              	.LBB328:
 364              	.LBB311:
 365              	.LBB200:
 366 0124 93071002 		li	a5,33
 367 0128 6388F422 		beq	s1,a5,.L36
 368              	.LBE200:
 369              	.LBE311:
 370              	.LBE328:
 371              	.LBE346:
 372              	.LBE365:
 373              	.LBE385:
GAS LISTING /tmp/cc4qqfw8.s 			page 16


 374              	.LBE399:
 375              	.LBE413:
 376              	.LBE430:
 377              	.LBE446:
 170:src/Riscv.cpp ****             uint64 sepc = r_sepc() + 4;
 378              		.loc 1 170 14
 379              	.LBB447:
 380              	.LBB431:
 381              	.LBB414:
 382              	.LBB400:
 383              	.LBB386:
 384              	.LBB366:
 385              	.LBB347:
 386              	.LBB329:
 387              	.LBB312:
 388              	.LBB296:
 389              	.LBB201:
 390 012c 93072002 		li	a5,34
 391 0130 638CF428 		beq	s1,a5,.L37
 392              	.LBE201:
 393              	.LBE296:
 394              	.LBE312:
 395              	.LBE329:
 396              	.LBE347:
 397              	.LBE366:
 398              	.LBE386:
 399              	.LBE400:
 400              	.LBE414:
 401              	.LBE431:
 402              	.LBE447:
 196:src/Riscv.cpp ****             uint64 sepc = r_sepc() + 4;
 403              		.loc 1 196 14
 404              	.LBB448:
 405              	.LBB432:
 406              	.LBB415:
 407              	.LBB401:
 408              	.LBB387:
 409              	.LBB367:
 410              	.LBB348:
 411              	.LBB330:
 412              	.LBB313:
 413              	.LBB297:
 414              	.LBB278:
 415              	.LBB202:
 416 0134 93073002 		li	a5,35
 417 0138 6384F432 		beq	s1,a5,.L38
 418              	.LBE202:
 419              	.LBE278:
 420              	.LBE297:
 421              	.LBE313:
 422              	.LBE330:
 423              	.LBE348:
 424              	.LBE367:
 425              	.LBE387:
 426              	.LBE401:
 427              	.LBE415:
 428              	.LBE432:
GAS LISTING /tmp/cc4qqfw8.s 			page 17


 429              	.LBE448:
 216:src/Riscv.cpp ****             uint64 sepc = r_sepc() + 4;
 430              		.loc 1 216 14
 431              	.LBB449:
 432              	.LBB433:
 433              	.LBB416:
 434              	.LBB402:
 435              	.LBB388:
 436              	.LBB368:
 437              	.LBB349:
 438              	.LBB331:
 439              	.LBB314:
 440              	.LBB298:
 441              	.LBB279:
 442              	.LBB255:
 443              	.LBB203:
 444 013c 93074002 		li	a5,36
 445 0140 638EF434 		beq	s1,a5,.L39
 446              	.LBE203:
 447              	.LBE255:
 448              	.LBE279:
 449              	.LBE298:
 450              	.LBE314:
 451              	.LBE331:
 452              	.LBE349:
 453              	.LBE368:
 454              	.LBE388:
 455              	.LBE402:
 456              	.LBE416:
 457              	.LBE433:
 458              	.LBE449:
 237:src/Riscv.cpp ****             uint64 sepc = r_sepc() + 4;
 459              		.loc 1 237 14
 460              	.LBB450:
 461              	.LBB434:
 462              	.LBB417:
 463              	.LBB403:
 464              	.LBB389:
 465              	.LBB369:
 466              	.LBB350:
 467              	.LBB332:
 468              	.LBB315:
 469              	.LBB299:
 470              	.LBB280:
 471              	.LBB256:
 472              	.LBB243:
 473              	.LBB204:
 474 0144 93071004 		li	a5,65
 475 0148 638AF438 		beq	s1,a5,.L40
 476              	.LBE204:
 477              	.LBE243:
 478              	.LBE256:
 479              	.LBE280:
 480              	.LBE299:
 481              	.LBE315:
 482              	.LBE332:
 483              	.LBE350:
GAS LISTING /tmp/cc4qqfw8.s 			page 18


 484              	.LBE369:
 485              	.LBE389:
 486              	.LBE403:
 487              	.LBE417:
 488              	.LBE434:
 489              	.LBE450:
 252:src/Riscv.cpp ****             uint64 sepc = r_sepc() + 4;
 490              		.loc 1 252 14
 491              	.LBB451:
 492              	.LBB435:
 493              	.LBB418:
 494              	.LBB404:
 495              	.LBB390:
 496              	.LBB370:
 497              	.LBB351:
 498              	.LBB333:
 499              	.LBB316:
 500              	.LBB300:
 501              	.LBB281:
 502              	.LBB257:
 503              	.LBB244:
 504              	.LBB232:
 505              	.LBB205:
 506 014c 93072004 		li	a5,66
 507 0150 E390F4F6 		bne	s1,a5,.L3
 508              	.LBB206:
 253:src/Riscv.cpp ****             uint64 sstatus = r_sstatus();
 509              		.loc 1 253 13
 510              	.LBB207:
 511              	.LBB208:
 114:src/../h/Riscv.hpp ****     __asm__ volatile ("csrr %[sepc], sepc" : [sepc] "=r"(sepc));
 512              		.loc 2 114 5
 115:src/../h/Riscv.hpp ****     return sepc;
 513              		.loc 2 115 5
 115:src/../h/Riscv.hpp ****     return sepc;
 514              		.loc 2 115 64 is_stmt 0
 515              	#APP
 516              	# 115 "src/../h/Riscv.hpp" 1
 517              		csrr a5, sepc
 518              	# 0 "" 2
 519              	#NO_APP
 520 0158 233CF4FA 		sd	a5,-72(s0)
 116:src/../h/Riscv.hpp **** }
 521              		.loc 2 116 5 is_stmt 1
 116:src/../h/Riscv.hpp **** }
 522              		.loc 2 116 12 is_stmt 0
 523 015c 833484FB 		ld	s1,-72(s0)
 524              	.LVL13:
 525              	.LBE208:
 526              	.LBE207:
 253:src/Riscv.cpp ****             uint64 sstatus = r_sstatus();
 527              		.loc 1 253 38
 528 0160 93844400 		addi	s1,s1,4
 529              	.LVL14:
 254:src/Riscv.cpp **** 
 530              		.loc 1 254 13 is_stmt 1
 531              	.LBB209:
GAS LISTING /tmp/cc4qqfw8.s 			page 19


 532              	.LBB210:
 181:src/../h/Riscv.hpp **** 
 182:src/../h/Riscv.hpp **** inline uint64 Riscv::r_sstatus()
 183:src/../h/Riscv.hpp **** {
 184:src/../h/Riscv.hpp ****     uint64 volatile sstatus;
 533              		.loc 2 184 5
 185:src/../h/Riscv.hpp ****     __asm__ volatile ("csrr %[sstatus], sstatus" : [sstatus] "=r"(sstatus));
 534              		.loc 2 185 5
 535              		.loc 2 185 76 is_stmt 0
 536              	#APP
 537              	# 185 "src/../h/Riscv.hpp" 1
 186              	    return sstatus;
 538              		csrr a5, sstatus
 539              	# 0 "" 2
 540              	#NO_APP
 541 0168 2338F4FA 		sd	a5,-80(s0)
 542              		.loc 2 186 5 is_stmt 1
 543              		.loc 2 186 12 is_stmt 0
 544 016c 033904FB 		ld	s2,-80(s0)
 545              	.LVL15:
 546              	.LBE210:
 547              	.LBE209:
 256:src/Riscv.cpp ****             __asm__ volatile("ld a1, 11*8(fp)"); //a1
 548              		.loc 1 256 13 is_stmt 1
 257:src/Riscv.cpp **** 
 549              		.loc 1 257 13
 257:src/Riscv.cpp **** 
 550              		.loc 1 257 48 is_stmt 0
 551              	#APP
 552              	# 257 "src/Riscv.cpp" 1
 259:src/Riscv.cpp **** 
 553              		ld a1, 11*8(fp)
 554              	# 0 "" 2
 555              		.loc 1 259 13 is_stmt 1
 259:src/Riscv.cpp **** 
 556              		.loc 1 259 53 is_stmt 0
 557              	# 259 "src/Riscv.cpp" 1
 558              		mv a0, a1
 559              	# 0 "" 2
 560              	#NO_APP
 561 0178 1375F50F 		andi	a0,a0,0xff
 562              	.LVL16:
 261:src/Riscv.cpp ****             __putc(c);
 563              		.loc 1 261 13 is_stmt 1
 261:src/Riscv.cpp ****             __putc(c);
 564              		.loc 1 261 27 is_stmt 0
 565 017c 97070000 		la	a5,_ZN5Riscv11TrapConsoleEv
 565      83B70700 
 566              	.LVL17:
 567              	.LBB211:
 568              	.LBB212:
 133:src/../h/Riscv.hpp **** }
 569              		.loc 2 133 5 is_stmt 1
 133:src/../h/Riscv.hpp **** }
 570              		.loc 2 133 69 is_stmt 0
 571              	#APP
 572              	# 133 "src/../h/Riscv.hpp" 1
GAS LISTING /tmp/cc4qqfw8.s 			page 20


 573              		csrw stvec, a5
 574              	# 0 "" 2
 575              	.LVL18:
 576              	#NO_APP
 577              	.LBE212:
 578              	.LBE211:
 262:src/Riscv.cpp ****             Riscv::w_stvec((uint64)&Riscv::supervisorTrap);
 579              		.loc 1 262 13 is_stmt 1
 262:src/Riscv.cpp ****             Riscv::w_stvec((uint64)&Riscv::supervisorTrap);
 580              		.loc 1 262 19 is_stmt 0
 581 0188 97000000 		call	__putc@plt
 581      E7800000 
 582              	.LVL19:
 263:src/Riscv.cpp **** 
 583              		.loc 1 263 13 is_stmt 1
 263:src/Riscv.cpp **** 
 584              		.loc 1 263 27 is_stmt 0
 585 0190 97070000 		la	a5,_ZN5Riscv14supervisorTrapEv
 585      83B70700 
 586              	.LVL20:
 587              	.LBB213:
 588              	.LBB214:
 133:src/../h/Riscv.hpp **** }
 589              		.loc 2 133 5 is_stmt 1
 133:src/../h/Riscv.hpp **** }
 590              		.loc 2 133 69 is_stmt 0
 591              	#APP
 592              	# 133 "src/../h/Riscv.hpp" 1
 593              		csrw stvec, a5
 594              	# 0 "" 2
 595              	.LVL21:
 596              	#NO_APP
 597              	.LBE214:
 598              	.LBE213:
 265:src/Riscv.cpp ****             w_sepc(sepc);
 599              		.loc 1 265 13 is_stmt 1
 600              	.LBB215:
 601              	.LBB216:
 187:src/../h/Riscv.hpp **** }
 188:src/../h/Riscv.hpp **** 
 189:src/../h/Riscv.hpp **** inline void Riscv::w_sstatus(uint64 sstatus)
 190:src/../h/Riscv.hpp **** {
 191:src/../h/Riscv.hpp ****     __asm__ volatile ("csrw sstatus, %[sstatus]" : : [sstatus] "r"(sstatus));
 602              		.loc 2 191 5
 603              		.loc 2 191 77 is_stmt 0
 604              	#APP
 605              	# 191 "src/../h/Riscv.hpp" 1
 192              	}
 606              		csrw sstatus, s2
 607              	# 0 "" 2
 608              	.LVL22:
 609              	#NO_APP
 610              	.LBE216:
 611              	.LBE215:
 266:src/Riscv.cpp ****         }
 612              		.loc 1 266 13 is_stmt 1
 613              	.LBB217:
GAS LISTING /tmp/cc4qqfw8.s 			page 21


 614              	.LBB218:
 121:src/../h/Riscv.hpp **** }
 615              		.loc 2 121 5
 121:src/../h/Riscv.hpp **** }
 616              		.loc 2 121 65 is_stmt 0
 617              	#APP
 618              	# 121 "src/../h/Riscv.hpp" 1
 619              		csrw sepc, s1
 620              	# 0 "" 2
 621              	.LVL23:
 622              	#NO_APP
 623              	.LBE218:
 624              	.LBE217:
 625              	.LBE206:
 626              	.LBE205:
 627              	.LBE232:
 628              	.LBE244:
 629              	.LBE257:
 630              	.LBE281:
 631              	.LBE300:
 632              	.LBE316:
 633              	.LBE333:
 634              	.LBE351:
 635              	.LBE370:
 636              	.LBE390:
 637              	.LBE404:
 638              	.LBE418:
 639              	.LBE435:
 640              	.LBE451:
 641              		.loc 1 274 1
 642 01a4 6FF0DFF0 		j	.L3
 643              	.LVL24:
 644              	.L29:
 645              	.LBB452:
 646              	.LBB436:
 647              	.LBB419:
  39:src/Riscv.cpp ****     }
 648              		.loc 1 39 9 is_stmt 1
  39:src/Riscv.cpp ****     }
 649              		.loc 1 39 24 is_stmt 0
 650 01a8 97000000 		call	console_handler@plt
 650      E7800000 
 651              	.LVL25:
 652 01b0 6FF01FF0 		j	.L3
 653              	.LVL26:
 654              	.L30:
 655              	.LBB405:
 656              	.LBB391:
 657              	.LBB186:
  46:src/Riscv.cpp ****             uint64 sstatus = r_sstatus();
 658              		.loc 1 46 13 is_stmt 1
 659              	.LBB187:
 660              	.LBB188:
 114:src/../h/Riscv.hpp ****     __asm__ volatile ("csrr %[sepc], sepc" : [sepc] "=r"(sepc));
 661              		.loc 2 114 5
 115:src/../h/Riscv.hpp ****     return sepc;
 662              		.loc 2 115 5
GAS LISTING /tmp/cc4qqfw8.s 			page 22


 115:src/../h/Riscv.hpp ****     return sepc;
 663              		.loc 2 115 64 is_stmt 0
 664              	#APP
 665              	# 115 "src/../h/Riscv.hpp" 1
 666              		csrr a5, sepc
 667              	# 0 "" 2
 668              	#NO_APP
 669 01b8 2334F4F0 		sd	a5,-248(s0)
 116:src/../h/Riscv.hpp **** }
 670              		.loc 2 116 5 is_stmt 1
 116:src/../h/Riscv.hpp **** }
 671              		.loc 2 116 12 is_stmt 0
 672 01bc 033984F0 		ld	s2,-248(s0)
 673              	.LBE188:
 674              	.LBE187:
  46:src/Riscv.cpp ****             uint64 sstatus = r_sstatus();
 675              		.loc 1 46 38
 676 01c0 13094900 		addi	s2,s2,4
 677              	.LVL27:
  47:src/Riscv.cpp **** 
 678              		.loc 1 47 13 is_stmt 1
 679              	.LBB189:
 680              	.LBB190:
 184:src/../h/Riscv.hpp ****     __asm__ volatile ("csrr %[sstatus], sstatus" : [sstatus] "=r"(sstatus));
 681              		.loc 2 184 5
 185:src/../h/Riscv.hpp ****     return sstatus;
 682              		.loc 2 185 5
 185:src/../h/Riscv.hpp ****     return sstatus;
 683              		.loc 2 185 76 is_stmt 0
 684              	#APP
 685              	# 185 "src/../h/Riscv.hpp" 1
 686              		csrr a5, sstatus
 687              	# 0 "" 2
 688              	#NO_APP
 689 01c8 2330F4F0 		sd	a5,-256(s0)
 186:src/../h/Riscv.hpp **** }
 690              		.loc 2 186 5 is_stmt 1
 186:src/../h/Riscv.hpp **** }
 691              		.loc 2 186 12 is_stmt 0
 692 01cc 833904F0 		ld	s3,-256(s0)
 693              	.LVL28:
 694              	.LBE190:
 695              	.LBE189:
  50:src/Riscv.cpp ****             _thread::Body arg2;
 696              		.loc 1 50 13 is_stmt 1
  51:src/Riscv.cpp ****             uint64 arg3;
 697              		.loc 1 51 13
  52:src/Riscv.cpp **** 
 698              		.loc 1 52 13
  55:src/Riscv.cpp ****             __asm__ volatile("ld a2, 12*8(fp)"); //a2
 699              		.loc 1 55 13
  55:src/Riscv.cpp ****             __asm__ volatile("ld a2, 12*8(fp)"); //a2
 700              		.loc 1 55 48 is_stmt 0
 701              	#APP
 702              	# 55 "src/Riscv.cpp" 1
  56:src/Riscv.cpp ****             __asm__ volatile("ld a3, 13*8(fp)"); //a3
 703              		ld a1, 11*8(fp)
GAS LISTING /tmp/cc4qqfw8.s 			page 23


 704              	# 0 "" 2
 705              		.loc 1 56 13 is_stmt 1
  56:src/Riscv.cpp ****             __asm__ volatile("ld a3, 13*8(fp)"); //a3
 706              		.loc 1 56 48 is_stmt 0
 707              	# 56 "src/Riscv.cpp" 1
  57:src/Riscv.cpp **** 
 708              		ld a2, 12*8(fp)
 709              	# 0 "" 2
 710              		.loc 1 57 13 is_stmt 1
  57:src/Riscv.cpp **** 
 711              		.loc 1 57 48 is_stmt 0
 712              	# 57 "src/Riscv.cpp" 1
  60:src/Riscv.cpp ****             __asm__ volatile("mv %0, a2" : "=r" (arg2));    //start routine
 713              		ld a3, 13*8(fp)
 714              	# 0 "" 2
 715              		.loc 1 60 13 is_stmt 1
  60:src/Riscv.cpp ****             __asm__ volatile("mv %0, a2" : "=r" (arg2));    //start routine
 716              		.loc 1 60 56 is_stmt 0
 717              	# 60 "src/Riscv.cpp" 1
 718              		mv s4, a1
 719              	# 0 "" 2
 720              	.LVL29:
  61:src/Riscv.cpp ****             __asm__ volatile("mv %0, a3" : "=r" (arg3));    //argument of start routine
 721              		.loc 1 61 13 is_stmt 1
  61:src/Riscv.cpp ****             __asm__ volatile("mv %0, a3" : "=r" (arg3));    //argument of start routine
 722              		.loc 1 61 56 is_stmt 0
 723              	# 61 "src/Riscv.cpp" 1
 724              		mv s5, a2
 725              	# 0 "" 2
 726              	.LVL30:
  62:src/Riscv.cpp **** 
 727              		.loc 1 62 13 is_stmt 1
  62:src/Riscv.cpp **** 
 728              		.loc 1 62 56 is_stmt 0
 729              	# 62 "src/Riscv.cpp" 1
 730              		mv s6, a3
 731              	# 0 "" 2
 732              	.LVL31:
  64:src/Riscv.cpp **** 
 733              		.loc 1 64 13 is_stmt 1
  64:src/Riscv.cpp **** 
 734              		.loc 1 64 65 is_stmt 0
 735              	#NO_APP
 736 01e8 37850000 		li	a0,32768
 737 01ec 97000000 		call	_ZN15MemoryAllocator10kmem_allocEm@plt
 737      E7800000 
 738              	.LVL32:
 739 01f4 13060500 		mv	a2,a0
 740              	.LVL33:
  67:src/Riscv.cpp ****             *arg1=t;
 741              		.loc 1 67 13 is_stmt 1
  67:src/Riscv.cpp ****             *arg1=t;
 742              		.loc 1 67 47 is_stmt 0
 743 01f8 93050B00 		mv	a1,s6
 744 01fc 13850A00 		mv	a0,s5
 745              	.LVL34:
 746 0200 97000000 		call	_ZN7_thread12createThreadEPFvPvES0_Pm@plt
GAS LISTING /tmp/cc4qqfw8.s 			page 24


 746      E7800000 
 747              	.LVL35:
  68:src/Riscv.cpp **** 
 748              		.loc 1 68 13 is_stmt 1
  68:src/Riscv.cpp **** 
 749              		.loc 1 68 18 is_stmt 0
 750 0208 2330AA00 		sd	a0,0(s4)
  70:src/Riscv.cpp ****             if(t!= nullptr)ret=0;
 751              		.loc 1 70 13 is_stmt 1
  71:src/Riscv.cpp ****             else ret =-1;
 752              		.loc 1 71 13
 753 020c 630C0500 		beqz	a0,.L25
  71:src/Riscv.cpp ****             else ret =-1;
 754              		.loc 1 71 31 is_stmt 0
 755 0210 93070000 		li	a5,0
 756              	.L9:
 757              	.LVL36:
  75:src/Riscv.cpp **** 
 758              		.loc 1 75 13 is_stmt 1
  75:src/Riscv.cpp **** 
 759              		.loc 1 75 56 is_stmt 0
 760              	#APP
 761              	# 75 "src/Riscv.cpp" 1
  77:src/Riscv.cpp ****             w_sepc(sepc);
 762              		mv a0, a5
 763              	# 0 "" 2
 764              		.loc 1 77 13 is_stmt 1
 765              	.LVL37:
 766              	#NO_APP
 767              	.LBB191:
 768              	.LBB192:
 191:src/../h/Riscv.hpp **** }
 769              		.loc 2 191 5
 191:src/../h/Riscv.hpp **** }
 770              		.loc 2 191 77 is_stmt 0
 771              	#APP
 772              	# 191 "src/../h/Riscv.hpp" 1
 773              		csrw sstatus, s3
 774              	# 0 "" 2
 775              	.LVL38:
 776              	#NO_APP
 777              	.LBE192:
 778              	.LBE191:
  78:src/Riscv.cpp ****         }
 779              		.loc 1 78 13 is_stmt 1
 780              	.LBB193:
 781              	.LBB194:
 121:src/../h/Riscv.hpp **** }
 782              		.loc 2 121 5
 121:src/../h/Riscv.hpp **** }
 783              		.loc 2 121 65 is_stmt 0
 784              	#APP
 785              	# 121 "src/../h/Riscv.hpp" 1
 122:src/../h/Riscv.hpp **** 
 786              		csrw sepc, s2
 787              	# 0 "" 2
 788              		.loc 2 122 1
GAS LISTING /tmp/cc4qqfw8.s 			page 25


 789              	#NO_APP
 790 0220 6FF0DFED 		j	.L8
 791              	.LVL39:
 792              	.L25:
 793              	.LBE194:
 794              	.LBE193:
  72:src/Riscv.cpp **** 
 795              		.loc 1 72 22
 796 0224 9307F0FF 		li	a5,-1
 797 0228 6FF0DFFE 		j	.L9
 798              	.LVL40:
 799              	.L31:
 800              	.LBE186:
 801              	.LBE391:
 802              	.LBB392:
 803              	.LBB371:
  81:src/Riscv.cpp ****             uint64 sstatus = r_sstatus();
 804              		.loc 1 81 13 is_stmt 1
 805              	.LBB372:
 806              	.LBB373:
 114:src/../h/Riscv.hpp ****     __asm__ volatile ("csrr %[sepc], sepc" : [sepc] "=r"(sepc));
 807              		.loc 2 114 5
 115:src/../h/Riscv.hpp ****     return sepc;
 808              		.loc 2 115 5
 115:src/../h/Riscv.hpp ****     return sepc;
 809              		.loc 2 115 64 is_stmt 0
 810              	#APP
 811              	# 115 "src/../h/Riscv.hpp" 1
 812              		csrr a5, sepc
 813              	# 0 "" 2
 814              	#NO_APP
 815 0230 233CF4F0 		sd	a5,-232(s0)
 116:src/../h/Riscv.hpp **** }
 816              		.loc 2 116 5 is_stmt 1
 116:src/../h/Riscv.hpp **** }
 817              		.loc 2 116 12 is_stmt 0
 818 0234 833484F1 		ld	s1,-232(s0)
 819              	.LVL41:
 820              	.LBE373:
 821              	.LBE372:
  81:src/Riscv.cpp ****             uint64 sstatus = r_sstatus();
 822              		.loc 1 81 38
 823 0238 93844400 		addi	s1,s1,4
 824              	.LVL42:
  82:src/Riscv.cpp ****             //kmem_alloc
 825              		.loc 1 82 13 is_stmt 1
 826              	.LBB374:
 827              	.LBB375:
 184:src/../h/Riscv.hpp ****     __asm__ volatile ("csrr %[sstatus], sstatus" : [sstatus] "=r"(sstatus));
 828              		.loc 2 184 5
 185:src/../h/Riscv.hpp ****     return sstatus;
 829              		.loc 2 185 5
 185:src/../h/Riscv.hpp ****     return sstatus;
 830              		.loc 2 185 76 is_stmt 0
 831              	#APP
 832              	# 185 "src/../h/Riscv.hpp" 1
 833              		csrr a5, sstatus
GAS LISTING /tmp/cc4qqfw8.s 			page 26


 834              	# 0 "" 2
 835              	#NO_APP
 836 0240 2338F4F0 		sd	a5,-240(s0)
 186:src/../h/Riscv.hpp **** }
 837              		.loc 2 186 5 is_stmt 1
 186:src/../h/Riscv.hpp **** }
 838              		.loc 2 186 12 is_stmt 0
 839 0244 033904F1 		ld	s2,-240(s0)
 840              	.LVL43:
 841              	.LBE375:
 842              	.LBE374:
  84:src/Riscv.cpp **** 
 843              		.loc 1 84 13 is_stmt 1
  84:src/Riscv.cpp **** 
 844              		.loc 1 84 48 is_stmt 0
 845              	#APP
 846              	# 84 "src/Riscv.cpp" 1
  86:src/Riscv.cpp ****             uint64 ptr= (uint64) MemoryAllocator::kmem_alloc(arg1*MEM_BLOCK_SIZE);
 847              		ld a0, 11*8(fp)
 848              	# 0 "" 2
 849              		.loc 1 86 13 is_stmt 1
  86:src/Riscv.cpp ****             uint64 ptr= (uint64) MemoryAllocator::kmem_alloc(arg1*MEM_BLOCK_SIZE);
 850              		.loc 1 86 56 is_stmt 0
 851              	# 86 "src/Riscv.cpp" 1
 852              		mv a0, a0
 853              	# 0 "" 2
 854              	.LVL44:
  87:src/Riscv.cpp **** 
 855              		.loc 1 87 13 is_stmt 1
  87:src/Riscv.cpp **** 
 856              		.loc 1 87 61 is_stmt 0
 857              	#NO_APP
 858 0250 13156500 		slli	a0,a0,6
 859              	.LVL45:
 860 0254 97000000 		call	_ZN15MemoryAllocator10kmem_allocEm@plt
 860      E7800000 
 861              	.LVL46:
  90:src/Riscv.cpp **** 
 862              		.loc 1 90 13 is_stmt 1
  90:src/Riscv.cpp **** 
 863              		.loc 1 90 56 is_stmt 0
 864              	#APP
 865              	# 90 "src/Riscv.cpp" 1
  92:src/Riscv.cpp ****             w_sepc(sepc);
 866              		mv a0, a0
 867              	# 0 "" 2
 868              		.loc 1 92 13 is_stmt 1
 869              	.LVL47:
 870              	#NO_APP
 871              	.LBB376:
 872              	.LBB377:
 191:src/../h/Riscv.hpp **** }
 873              		.loc 2 191 5
 191:src/../h/Riscv.hpp **** }
 874              		.loc 2 191 77 is_stmt 0
 875              	#APP
 876              	# 191 "src/../h/Riscv.hpp" 1
GAS LISTING /tmp/cc4qqfw8.s 			page 27


 877              		csrw sstatus, s2
 878              	# 0 "" 2
 879              	.LVL48:
 880              	#NO_APP
 881              	.LBE377:
 882              	.LBE376:
  93:src/Riscv.cpp ****         }
 883              		.loc 1 93 13 is_stmt 1
 884              	.LBB378:
 885              	.LBB379:
 121:src/../h/Riscv.hpp **** }
 886              		.loc 2 121 5
 121:src/../h/Riscv.hpp **** }
 887              		.loc 2 121 65 is_stmt 0
 888              	#APP
 889              	# 121 "src/../h/Riscv.hpp" 1
 122:src/../h/Riscv.hpp **** 
 890              		csrw sepc, s1
 891              	# 0 "" 2
 892              		.loc 2 122 1
 893              	#NO_APP
 894 0268 6FF09FE4 		j	.L3
 895              	.LVL49:
 896              	.L32:
 897              	.LBE379:
 898              	.LBE378:
 899              	.LBE371:
 900              	.LBB380:
 901              	.LBB352:
  96:src/Riscv.cpp ****             uint64 sstatus = r_sstatus();
 902              		.loc 1 96 13 is_stmt 1
 903              	.LBB353:
 904              	.LBB354:
 114:src/../h/Riscv.hpp ****     __asm__ volatile ("csrr %[sepc], sepc" : [sepc] "=r"(sepc));
 905              		.loc 2 114 5
 115:src/../h/Riscv.hpp ****     return sepc;
 906              		.loc 2 115 5
 115:src/../h/Riscv.hpp ****     return sepc;
 907              		.loc 2 115 64 is_stmt 0
 908              	#APP
 909              	# 115 "src/../h/Riscv.hpp" 1
 910              		csrr a5, sepc
 911              	# 0 "" 2
 912              	#NO_APP
 913 0270 2334F4F2 		sd	a5,-216(s0)
 116:src/../h/Riscv.hpp **** }
 914              		.loc 2 116 5 is_stmt 1
 116:src/../h/Riscv.hpp **** }
 915              		.loc 2 116 12 is_stmt 0
 916 0274 833484F2 		ld	s1,-216(s0)
 917              	.LVL50:
 918              	.LBE354:
 919              	.LBE353:
  96:src/Riscv.cpp ****             uint64 sstatus = r_sstatus();
 920              		.loc 1 96 38
 921 0278 93844400 		addi	s1,s1,4
 922              	.LVL51:
GAS LISTING /tmp/cc4qqfw8.s 			page 28


  97:src/Riscv.cpp **** 
 923              		.loc 1 97 13 is_stmt 1
 924              	.LBB355:
 925              	.LBB356:
 184:src/../h/Riscv.hpp ****     __asm__ volatile ("csrr %[sstatus], sstatus" : [sstatus] "=r"(sstatus));
 926              		.loc 2 184 5
 185:src/../h/Riscv.hpp ****     return sstatus;
 927              		.loc 2 185 5
 185:src/../h/Riscv.hpp ****     return sstatus;
 928              		.loc 2 185 76 is_stmt 0
 929              	#APP
 930              	# 185 "src/../h/Riscv.hpp" 1
 931              		csrr a5, sstatus
 932              	# 0 "" 2
 933              	#NO_APP
 934 0280 2330F4F2 		sd	a5,-224(s0)
 186:src/../h/Riscv.hpp **** }
 935              		.loc 2 186 5 is_stmt 1
 186:src/../h/Riscv.hpp **** }
 936              		.loc 2 186 12 is_stmt 0
 937 0284 033904F2 		ld	s2,-224(s0)
 938              	.LVL52:
 939              	.LBE356:
 940              	.LBE355:
  99:src/Riscv.cpp **** 
 941              		.loc 1 99 13 is_stmt 1
  99:src/Riscv.cpp **** 
 942              		.loc 1 99 48 is_stmt 0
 943              	#APP
 944              	# 99 "src/Riscv.cpp" 1
 101:src/Riscv.cpp ****             int ret = MemoryAllocator::kmem_free((void *) arg1);
 945              		ld a0, 11*8(fp)
 946              	# 0 "" 2
 947              		.loc 1 101 13 is_stmt 1
 101:src/Riscv.cpp ****             int ret = MemoryAllocator::kmem_free((void *) arg1);
 948              		.loc 1 101 56 is_stmt 0
 949              	# 101 "src/Riscv.cpp" 1
 950              		mv a0, a0
 951              	# 0 "" 2
 952              	.LVL53:
 102:src/Riscv.cpp ****             __asm__ volatile("mv a0, %0" : : "r" (ret));
 953              		.loc 1 102 13 is_stmt 1
 102:src/Riscv.cpp ****             __asm__ volatile("mv a0, %0" : : "r" (ret));
 954              		.loc 1 102 49 is_stmt 0
 955              	#NO_APP
 956 0290 97000000 		call	_ZN15MemoryAllocator9kmem_freeEPv@plt
 956      E7800000 
 957              	.LVL54:
 103:src/Riscv.cpp **** 
 958              		.loc 1 103 13 is_stmt 1
 103:src/Riscv.cpp **** 
 959              		.loc 1 103 56 is_stmt 0
 960              	#APP
 961              	# 103 "src/Riscv.cpp" 1
 105:src/Riscv.cpp ****             w_sepc(sepc);
 962              		mv a0, a0
 963              	# 0 "" 2
GAS LISTING /tmp/cc4qqfw8.s 			page 29


 964              		.loc 1 105 13 is_stmt 1
 965              	.LVL55:
 966              	#NO_APP
 967              	.LBB357:
 968              	.LBB358:
 191:src/../h/Riscv.hpp **** }
 969              		.loc 2 191 5
 191:src/../h/Riscv.hpp **** }
 970              		.loc 2 191 77 is_stmt 0
 971              	#APP
 972              	# 191 "src/../h/Riscv.hpp" 1
 973              		csrw sstatus, s2
 974              	# 0 "" 2
 975              	.LVL56:
 976              	#NO_APP
 977              	.LBE358:
 978              	.LBE357:
 106:src/Riscv.cpp ****         }
 979              		.loc 1 106 13 is_stmt 1
 980              	.LBB359:
 981              	.LBB360:
 121:src/../h/Riscv.hpp **** }
 982              		.loc 2 121 5
 121:src/../h/Riscv.hpp **** }
 983              		.loc 2 121 65 is_stmt 0
 984              	#APP
 985              	# 121 "src/../h/Riscv.hpp" 1
 122:src/../h/Riscv.hpp **** 
 986              		csrw sepc, s1
 987              	# 0 "" 2
 988              		.loc 2 122 1
 989              	#NO_APP
 990 02a4 6FF0DFE0 		j	.L3
 991              	.LVL57:
 992              	.L33:
 993              	.LBE360:
 994              	.LBE359:
 995              	.LBE352:
 996              	.LBB361:
 997              	.LBB334:
 110:src/Riscv.cpp ****             uint64 sstatus = r_sstatus();
 998              		.loc 1 110 13 is_stmt 1
 999              	.LBB335:
 1000              	.LBB336:
 114:src/../h/Riscv.hpp ****     __asm__ volatile ("csrr %[sepc], sepc" : [sepc] "=r"(sepc));
 1001              		.loc 2 114 5
 115:src/../h/Riscv.hpp ****     return sepc;
 1002              		.loc 2 115 5
 115:src/../h/Riscv.hpp ****     return sepc;
 1003              		.loc 2 115 64 is_stmt 0
 1004              	#APP
 1005              	# 115 "src/../h/Riscv.hpp" 1
 1006              		csrr a5, sepc
 1007              	# 0 "" 2
 1008              	#NO_APP
 1009 02ac 233CF4F2 		sd	a5,-200(s0)
 116:src/../h/Riscv.hpp **** }
GAS LISTING /tmp/cc4qqfw8.s 			page 30


 1010              		.loc 2 116 5 is_stmt 1
 116:src/../h/Riscv.hpp **** }
 1011              		.loc 2 116 12 is_stmt 0
 1012 02b0 833484F3 		ld	s1,-200(s0)
 1013              	.LVL58:
 1014              	.LBE336:
 1015              	.LBE335:
 110:src/Riscv.cpp ****             uint64 sstatus = r_sstatus();
 1016              		.loc 1 110 38
 1017 02b4 93844400 		addi	s1,s1,4
 1018              	.LVL59:
 111:src/Riscv.cpp **** 
 1019              		.loc 1 111 13 is_stmt 1
 1020              	.LBB337:
 1021              	.LBB338:
 184:src/../h/Riscv.hpp ****     __asm__ volatile ("csrr %[sstatus], sstatus" : [sstatus] "=r"(sstatus));
 1022              		.loc 2 184 5
 185:src/../h/Riscv.hpp ****     return sstatus;
 1023              		.loc 2 185 5
 185:src/../h/Riscv.hpp ****     return sstatus;
 1024              		.loc 2 185 76 is_stmt 0
 1025              	#APP
 1026              	# 185 "src/../h/Riscv.hpp" 1
 1027              		csrr a5, sstatus
 1028              	# 0 "" 2
 1029              	#NO_APP
 1030 02bc 2338F4F2 		sd	a5,-208(s0)
 186:src/../h/Riscv.hpp **** }
 1031              		.loc 2 186 5 is_stmt 1
 186:src/../h/Riscv.hpp **** }
 1032              		.loc 2 186 12 is_stmt 0
 1033 02c0 033904F3 		ld	s2,-208(s0)
 1034              	.LVL60:
 1035              	.LBE338:
 1036              	.LBE337:
 113:src/Riscv.cpp ****             _thread::dispatch();
 1037              		.loc 1 113 13 is_stmt 1
 113:src/Riscv.cpp ****             _thread::dispatch();
 1038              		.loc 1 113 31 is_stmt 0
 1039 02c4 97070000 		la	a5,_ZN7_thread7runningE
 1039      83B70700 
 1040 02cc 83B70700 		ld	a5,0(a5)
 113:src/Riscv.cpp ****             _thread::dispatch();
 1041              		.loc 1 113 39
 1042 02d0 13071000 		li	a4,1
 1043 02d4 2384E702 		sb	a4,40(a5)
 114:src/Riscv.cpp **** 
 1044              		.loc 1 114 13 is_stmt 1
 114:src/Riscv.cpp **** 
 1045              		.loc 1 114 30 is_stmt 0
 1046 02d8 97000000 		call	_ZN7_thread8dispatchEv@plt
 1046      E7800000 
 1047              	.LVL61:
 116:src/Riscv.cpp ****             w_sepc(sepc);
 1048              		.loc 1 116 13 is_stmt 1
 1049              	.LBB339:
 1050              	.LBB340:
GAS LISTING /tmp/cc4qqfw8.s 			page 31


 191:src/../h/Riscv.hpp **** }
 1051              		.loc 2 191 5
 191:src/../h/Riscv.hpp **** }
 1052              		.loc 2 191 77 is_stmt 0
 1053              	#APP
 1054              	# 191 "src/../h/Riscv.hpp" 1
 1055              		csrw sstatus, s2
 1056              	# 0 "" 2
 1057              	.LVL62:
 1058              	#NO_APP
 1059              	.LBE340:
 1060              	.LBE339:
 117:src/Riscv.cpp **** 
 1061              		.loc 1 117 13 is_stmt 1
 1062              	.LBB341:
 1063              	.LBB342:
 121:src/../h/Riscv.hpp **** }
 1064              		.loc 2 121 5
 121:src/../h/Riscv.hpp **** }
 1065              		.loc 2 121 65 is_stmt 0
 1066              	#APP
 1067              	# 121 "src/../h/Riscv.hpp" 1
 122:src/../h/Riscv.hpp **** 
 1068              		csrw sepc, s1
 1069              	# 0 "" 2
 1070              		.loc 2 122 1
 1071              	#NO_APP
 1072 02e8 6FF09FDC 		j	.L3
 1073              	.LVL63:
 1074              	.L34:
 1075              	.LBE342:
 1076              	.LBE341:
 1077              	.LBE334:
 1078              	.LBB343:
 1079              	.LBB317:
 123:src/Riscv.cpp ****             uint64 sstatus = r_sstatus();
 1080              		.loc 1 123 13 is_stmt 1
 1081              	.LBB318:
 1082              	.LBB319:
 114:src/../h/Riscv.hpp ****     __asm__ volatile ("csrr %[sepc], sepc" : [sepc] "=r"(sepc));
 1083              		.loc 2 114 5
 115:src/../h/Riscv.hpp ****     return sepc;
 1084              		.loc 2 115 5
 115:src/../h/Riscv.hpp ****     return sepc;
 1085              		.loc 2 115 64 is_stmt 0
 1086              	#APP
 1087              	# 115 "src/../h/Riscv.hpp" 1
 1088              		csrr a5, sepc
 1089              	# 0 "" 2
 1090              	#NO_APP
 1091 02f0 2334F4F4 		sd	a5,-184(s0)
 116:src/../h/Riscv.hpp **** }
 1092              		.loc 2 116 5 is_stmt 1
 116:src/../h/Riscv.hpp **** }
 1093              		.loc 2 116 12 is_stmt 0
 1094 02f4 833484F4 		ld	s1,-184(s0)
 1095              	.LVL64:
GAS LISTING /tmp/cc4qqfw8.s 			page 32


 1096              	.LBE319:
 1097              	.LBE318:
 123:src/Riscv.cpp ****             uint64 sstatus = r_sstatus();
 1098              		.loc 1 123 38
 1099 02f8 93844400 		addi	s1,s1,4
 1100              	.LVL65:
 124:src/Riscv.cpp **** 
 1101              		.loc 1 124 13 is_stmt 1
 1102              	.LBB320:
 1103              	.LBB321:
 184:src/../h/Riscv.hpp ****     __asm__ volatile ("csrr %[sstatus], sstatus" : [sstatus] "=r"(sstatus));
 1104              		.loc 2 184 5
 185:src/../h/Riscv.hpp ****     return sstatus;
 1105              		.loc 2 185 5
 185:src/../h/Riscv.hpp ****     return sstatus;
 1106              		.loc 2 185 76 is_stmt 0
 1107              	#APP
 1108              	# 185 "src/../h/Riscv.hpp" 1
 1109              		csrr a5, sstatus
 1110              	# 0 "" 2
 1111              	#NO_APP
 1112 0300 2330F4F4 		sd	a5,-192(s0)
 186:src/../h/Riscv.hpp **** }
 1113              		.loc 2 186 5 is_stmt 1
 186:src/../h/Riscv.hpp **** }
 1114              		.loc 2 186 12 is_stmt 0
 1115 0304 033904F4 		ld	s2,-192(s0)
 1116              	.LVL66:
 1117              	.LBE321:
 1118              	.LBE320:
 127:src/Riscv.cpp **** 
 1119              		.loc 1 127 13 is_stmt 1
 127:src/Riscv.cpp **** 
 1120              		.loc 1 127 30 is_stmt 0
 1121 0308 97000000 		call	_ZN7_thread8dispatchEv@plt
 1121      E7800000 
 1122              	.LVL67:
 129:src/Riscv.cpp ****             w_sepc(sepc);
 1123              		.loc 1 129 13 is_stmt 1
 1124              	.LBB322:
 1125              	.LBB323:
 191:src/../h/Riscv.hpp **** }
 1126              		.loc 2 191 5
 191:src/../h/Riscv.hpp **** }
 1127              		.loc 2 191 77 is_stmt 0
 1128              	#APP
 1129              	# 191 "src/../h/Riscv.hpp" 1
 1130              		csrw sstatus, s2
 1131              	# 0 "" 2
 1132              	.LVL68:
 1133              	#NO_APP
 1134              	.LBE323:
 1135              	.LBE322:
 130:src/Riscv.cpp ****         }
 1136              		.loc 1 130 13 is_stmt 1
 1137              	.LBB324:
 1138              	.LBB325:
GAS LISTING /tmp/cc4qqfw8.s 			page 33


 121:src/../h/Riscv.hpp **** }
 1139              		.loc 2 121 5
 121:src/../h/Riscv.hpp **** }
 1140              		.loc 2 121 65 is_stmt 0
 1141              	#APP
 1142              	# 121 "src/../h/Riscv.hpp" 1
 122:src/../h/Riscv.hpp **** 
 1143              		csrw sepc, s1
 1144              	# 0 "" 2
 1145              		.loc 2 122 1
 1146              	#NO_APP
 1147 0318 6FF09FD9 		j	.L3
 1148              	.LVL69:
 1149              	.L35:
 1150              	.LBE325:
 1151              	.LBE324:
 1152              	.LBE317:
 1153              	.LBB326:
 1154              	.LBB301:
 135:src/Riscv.cpp ****             uint64 sstatus = r_sstatus();
 1155              		.loc 1 135 13 is_stmt 1
 1156              	.LBB302:
 1157              	.LBB303:
 114:src/../h/Riscv.hpp ****     __asm__ volatile ("csrr %[sepc], sepc" : [sepc] "=r"(sepc));
 1158              		.loc 2 114 5
 115:src/../h/Riscv.hpp ****     return sepc;
 1159              		.loc 2 115 5
 115:src/../h/Riscv.hpp ****     return sepc;
 1160              		.loc 2 115 64 is_stmt 0
 1161              	#APP
 1162              	# 115 "src/../h/Riscv.hpp" 1
 1163              		csrr a5, sepc
 1164              	# 0 "" 2
 1165              	#NO_APP
 1166 0320 233CF4F4 		sd	a5,-168(s0)
 116:src/../h/Riscv.hpp **** }
 1167              		.loc 2 116 5 is_stmt 1
 116:src/../h/Riscv.hpp **** }
 1168              		.loc 2 116 12 is_stmt 0
 1169 0324 833484F5 		ld	s1,-168(s0)
 1170              	.LVL70:
 1171              	.LBE303:
 1172              	.LBE302:
 135:src/Riscv.cpp ****             uint64 sstatus = r_sstatus();
 1173              		.loc 1 135 38
 1174 0328 93844400 		addi	s1,s1,4
 1175              	.LVL71:
 136:src/Riscv.cpp **** 
 1176              		.loc 1 136 13 is_stmt 1
 1177              	.LBB304:
 1178              	.LBB305:
 184:src/../h/Riscv.hpp ****     __asm__ volatile ("csrr %[sstatus], sstatus" : [sstatus] "=r"(sstatus));
 1179              		.loc 2 184 5
 185:src/../h/Riscv.hpp ****     return sstatus;
 1180              		.loc 2 185 5
 185:src/../h/Riscv.hpp ****     return sstatus;
 1181              		.loc 2 185 76 is_stmt 0
GAS LISTING /tmp/cc4qqfw8.s 			page 34


 1182              	#APP
 1183              	# 185 "src/../h/Riscv.hpp" 1
 1184              		csrr a5, sstatus
 1185              	# 0 "" 2
 1186              	#NO_APP
 1187 0330 2338F4F4 		sd	a5,-176(s0)
 186:src/../h/Riscv.hpp **** }
 1188              		.loc 2 186 5 is_stmt 1
 186:src/../h/Riscv.hpp **** }
 1189              		.loc 2 186 12 is_stmt 0
 1190 0334 033904F5 		ld	s2,-176(s0)
 1191              	.LVL72:
 1192              	.LBE305:
 1193              	.LBE304:
 138:src/Riscv.cpp ****             _thread::dispatch();
 1194              		.loc 1 138 13 is_stmt 1
 138:src/Riscv.cpp ****             _thread::dispatch();
 1195              		.loc 1 138 39 is_stmt 0
 1196 0338 97070000 		la	a5,_ZN7_thread16timeSliceCounterE
 1196      83B70700 
 1197 0340 23B00700 		sd	zero,0(a5)
 139:src/Riscv.cpp **** 
 1198              		.loc 1 139 13 is_stmt 1
 139:src/Riscv.cpp **** 
 1199              		.loc 1 139 30 is_stmt 0
 1200 0344 97000000 		call	_ZN7_thread8dispatchEv@plt
 1200      E7800000 
 1201              	.LVL73:
 141:src/Riscv.cpp ****             w_sepc(sepc);
 1202              		.loc 1 141 13 is_stmt 1
 1203              	.LBB306:
 1204              	.LBB307:
 191:src/../h/Riscv.hpp **** }
 1205              		.loc 2 191 5
 191:src/../h/Riscv.hpp **** }
 1206              		.loc 2 191 77 is_stmt 0
 1207              	#APP
 1208              	# 191 "src/../h/Riscv.hpp" 1
 1209              		csrw sstatus, s2
 1210              	# 0 "" 2
 1211              	.LVL74:
 1212              	#NO_APP
 1213              	.LBE307:
 1214              	.LBE306:
 142:src/Riscv.cpp ****         }
 1215              		.loc 1 142 13 is_stmt 1
 1216              	.LBB308:
 1217              	.LBB309:
 121:src/../h/Riscv.hpp **** }
 1218              		.loc 2 121 5
 121:src/../h/Riscv.hpp **** }
 1219              		.loc 2 121 65 is_stmt 0
 1220              	#APP
 1221              	# 121 "src/../h/Riscv.hpp" 1
 122:src/../h/Riscv.hpp **** 
 1222              		csrw sepc, s1
 1223              	# 0 "" 2
GAS LISTING /tmp/cc4qqfw8.s 			page 35


 1224              		.loc 2 122 1
 1225              	#NO_APP
 1226 0354 6FF0DFD5 		j	.L3
 1227              	.LVL75:
 1228              	.L36:
 1229              	.LBE309:
 1230              	.LBE308:
 1231              	.LBE301:
 1232              	.LBB310:
 1233              	.LBB282:
 145:src/Riscv.cpp ****             uint64 sstatus = r_sstatus();
 1234              		.loc 1 145 13 is_stmt 1
 1235              	.LBB283:
 1236              	.LBB284:
 114:src/../h/Riscv.hpp ****     __asm__ volatile ("csrr %[sepc], sepc" : [sepc] "=r"(sepc));
 1237              		.loc 2 114 5
 115:src/../h/Riscv.hpp ****     return sepc;
 1238              		.loc 2 115 5
 115:src/../h/Riscv.hpp ****     return sepc;
 1239              		.loc 2 115 64 is_stmt 0
 1240              	#APP
 1241              	# 115 "src/../h/Riscv.hpp" 1
 1242              		csrr a5, sepc
 1243              	# 0 "" 2
 1244              	#NO_APP
 1245 035c 2334F4F6 		sd	a5,-152(s0)
 116:src/../h/Riscv.hpp **** }
 1246              		.loc 2 116 5 is_stmt 1
 116:src/../h/Riscv.hpp **** }
 1247              		.loc 2 116 12 is_stmt 0
 1248 0360 833484F6 		ld	s1,-152(s0)
 1249              	.LVL76:
 1250              	.LBE284:
 1251              	.LBE283:
 145:src/Riscv.cpp ****             uint64 sstatus = r_sstatus();
 1252              		.loc 1 145 38
 1253 0364 93844400 		addi	s1,s1,4
 1254              	.LVL77:
 146:src/Riscv.cpp **** 
 1255              		.loc 1 146 13 is_stmt 1
 1256              	.LBB285:
 1257              	.LBB286:
 184:src/../h/Riscv.hpp ****     __asm__ volatile ("csrr %[sstatus], sstatus" : [sstatus] "=r"(sstatus));
 1258              		.loc 2 184 5
 185:src/../h/Riscv.hpp ****     return sstatus;
 1259              		.loc 2 185 5
 185:src/../h/Riscv.hpp ****     return sstatus;
 1260              		.loc 2 185 76 is_stmt 0
 1261              	#APP
 1262              	# 185 "src/../h/Riscv.hpp" 1
 1263              		csrr a5, sstatus
 1264              	# 0 "" 2
 1265              	#NO_APP
 1266 036c 2330F4F6 		sd	a5,-160(s0)
 186:src/../h/Riscv.hpp **** }
 1267              		.loc 2 186 5 is_stmt 1
 186:src/../h/Riscv.hpp **** }
GAS LISTING /tmp/cc4qqfw8.s 			page 36


 1268              		.loc 2 186 12 is_stmt 0
 1269 0370 033904F6 		ld	s2,-160(s0)
 1270              	.LVL78:
 1271              	.LBE286:
 1272              	.LBE285:
 148:src/Riscv.cpp ****            uint64 arg2;
 1273              		.loc 1 148 12 is_stmt 1
 149:src/Riscv.cpp **** 
 1274              		.loc 1 149 12
 151:src/Riscv.cpp ****             __asm__ volatile("ld a2, 12*8(fp)"); //a2
 1275              		.loc 1 151 13
 151:src/Riscv.cpp ****             __asm__ volatile("ld a2, 12*8(fp)"); //a2
 1276              		.loc 1 151 48 is_stmt 0
 1277              	#APP
 1278              	# 151 "src/Riscv.cpp" 1
 152:src/Riscv.cpp **** 
 1279              		ld a1, 11*8(fp)
 1280              	# 0 "" 2
 1281              		.loc 1 152 13 is_stmt 1
 152:src/Riscv.cpp **** 
 1282              		.loc 1 152 48 is_stmt 0
 1283              	# 152 "src/Riscv.cpp" 1
 154:src/Riscv.cpp ****             __asm__ volatile("mv %0, a2" : "=r" (arg2));    //init val
 1284              		ld a2, 12*8(fp)
 1285              	# 0 "" 2
 1286              		.loc 1 154 13 is_stmt 1
 154:src/Riscv.cpp ****             __asm__ volatile("mv %0, a2" : "=r" (arg2));    //init val
 1287              		.loc 1 154 56 is_stmt 0
 1288              	# 154 "src/Riscv.cpp" 1
 1289              		mv s3, a1
 1290              	# 0 "" 2
 1291              	.LVL79:
 155:src/Riscv.cpp **** 
 1292              		.loc 1 155 13 is_stmt 1
 155:src/Riscv.cpp **** 
 1293              		.loc 1 155 56 is_stmt 0
 1294              	# 155 "src/Riscv.cpp" 1
 1295              		mv s4, a2
 1296              	# 0 "" 2
 1297              	.LVL80:
 157:src/Riscv.cpp ****             sem->opened=true;
 1298              		.loc 1 157 13 is_stmt 1
 157:src/Riscv.cpp ****             sem->opened=true;
 1299              		.loc 1 157 50 is_stmt 0
 1300              	#NO_APP
 1301 0384 13058001 		li	a0,24
 1302 0388 97000000 		call	_ZN10KSemaphorenwEm@plt
 1302      E7800000 
 1303              	.LVL81:
 1304              	.LBB287:
 1305              	.LBB288:
 1306              		.file 3 "src/../h/KSemaphore.hpp"
   1:src/../h/KSemaphore.hpp **** //
   2:src/../h/KSemaphore.hpp **** // Created by os on 6/25/22.
   3:src/../h/KSemaphore.hpp **** //
   4:src/../h/KSemaphore.hpp **** 
   5:src/../h/KSemaphore.hpp **** #ifndef PROJECT_BASE_V1_1_KSEMAPHORE_HPP
GAS LISTING /tmp/cc4qqfw8.s 			page 37


   6:src/../h/KSemaphore.hpp **** #define PROJECT_BASE_V1_1_KSEMAPHORE_HPP
   7:src/../h/KSemaphore.hpp **** 
   8:src/../h/KSemaphore.hpp **** 
   9:src/../h/KSemaphore.hpp **** #include "_thread.hpp"
  10:src/../h/KSemaphore.hpp **** #include "List.hpp"
  11:src/../h/KSemaphore.hpp **** 
  12:src/../h/KSemaphore.hpp **** class KSemaphore {
  13:src/../h/KSemaphore.hpp **** public:
  14:src/../h/KSemaphore.hpp ****     KSemaphore(uint64 init=1): val(init){
 1307              		.loc 3 14 40
 1308 0390 23224501 		sw	s4,4(a0)
 1309              	.LVL82:
 1310              	.LBB289:
 1311              	.LBB290:
 1312              		.file 4 "src/../h/List.hpp"
   1:src/../h/List.hpp **** //
   2:src/../h/List.hpp **** // Created by os on 6/17/22.
   3:src/../h/List.hpp **** //
   4:src/../h/List.hpp **** 
   5:src/../h/List.hpp **** #ifndef PROJECT_BASE_V1_1_LIST_HPP
   6:src/../h/List.hpp **** #define PROJECT_BASE_V1_1_LIST_HPP
   7:src/../h/List.hpp **** 
   8:src/../h/List.hpp **** #include "MemoryAllocator.hpp"
   9:src/../h/List.hpp **** 
  10:src/../h/List.hpp **** template<typename T>
  11:src/../h/List.hpp **** class List
  12:src/../h/List.hpp **** {
  13:src/../h/List.hpp **** private:
  14:src/../h/List.hpp ****     struct Elem
  15:src/../h/List.hpp ****     {
  16:src/../h/List.hpp ****         T *data;
  17:src/../h/List.hpp ****         Elem *next;
  18:src/../h/List.hpp **** 
  19:src/../h/List.hpp ****         Elem(T *data, Elem *next) : data(data), next(next) {}
  20:src/../h/List.hpp **** 
  21:src/../h/List.hpp ****     };
  22:src/../h/List.hpp **** 
  23:src/../h/List.hpp ****     Elem *head, *tail;
  24:src/../h/List.hpp **** 
  25:src/../h/List.hpp **** public:
  26:src/../h/List.hpp ****     List() : head(0), tail(0) {}
 1313              		.loc 4 26 29
 1314 0394 23340500 		sd	zero,8(a0)
 1315 0398 23380500 		sd	zero,16(a0)
 1316              	.LVL83:
 1317              	.LBE290:
 1318              	.LBE289:
 1319              	.LBE288:
 1320              	.LBE287:
 158:src/Riscv.cpp ****             *arg1=sem;
 1321              		.loc 1 158 13 is_stmt 1
 158:src/Riscv.cpp ****             *arg1=sem;
 1322              		.loc 1 158 24 is_stmt 0
 1323 039c 93071000 		li	a5,1
 1324 03a0 2300F500 		sb	a5,0(a0)
 159:src/Riscv.cpp **** 
 1325              		.loc 1 159 13 is_stmt 1
GAS LISTING /tmp/cc4qqfw8.s 			page 38


 159:src/Riscv.cpp **** 
 1326              		.loc 1 159 18 is_stmt 0
 1327 03a4 23B0A900 		sd	a0,0(s3)
 161:src/Riscv.cpp ****             if(sem!= nullptr)ret=0;
 1328              		.loc 1 161 13 is_stmt 1
 1329              	.LVL84:
 162:src/Riscv.cpp ****             else ret=-1;
 1330              		.loc 1 162 13
 1331 03a8 630C0500 		beqz	a0,.L26
 162:src/Riscv.cpp ****             else ret=-1;
 1332              		.loc 1 162 33 is_stmt 0
 1333 03ac 93070000 		li	a5,0
 1334              	.L16:
 1335              	.LVL85:
 165:src/Riscv.cpp **** 
 1336              		.loc 1 165 13 is_stmt 1
 165:src/Riscv.cpp **** 
 1337              		.loc 1 165 56 is_stmt 0
 1338              	#APP
 1339              	# 165 "src/Riscv.cpp" 1
 167:src/Riscv.cpp ****             w_sepc(sepc);
 1340              		mv a0, a5
 1341              	# 0 "" 2
 1342              		.loc 1 167 13 is_stmt 1
 1343              	.LVL86:
 1344              	#NO_APP
 1345              	.LBB291:
 1346              	.LBB292:
 191:src/../h/Riscv.hpp **** }
 1347              		.loc 2 191 5
 191:src/../h/Riscv.hpp **** }
 1348              		.loc 2 191 77 is_stmt 0
 1349              	#APP
 1350              	# 191 "src/../h/Riscv.hpp" 1
 1351              		csrw sstatus, s2
 1352              	# 0 "" 2
 1353              	.LVL87:
 1354              	#NO_APP
 1355              	.LBE292:
 1356              	.LBE291:
 168:src/Riscv.cpp ****         }
 1357              		.loc 1 168 13 is_stmt 1
 1358              	.LBB293:
 1359              	.LBB294:
 121:src/../h/Riscv.hpp **** }
 1360              		.loc 2 121 5
 121:src/../h/Riscv.hpp **** }
 1361              		.loc 2 121 65 is_stmt 0
 1362              	#APP
 1363              	# 121 "src/../h/Riscv.hpp" 1
 122:src/../h/Riscv.hpp **** 
 1364              		csrw sepc, s1
 1365              	# 0 "" 2
 1366              		.loc 2 122 1
 1367              	#NO_APP
 1368 03bc 6FF05FCF 		j	.L3
 1369              	.LVL88:
GAS LISTING /tmp/cc4qqfw8.s 			page 39


 1370              	.L26:
 1371              	.LBE294:
 1372              	.LBE293:
 163:src/Riscv.cpp **** 
 1373              		.loc 1 163 21
 1374 03c0 9307F0FF 		li	a5,-1
 1375 03c4 6FF0DFFE 		j	.L16
 1376              	.LVL89:
 1377              	.L37:
 1378              	.LBE282:
 1379              	.LBB295:
 1380              	.LBB258:
 171:src/Riscv.cpp ****             uint64 sstatus = r_sstatus();
 1381              		.loc 1 171 13 is_stmt 1
 1382              	.LBB259:
 1383              	.LBB260:
 114:src/../h/Riscv.hpp ****     __asm__ volatile ("csrr %[sepc], sepc" : [sepc] "=r"(sepc));
 1384              		.loc 2 114 5
 115:src/../h/Riscv.hpp ****     return sepc;
 1385              		.loc 2 115 5
 115:src/../h/Riscv.hpp ****     return sepc;
 1386              		.loc 2 115 64 is_stmt 0
 1387              	#APP
 1388              	# 115 "src/../h/Riscv.hpp" 1
 1389              		csrr a5, sepc
 1390              	# 0 "" 2
 1391              	#NO_APP
 1392 03cc 233CF4F6 		sd	a5,-136(s0)
 116:src/../h/Riscv.hpp **** }
 1393              		.loc 2 116 5 is_stmt 1
 116:src/../h/Riscv.hpp **** }
 1394              		.loc 2 116 12 is_stmt 0
 1395 03d0 833984F7 		ld	s3,-136(s0)
 1396              	.LBE260:
 1397              	.LBE259:
 171:src/Riscv.cpp ****             uint64 sstatus = r_sstatus();
 1398              		.loc 1 171 38
 1399 03d4 93894900 		addi	s3,s3,4
 1400              	.LVL90:
 172:src/Riscv.cpp **** 
 1401              		.loc 1 172 13 is_stmt 1
 1402              	.LBB261:
 1403              	.LBB262:
 184:src/../h/Riscv.hpp ****     __asm__ volatile ("csrr %[sstatus], sstatus" : [sstatus] "=r"(sstatus));
 1404              		.loc 2 184 5
 185:src/../h/Riscv.hpp ****     return sstatus;
 1405              		.loc 2 185 5
 185:src/../h/Riscv.hpp ****     return sstatus;
 1406              		.loc 2 185 76 is_stmt 0
 1407              	#APP
 1408              	# 185 "src/../h/Riscv.hpp" 1
 1409              		csrr a5, sstatus
 1410              	# 0 "" 2
 1411              	#NO_APP
 1412 03dc 2338F4F6 		sd	a5,-144(s0)
 186:src/../h/Riscv.hpp **** }
 1413              		.loc 2 186 5 is_stmt 1
GAS LISTING /tmp/cc4qqfw8.s 			page 40


 186:src/../h/Riscv.hpp **** }
 1414              		.loc 2 186 12 is_stmt 0
 1415 03e0 033A04F7 		ld	s4,-144(s0)
 1416              	.LVL91:
 1417              	.LBE262:
 1418              	.LBE261:
 174:src/Riscv.cpp **** 
 1419              		.loc 1 174 13 is_stmt 1
 177:src/Riscv.cpp **** 
 1420              		.loc 1 177 13
 177:src/Riscv.cpp **** 
 1421              		.loc 1 177 48 is_stmt 0
 1422              	#APP
 1423              	# 177 "src/Riscv.cpp" 1
 179:src/Riscv.cpp **** 
 1424              		ld a1, 11*8(fp)
 1425              	# 0 "" 2
 1426              		.loc 1 179 13 is_stmt 1
 179:src/Riscv.cpp **** 
 1427              		.loc 1 179 56 is_stmt 0
 1428              	# 179 "src/Riscv.cpp" 1
 1429              		mv s1, a1
 1430              	# 0 "" 2
 1431              	.LVL92:
 181:src/Riscv.cpp ****             //deblock all blocked threads on this semaphore
 1432              		.loc 1 181 13 is_stmt 1
 1433              	#NO_APP
 1434 03ec 6F000003 		j	.L20
 1435              	.LVL93:
 1436              	.L19:
 1437              	.LBB263:
 1438              	.LBB264:
 1439              	.LBB265:
  27:src/../h/List.hpp **** 
  28:src/../h/List.hpp ****     List(const List<T> &) = delete;
  29:src/../h/List.hpp **** 
  30:src/../h/List.hpp ****     List<T> &operator=(const List<T> &) = delete;
  31:src/../h/List.hpp **** 
  32:src/../h/List.hpp ****     void* operator new(size_t n){
  33:src/../h/List.hpp ****         return MemoryAllocator::kmem_alloc(n);
  34:src/../h/List.hpp ****     }
  35:src/../h/List.hpp **** 
  36:src/../h/List.hpp ****     void operator delete(void* p){
  37:src/../h/List.hpp ****         MemoryAllocator::kmem_free(p);
  38:src/../h/List.hpp ****     }
  39:src/../h/List.hpp **** 
  40:src/../h/List.hpp ****     void addFirst(T *data)
  41:src/../h/List.hpp ****     {
  42:src/../h/List.hpp ****         Elem *elem = (Elem*)MemoryAllocator::kmem_alloc(sizeof (Elem));
  43:src/../h/List.hpp ****         elem->data=data;
  44:src/../h/List.hpp ****         elem->next=head;
  45:src/../h/List.hpp ****         head = elem;
  46:src/../h/List.hpp ****         if (!tail) { tail = head; }
  47:src/../h/List.hpp ****     }
  48:src/../h/List.hpp **** 
  49:src/../h/List.hpp ****     void addLast(T *data)
  50:src/../h/List.hpp ****     {
GAS LISTING /tmp/cc4qqfw8.s 			page 41


  51:src/../h/List.hpp ****         Elem *elem = (Elem*)MemoryAllocator::kmem_alloc(sizeof (Elem));
  52:src/../h/List.hpp ****         elem->data=data;
  53:src/../h/List.hpp ****         elem->next=0;
  54:src/../h/List.hpp ****         if (tail)
  55:src/../h/List.hpp ****         {
  56:src/../h/List.hpp ****             tail->next = elem;
  57:src/../h/List.hpp ****             tail = elem;
  58:src/../h/List.hpp ****         } else
  59:src/../h/List.hpp ****         {
  60:src/../h/List.hpp ****             head = tail = elem;
  61:src/../h/List.hpp ****         }
  62:src/../h/List.hpp ****     }
  63:src/../h/List.hpp **** 
  64:src/../h/List.hpp ****     T *removeFirst()
  65:src/../h/List.hpp ****     {
  66:src/../h/List.hpp ****         if (!head) { return 0; }
  67:src/../h/List.hpp **** 
  68:src/../h/List.hpp ****         Elem *elem = head;
  69:src/../h/List.hpp ****         head = head->next;
  70:src/../h/List.hpp ****         if (!head) { tail = 0; }
  71:src/../h/List.hpp **** 
  72:src/../h/List.hpp ****         T *ret = elem->data;
 1440              		.loc 4 72 12 is_stmt 0
 1441 03f0 03390500 		ld	s2,0(a0)
 1442              	.LVL94:
  73:src/../h/List.hpp ****         MemoryAllocator::kmem_free(elem);
 1443              		.loc 4 73 35
 1444 03f4 97000000 		call	_ZN15MemoryAllocator9kmem_freeEPv@plt
 1444      E7800000 
 1445              	.LVL95:
 1446              	.LBE265:
 1447              	.LBE264:
 185:src/Riscv.cpp ****                 sem->val++;
 1448              		.loc 1 185 17 is_stmt 1
 1449              	.LBB267:
 1450              	.LBB268:
 1451              		.file 5 "src/../h/_thread.hpp"
   1:src/../h/_thread.hpp **** //
   2:src/../h/_thread.hpp **** // Created by os on 6/20/22.
   3:src/../h/_thread.hpp **** //
   4:src/../h/_thread.hpp **** 
   5:src/../h/_thread.hpp **** #ifndef PROJECT_BASE_V1_1__THREAD_HPP
   6:src/../h/_thread.hpp **** #define PROJECT_BASE_V1_1__THREAD_HPP
   7:src/../h/_thread.hpp **** 
   8:src/../h/_thread.hpp **** #include "../lib/hw.h"
   9:src/../h/_thread.hpp **** #include "Scheduler.hpp"
  10:src/../h/_thread.hpp **** #include "MemoryAllocator.hpp"
  11:src/../h/_thread.hpp **** 
  12:src/../h/_thread.hpp **** class _thread {
  13:src/../h/_thread.hpp **** public:
  14:src/../h/_thread.hpp ****     ~_thread() {
  15:src/../h/_thread.hpp ****         MemoryAllocator::kmem_free(stack);
  16:src/../h/_thread.hpp ****     }
  17:src/../h/_thread.hpp **** 
  18:src/../h/_thread.hpp ****     bool isFinished() const { return finished; }
  19:src/../h/_thread.hpp **** 
  20:src/../h/_thread.hpp ****     void setFinished(bool value) { finished = value; }
GAS LISTING /tmp/cc4qqfw8.s 			page 42


  21:src/../h/_thread.hpp **** 
  22:src/../h/_thread.hpp ****     uint64 getTimeSlice() const { return timeSlice; }
  23:src/../h/_thread.hpp **** 
  24:src/../h/_thread.hpp ****     using Body = void (*)(void*);   //Body is a pointer to a funtion that takes one argument
  25:src/../h/_thread.hpp **** 
  26:src/../h/_thread.hpp ****     static _thread *createThread(Body body, void* arg, uint64* stek);
  27:src/../h/_thread.hpp **** 
  28:src/../h/_thread.hpp ****     static void yield();
  29:src/../h/_thread.hpp **** 
  30:src/../h/_thread.hpp ****     void setDeblocked(){
  31:src/../h/_thread.hpp ****         deblocked = true;
 1452              		.loc 5 31 9
 1453              		.loc 5 31 19 is_stmt 0
 1454 03fc 93071000 		li	a5,1
 1455 0400 230CF902 		sb	a5,56(s2)
 1456              	.LVL96:
 1457              	.LBE268:
 1458              	.LBE267:
 186:src/Riscv.cpp ****                 Scheduler::put(t);
 1459              		.loc 1 186 17 is_stmt 1
 186:src/Riscv.cpp ****                 Scheduler::put(t);
 1460              		.loc 1 186 22 is_stmt 0
 1461 0404 83A74400 		lw	a5,4(s1)
 186:src/Riscv.cpp ****                 Scheduler::put(t);
 1462              		.loc 1 186 25
 1463 0408 9B871700 		addiw	a5,a5,1
 1464 040c 23A2F400 		sw	a5,4(s1)
 187:src/Riscv.cpp ****             }
 1465              		.loc 1 187 17 is_stmt 1
 187:src/Riscv.cpp ****             }
 1466              		.loc 1 187 31 is_stmt 0
 1467 0410 13050900 		mv	a0,s2
 1468 0414 97000000 		call	_ZN9Scheduler3putEP7_thread@plt
 1468      E7800000 
 1469              	.LVL97:
 1470              	.L20:
 1471              	.LBE263:
 183:src/Riscv.cpp ****                 _thread* t = sem->blocked.removeFirst();
 1472              		.loc 1 183 13 is_stmt 1
 183:src/Riscv.cpp ****                 _thread* t = sem->blocked.removeFirst();
 1473              		.loc 1 183 43
 1474              	.LBB270:
 1475              	.LBB271:
  74:src/../h/List.hpp ****         return ret;
  75:src/../h/List.hpp ****     }
  76:src/../h/List.hpp **** 
  77:src/../h/List.hpp ****     T *peekFirst()
  78:src/../h/List.hpp ****     {
  79:src/../h/List.hpp ****         if (!head) { return 0; }
 1476              		.loc 4 79 14 is_stmt 0
 1477 041c 03B58400 		ld	a0,8(s1)
 1478              		.loc 4 79 9
 1479 0420 63000502 		beqz	a0,.L18
  80:src/../h/List.hpp ****         return head->data;
 1480              		.loc 4 80 22
 1481 0424 83370500 		ld	a5,0(a0)
 1482              	.LVL98:
GAS LISTING /tmp/cc4qqfw8.s 			page 43


 1483              	.LBE271:
 1484              	.LBE270:
 183:src/Riscv.cpp ****                 _thread* t = sem->blocked.removeFirst();
 1485              		.loc 1 183 43
 1486 0428 638C0700 		beqz	a5,.L18
 1487              	.LBB272:
 184:src/Riscv.cpp ****                 t->setDeblocked();
 1488              		.loc 1 184 17 is_stmt 1
 1489              	.LVL99:
 1490              	.LBB269:
 1491              	.LBB266:
  69:src/../h/List.hpp ****         if (!head) { tail = 0; }
 1492              		.loc 4 69 22 is_stmt 0
 1493 042c 83378500 		ld	a5,8(a0)
  69:src/../h/List.hpp ****         if (!head) { tail = 0; }
 1494              		.loc 4 69 9
 1495 0430 23B4F400 		sd	a5,8(s1)
  70:src/../h/List.hpp **** 
 1496              		.loc 4 70 9
 1497 0434 E39E07FA 		bnez	a5,.L19
  70:src/../h/List.hpp **** 
 1498              		.loc 4 70 22
 1499 0438 23B80400 		sd	zero,16(s1)
 1500 043c 6FF05FFB 		j	.L19
 1501              	.LVL100:
 1502              	.L18:
 1503              	.LBE266:
 1504              	.LBE269:
 1505              	.LBE272:
 189:src/Riscv.cpp **** 
 1506              		.loc 1 189 14 is_stmt 1
 189:src/Riscv.cpp **** 
 1507              		.loc 1 189 25 is_stmt 0
 1508 0440 23800400 		sb	zero,0(s1)
 191:src/Riscv.cpp **** 
 1509              		.loc 1 191 13 is_stmt 1
 191:src/Riscv.cpp **** 
 1510              		.loc 1 191 23 is_stmt 0
 1511 0444 63880400 		beqz	s1,.L21
 191:src/Riscv.cpp **** 
 1512              		.loc 1 191 20 discriminator 1
 1513 0448 13850400 		mv	a0,s1
 1514 044c 97000000 		call	_ZN10KSemaphoredlEPv@plt
 1514      E7800000 
 1515              	.LVL101:
 1516              	.L21:
 193:src/Riscv.cpp ****             w_sepc(sepc);
 1517              		.loc 1 193 13 is_stmt 1
 1518              	.LBB273:
 1519              	.LBB274:
 191:src/../h/Riscv.hpp **** }
 1520              		.loc 2 191 5
 191:src/../h/Riscv.hpp **** }
 1521              		.loc 2 191 77 is_stmt 0
 1522              	#APP
 1523              	# 191 "src/../h/Riscv.hpp" 1
 1524              		csrw sstatus, s4
GAS LISTING /tmp/cc4qqfw8.s 			page 44


 1525              	# 0 "" 2
 1526              	.LVL102:
 1527              	#NO_APP
 1528              	.LBE274:
 1529              	.LBE273:
 194:src/Riscv.cpp ****         }
 1530              		.loc 1 194 13 is_stmt 1
 1531              	.LBB275:
 1532              	.LBB276:
 121:src/../h/Riscv.hpp **** }
 1533              		.loc 2 121 5
 121:src/../h/Riscv.hpp **** }
 1534              		.loc 2 121 65 is_stmt 0
 1535              	#APP
 1536              	# 121 "src/../h/Riscv.hpp" 1
 122:src/../h/Riscv.hpp **** 
 1537              		csrw sepc, s3
 1538              	# 0 "" 2
 1539              		.loc 2 122 1
 1540              	#NO_APP
 1541 045c 6FF05FC5 		j	.L3
 1542              	.LVL103:
 1543              	.L38:
 1544              	.LBE276:
 1545              	.LBE275:
 1546              	.LBE258:
 1547              	.LBB277:
 1548              	.LBB245:
 197:src/Riscv.cpp ****             uint64 sstatus = r_sstatus();
 1549              		.loc 1 197 13 is_stmt 1
 1550              	.LBB246:
 1551              	.LBB247:
 114:src/../h/Riscv.hpp ****     __asm__ volatile ("csrr %[sepc], sepc" : [sepc] "=r"(sepc));
 1552              		.loc 2 114 5
 115:src/../h/Riscv.hpp ****     return sepc;
 1553              		.loc 2 115 5
 115:src/../h/Riscv.hpp ****     return sepc;
 1554              		.loc 2 115 64 is_stmt 0
 1555              	#APP
 1556              	# 115 "src/../h/Riscv.hpp" 1
 1557              		csrr a5, sepc
 1558              	# 0 "" 2
 1559              	#NO_APP
 1560 0464 2334F4F8 		sd	a5,-120(s0)
 116:src/../h/Riscv.hpp **** }
 1561              		.loc 2 116 5 is_stmt 1
 116:src/../h/Riscv.hpp **** }
 1562              		.loc 2 116 12 is_stmt 0
 1563 0468 833484F8 		ld	s1,-120(s0)
 1564              	.LVL104:
 1565              	.LBE247:
 1566              	.LBE246:
 197:src/Riscv.cpp ****             uint64 sstatus = r_sstatus();
 1567              		.loc 1 197 38
 1568 046c 93844400 		addi	s1,s1,4
 1569              	.LVL105:
 198:src/Riscv.cpp **** 
GAS LISTING /tmp/cc4qqfw8.s 			page 45


 1570              		.loc 1 198 13 is_stmt 1
 1571              	.LBB248:
 1572              	.LBB249:
 184:src/../h/Riscv.hpp ****     __asm__ volatile ("csrr %[sstatus], sstatus" : [sstatus] "=r"(sstatus));
 1573              		.loc 2 184 5
 185:src/../h/Riscv.hpp ****     return sstatus;
 1574              		.loc 2 185 5
 185:src/../h/Riscv.hpp ****     return sstatus;
 1575              		.loc 2 185 76 is_stmt 0
 1576              	#APP
 1577              	# 185 "src/../h/Riscv.hpp" 1
 1578              		csrr a5, sstatus
 1579              	# 0 "" 2
 1580              	#NO_APP
 1581 0474 2330F4F8 		sd	a5,-128(s0)
 186:src/../h/Riscv.hpp **** }
 1582              		.loc 2 186 5 is_stmt 1
 186:src/../h/Riscv.hpp **** }
 1583              		.loc 2 186 12 is_stmt 0
 1584 0478 033904F8 		ld	s2,-128(s0)
 1585              	.LVL106:
 1586              	.LBE249:
 1587              	.LBE248:
 200:src/Riscv.cpp **** 
 1588              		.loc 1 200 13 is_stmt 1
 202:src/Riscv.cpp **** 
 1589              		.loc 1 202 13
 202:src/Riscv.cpp **** 
 1590              		.loc 1 202 48 is_stmt 0
 1591              	#APP
 1592              	# 202 "src/Riscv.cpp" 1
 204:src/Riscv.cpp **** 
 1593              		ld a1, 11*8(fp)
 1594              	# 0 "" 2
 1595              		.loc 1 204 13 is_stmt 1
 204:src/Riscv.cpp **** 
 1596              		.loc 1 204 56 is_stmt 0
 1597              	# 204 "src/Riscv.cpp" 1
 1598              		mv a0, a1
 1599              	# 0 "" 2
 1600              	.LVL107:
 206:src/Riscv.cpp **** //            KSemaphore* sem = *arg1;
 1601              		.loc 1 206 13 is_stmt 1
 209:src/Riscv.cpp **** 
 1602              		.loc 1 209 18
 209:src/Riscv.cpp **** 
 1603              		.loc 1 209 34 is_stmt 0
 1604              	#NO_APP
 1605 0484 97000000 		call	_ZN10KSemaphore4waitEv@plt
 1605      E7800000 
 1606              	.LVL108:
 211:src/Riscv.cpp **** 
 1607              		.loc 1 211 13 is_stmt 1
 211:src/Riscv.cpp **** 
 1608              		.loc 1 211 56 is_stmt 0
 1609              	#APP
 1610              	# 211 "src/Riscv.cpp" 1
GAS LISTING /tmp/cc4qqfw8.s 			page 46


 213:src/Riscv.cpp ****             w_sepc(sepc);
 1611              		mv a0, a0
 1612              	# 0 "" 2
 1613              		.loc 1 213 13 is_stmt 1
 1614              	.LVL109:
 1615              	#NO_APP
 1616              	.LBB250:
 1617              	.LBB251:
 191:src/../h/Riscv.hpp **** }
 1618              		.loc 2 191 5
 191:src/../h/Riscv.hpp **** }
 1619              		.loc 2 191 77 is_stmt 0
 1620              	#APP
 1621              	# 191 "src/../h/Riscv.hpp" 1
 1622              		csrw sstatus, s2
 1623              	# 0 "" 2
 1624              	.LVL110:
 1625              	#NO_APP
 1626              	.LBE251:
 1627              	.LBE250:
 214:src/Riscv.cpp ****         }
 1628              		.loc 1 214 13 is_stmt 1
 1629              	.LBB252:
 1630              	.LBB253:
 121:src/../h/Riscv.hpp **** }
 1631              		.loc 2 121 5
 121:src/../h/Riscv.hpp **** }
 1632              		.loc 2 121 65 is_stmt 0
 1633              	#APP
 1634              	# 121 "src/../h/Riscv.hpp" 1
 122:src/../h/Riscv.hpp **** 
 1635              		csrw sepc, s1
 1636              	# 0 "" 2
 1637              		.loc 2 122 1
 1638              	#NO_APP
 1639 0498 6FF09FC1 		j	.L3
 1640              	.LVL111:
 1641              	.L39:
 1642              	.LBE253:
 1643              	.LBE252:
 1644              	.LBE245:
 1645              	.LBB254:
 1646              	.LBB233:
 217:src/Riscv.cpp ****             uint64 sstatus = r_sstatus();
 1647              		.loc 1 217 13 is_stmt 1
 1648              	.LBB234:
 1649              	.LBB235:
 114:src/../h/Riscv.hpp ****     __asm__ volatile ("csrr %[sepc], sepc" : [sepc] "=r"(sepc));
 1650              		.loc 2 114 5
 115:src/../h/Riscv.hpp ****     return sepc;
 1651              		.loc 2 115 5
 115:src/../h/Riscv.hpp ****     return sepc;
 1652              		.loc 2 115 64 is_stmt 0
 1653              	#APP
 1654              	# 115 "src/../h/Riscv.hpp" 1
 1655              		csrr a5, sepc
 1656              	# 0 "" 2
GAS LISTING /tmp/cc4qqfw8.s 			page 47


 1657              	#NO_APP
 1658 04a0 233CF4F8 		sd	a5,-104(s0)
 116:src/../h/Riscv.hpp **** }
 1659              		.loc 2 116 5 is_stmt 1
 116:src/../h/Riscv.hpp **** }
 1660              		.loc 2 116 12 is_stmt 0
 1661 04a4 833484F9 		ld	s1,-104(s0)
 1662              	.LVL112:
 1663              	.LBE235:
 1664              	.LBE234:
 217:src/Riscv.cpp ****             uint64 sstatus = r_sstatus();
 1665              		.loc 1 217 38
 1666 04a8 93844400 		addi	s1,s1,4
 1667              	.LVL113:
 218:src/Riscv.cpp **** 
 1668              		.loc 1 218 13 is_stmt 1
 1669              	.LBB236:
 1670              	.LBB237:
 184:src/../h/Riscv.hpp ****     __asm__ volatile ("csrr %[sstatus], sstatus" : [sstatus] "=r"(sstatus));
 1671              		.loc 2 184 5
 185:src/../h/Riscv.hpp ****     return sstatus;
 1672              		.loc 2 185 5
 185:src/../h/Riscv.hpp ****     return sstatus;
 1673              		.loc 2 185 76 is_stmt 0
 1674              	#APP
 1675              	# 185 "src/../h/Riscv.hpp" 1
 1676              		csrr a5, sstatus
 1677              	# 0 "" 2
 1678              	#NO_APP
 1679 04b0 2338F4F8 		sd	a5,-112(s0)
 186:src/../h/Riscv.hpp **** }
 1680              		.loc 2 186 5 is_stmt 1
 186:src/../h/Riscv.hpp **** }
 1681              		.loc 2 186 12 is_stmt 0
 1682 04b4 033904F9 		ld	s2,-112(s0)
 1683              	.LVL114:
 1684              	.LBE237:
 1685              	.LBE236:
 220:src/Riscv.cpp **** 
 1686              		.loc 1 220 13 is_stmt 1
 222:src/Riscv.cpp **** 
 1687              		.loc 1 222 13
 222:src/Riscv.cpp **** 
 1688              		.loc 1 222 48 is_stmt 0
 1689              	#APP
 1690              	# 222 "src/Riscv.cpp" 1
 224:src/Riscv.cpp **** 
 1691              		ld a1, 11*8(fp)
 1692              	# 0 "" 2
 1693              		.loc 1 224 13 is_stmt 1
 224:src/Riscv.cpp **** 
 1694              		.loc 1 224 56 is_stmt 0
 1695              	# 224 "src/Riscv.cpp" 1
 1696              		mv a0, a1
 1697              	# 0 "" 2
 1698              	.LVL115:
 226:src/Riscv.cpp **** 
GAS LISTING /tmp/cc4qqfw8.s 			page 48


 1699              		.loc 1 226 13 is_stmt 1
 228:src/Riscv.cpp ****                 ret=0;
 1700              		.loc 1 228 17
 228:src/Riscv.cpp ****                 ret=0;
 1701              		.loc 1 228 29 is_stmt 0
 1702              	#NO_APP
 1703 04c0 97000000 		call	_ZN10KSemaphore6signalEv@plt
 1703      E7800000 
 1704              	.LVL116:
 229:src/Riscv.cpp **** 
 1705              		.loc 1 229 17 is_stmt 1
 232:src/Riscv.cpp **** 
 1706              		.loc 1 232 13
 232:src/Riscv.cpp **** 
 1707              		.loc 1 232 56 is_stmt 0
 1708 04c8 93070000 		li	a5,0
 1709              	#APP
 1710              	# 232 "src/Riscv.cpp" 1
 234:src/Riscv.cpp ****             w_sepc(sepc);
 1711              		mv a0, a5
 1712              	# 0 "" 2
 1713              		.loc 1 234 13 is_stmt 1
 1714              	.LVL117:
 1715              	#NO_APP
 1716              	.LBB238:
 1717              	.LBB239:
 191:src/../h/Riscv.hpp **** }
 1718              		.loc 2 191 5
 191:src/../h/Riscv.hpp **** }
 1719              		.loc 2 191 77 is_stmt 0
 1720              	#APP
 1721              	# 191 "src/../h/Riscv.hpp" 1
 1722              		csrw sstatus, s2
 1723              	# 0 "" 2
 1724              	.LVL118:
 1725              	#NO_APP
 1726              	.LBE239:
 1727              	.LBE238:
 235:src/Riscv.cpp ****         }
 1728              		.loc 1 235 13 is_stmt 1
 1729              	.LBB240:
 1730              	.LBB241:
 121:src/../h/Riscv.hpp **** }
 1731              		.loc 2 121 5
 121:src/../h/Riscv.hpp **** }
 1732              		.loc 2 121 65 is_stmt 0
 1733              	#APP
 1734              	# 121 "src/../h/Riscv.hpp" 1
 122:src/../h/Riscv.hpp **** 
 1735              		csrw sepc, s1
 1736              	# 0 "" 2
 1737              		.loc 2 122 1
 1738              	#NO_APP
 1739 04d8 6FF09FBD 		j	.L3
 1740              	.LVL119:
 1741              	.L40:
 1742              	.LBE241:
GAS LISTING /tmp/cc4qqfw8.s 			page 49


 1743              	.LBE240:
 1744              	.LBE233:
 1745              	.LBB242:
 1746              	.LBB219:
 238:src/Riscv.cpp ****             uint64 sstatus = r_sstatus();
 1747              		.loc 1 238 13 is_stmt 1
 1748              	.LBB220:
 1749              	.LBB221:
 114:src/../h/Riscv.hpp ****     __asm__ volatile ("csrr %[sepc], sepc" : [sepc] "=r"(sepc));
 1750              		.loc 2 114 5
 115:src/../h/Riscv.hpp ****     return sepc;
 1751              		.loc 2 115 5
 115:src/../h/Riscv.hpp ****     return sepc;
 1752              		.loc 2 115 64 is_stmt 0
 1753              	#APP
 1754              	# 115 "src/../h/Riscv.hpp" 1
 1755              		csrr a5, sepc
 1756              	# 0 "" 2
 1757              	#NO_APP
 1758 04e0 2334F4FA 		sd	a5,-88(s0)
 116:src/../h/Riscv.hpp **** }
 1759              		.loc 2 116 5 is_stmt 1
 116:src/../h/Riscv.hpp **** }
 1760              		.loc 2 116 12 is_stmt 0
 1761 04e4 833484FA 		ld	s1,-88(s0)
 1762              	.LVL120:
 1763              	.LBE221:
 1764              	.LBE220:
 238:src/Riscv.cpp ****             uint64 sstatus = r_sstatus();
 1765              		.loc 1 238 38
 1766 04e8 93844400 		addi	s1,s1,4
 1767              	.LVL121:
 239:src/Riscv.cpp **** 
 1768              		.loc 1 239 13 is_stmt 1
 1769              	.LBB222:
 1770              	.LBB223:
 184:src/../h/Riscv.hpp ****     __asm__ volatile ("csrr %[sstatus], sstatus" : [sstatus] "=r"(sstatus));
 1771              		.loc 2 184 5
 185:src/../h/Riscv.hpp ****     return sstatus;
 1772              		.loc 2 185 5
 185:src/../h/Riscv.hpp ****     return sstatus;
 1773              		.loc 2 185 76 is_stmt 0
 1774              	#APP
 1775              	# 185 "src/../h/Riscv.hpp" 1
 1776              		csrr a5, sstatus
 1777              	# 0 "" 2
 1778              	#NO_APP
 1779 04f0 2330F4FA 		sd	a5,-96(s0)
 186:src/../h/Riscv.hpp **** }
 1780              		.loc 2 186 5 is_stmt 1
 186:src/../h/Riscv.hpp **** }
 1781              		.loc 2 186 12 is_stmt 0
 1782 04f4 033904FA 		ld	s2,-96(s0)
 1783              	.LVL122:
 1784              	.LBE223:
 1785              	.LBE222:
 242:src/Riscv.cpp ****             char c = __getc();
GAS LISTING /tmp/cc4qqfw8.s 			page 50


 1786              		.loc 1 242 13 is_stmt 1
 242:src/Riscv.cpp ****             char c = __getc();
 1787              		.loc 1 242 27 is_stmt 0
 1788 04f8 97070000 		la	a5,_ZN5Riscv11TrapConsoleEv
 1788      83B70700 
 1789              	.LVL123:
 1790              	.LBB224:
 1791              	.LBB225:
 133:src/../h/Riscv.hpp **** }
 1792              		.loc 2 133 5 is_stmt 1
 133:src/../h/Riscv.hpp **** }
 1793              		.loc 2 133 69 is_stmt 0
 1794              	#APP
 1795              	# 133 "src/../h/Riscv.hpp" 1
 1796              		csrw stvec, a5
 1797              	# 0 "" 2
 1798              	.LVL124:
 1799              	#NO_APP
 1800              	.LBE225:
 1801              	.LBE224:
 243:src/Riscv.cpp ****             Riscv::w_stvec((uint64)&Riscv::supervisorTrap);
 1802              		.loc 1 243 13 is_stmt 1
 243:src/Riscv.cpp ****             Riscv::w_stvec((uint64)&Riscv::supervisorTrap);
 1803              		.loc 1 243 28 is_stmt 0
 1804 0504 97000000 		call	__getc@plt
 1804      E7800000 
 1805              	.LVL125:
 244:src/Riscv.cpp **** 
 1806              		.loc 1 244 13 is_stmt 1
 244:src/Riscv.cpp **** 
 1807              		.loc 1 244 27 is_stmt 0
 1808 050c 97070000 		la	a5,_ZN5Riscv14supervisorTrapEv
 1808      83B70700 
 1809              	.LVL126:
 1810              	.LBB226:
 1811              	.LBB227:
 133:src/../h/Riscv.hpp **** }
 1812              		.loc 2 133 5 is_stmt 1
 133:src/../h/Riscv.hpp **** }
 1813              		.loc 2 133 69 is_stmt 0
 1814              	#APP
 1815              	# 133 "src/../h/Riscv.hpp" 1
 1816              		csrw stvec, a5
 1817              	# 0 "" 2
 1818              	.LVL127:
 1819              	#NO_APP
 1820              	.LBE227:
 1821              	.LBE226:
 246:src/Riscv.cpp **** 
 1822              		.loc 1 246 13 is_stmt 1
 246:src/Riscv.cpp **** 
 1823              		.loc 1 246 54 is_stmt 0
 1824              	#APP
 1825              	# 246 "src/Riscv.cpp" 1
 249:src/Riscv.cpp ****             w_sepc(sepc);
 1826              		mv a0, a0
 1827              	# 0 "" 2
GAS LISTING /tmp/cc4qqfw8.s 			page 51


 1828              		.loc 1 249 13 is_stmt 1
 1829              	.LVL128:
 1830              	#NO_APP
 1831              	.LBB228:
 1832              	.LBB229:
 191:src/../h/Riscv.hpp **** }
 1833              		.loc 2 191 5
 191:src/../h/Riscv.hpp **** }
 1834              		.loc 2 191 77 is_stmt 0
 1835              	#APP
 1836              	# 191 "src/../h/Riscv.hpp" 1
 1837              		csrw sstatus, s2
 1838              	# 0 "" 2
 1839              	.LVL129:
 1840              	#NO_APP
 1841              	.LBE229:
 1842              	.LBE228:
 250:src/Riscv.cpp ****         }
 1843              		.loc 1 250 13 is_stmt 1
 1844              	.LBB230:
 1845              	.LBB231:
 121:src/../h/Riscv.hpp **** }
 1846              		.loc 2 121 5
 121:src/../h/Riscv.hpp **** }
 1847              		.loc 2 121 65 is_stmt 0
 1848              	#APP
 1849              	# 121 "src/../h/Riscv.hpp" 1
 122:src/../h/Riscv.hpp **** 
 1850              		csrw sepc, s1
 1851              	# 0 "" 2
 1852              		.loc 2 122 1
 1853              	#NO_APP
 1854 0524 6FF0DFB8 		j	.L3
 1855              	.LBE231:
 1856              	.LBE230:
 1857              	.LBE219:
 1858              	.LBE242:
 1859              	.LBE254:
 1860              	.LBE277:
 1861              	.LBE295:
 1862              	.LBE310:
 1863              	.LBE326:
 1864              	.LBE343:
 1865              	.LBE361:
 1866              	.LBE380:
 1867              	.LBE392:
 1868              	.LBE405:
 1869              	.LBE419:
 1870              	.LBE436:
 1871              	.LBE452:
 1872              		.cfi_endproc
 1873              	.LFE53:
 1875              		.align	2
 1876              		.globl	_ZN5Riscv17handleTrapConsoleEv
 1878              	_ZN5Riscv17handleTrapConsoleEv:
 1879              	.LFB54:
 275:src/Riscv.cpp **** 
GAS LISTING /tmp/cc4qqfw8.s 			page 52


 276:src/Riscv.cpp **** 
 277:src/Riscv.cpp **** void Riscv::handleTrapConsole() {
 1880              		.loc 1 277 33 is_stmt 1
 1881              		.cfi_startproc
 1882 0528 130101FE 		addi	sp,sp,-32
 1883              		.cfi_def_cfa_offset 32
 1884 052c 233C1100 		sd	ra,24(sp)
 1885 0530 23388100 		sd	s0,16(sp)
 1886              		.cfi_offset 1, -8
 1887              		.cfi_offset 8, -16
 1888 0534 13040102 		addi	s0,sp,32
 1889              		.cfi_def_cfa 8, 0
 278:src/Riscv.cpp ****     uint64 scause = r_scause();
 1890              		.loc 1 278 5
 1891              	.LBB453:
 1892              	.LBB454:
 102:src/../h/Riscv.hpp ****     __asm__ volatile ("csrr %[scause], scause" : [scause] "=r"(scause));
 1893              		.loc 2 102 5
 103:src/../h/Riscv.hpp ****     return scause;
 1894              		.loc 2 103 5
 103:src/../h/Riscv.hpp ****     return scause;
 1895              		.loc 2 103 72 is_stmt 0
 1896              	#APP
 1897              	# 103 "src/../h/Riscv.hpp" 1
 1898              		csrr a5, scause
 1899              	# 0 "" 2
 1900              	#NO_APP
 1901 053c 2334F4FE 		sd	a5,-24(s0)
 104:src/../h/Riscv.hpp **** }
 1902              		.loc 2 104 5 is_stmt 1
 104:src/../h/Riscv.hpp **** }
 1903              		.loc 2 104 12 is_stmt 0
 1904 0540 033784FE 		ld	a4,-24(s0)
 1905              	.LVL130:
 1906              	.LBE454:
 1907              	.LBE453:
 279:src/Riscv.cpp ****     if (scause == 0x8000000000000009UL) {
 1908              		.loc 1 279 5 is_stmt 1
 1909 0544 9307F0FF 		li	a5,-1
 1910 0548 9397F703 		slli	a5,a5,63
 1911 054c 93879700 		addi	a5,a5,9
 1912 0550 6302F702 		beq	a4,a5,.L45
 280:src/Riscv.cpp ****         console_handler();
 281:src/Riscv.cpp ****         mc_sip(SIP_SEIP);
 282:src/Riscv.cpp ****     } else if (scause == 0x8000000000000001UL) {
 1913              		.loc 1 282 12
 1914 0554 9307F0FF 		li	a5,-1
 1915 0558 9397F703 		slli	a5,a5,63
 1916 055c 93871700 		addi	a5,a5,1
 1917 0560 6304F702 		beq	a4,a5,.L46
 1918              	.LVL131:
 1919              	.L41:
 283:src/Riscv.cpp ****         mc_sip(SIP_SSIP);
 284:src/Riscv.cpp ****     }
 285:src/Riscv.cpp **** 
 286:src/Riscv.cpp **** }
 1920              		.loc 1 286 1 is_stmt 0
GAS LISTING /tmp/cc4qqfw8.s 			page 53


 1921 0564 83308101 		ld	ra,24(sp)
 1922              		.cfi_remember_state
 1923              		.cfi_restore 1
 1924 0568 03340101 		ld	s0,16(sp)
 1925              		.cfi_restore 8
 1926              		.cfi_def_cfa 2, 32
 1927 056c 13010102 		addi	sp,sp,32
 1928              		.cfi_def_cfa_offset 0
 1929 0570 67800000 		jr	ra
 1930              	.LVL132:
 1931              	.L45:
 1932              		.cfi_restore_state
 280:src/Riscv.cpp ****         console_handler();
 1933              		.loc 1 280 9 is_stmt 1
 280:src/Riscv.cpp ****         console_handler();
 1934              		.loc 1 280 24 is_stmt 0
 1935 0574 97000000 		call	console_handler@plt
 1935      E7800000 
 1936              	.LVL133:
 281:src/Riscv.cpp ****     } else if (scause == 0x8000000000000001UL) {
 1937              		.loc 1 281 9 is_stmt 1
 1938              	.LBB455:
 1939              	.LBB456:
 155:src/../h/Riscv.hpp **** }
 1940              		.loc 2 155 5
 155:src/../h/Riscv.hpp **** }
 1941              		.loc 2 155 64 is_stmt 0
 1942 057c 93070020 		li	a5,512
 1943              	#APP
 1944              	# 155 "src/../h/Riscv.hpp" 1
 156:src/../h/Riscv.hpp **** 
 1945              		csrc sip, a5
 1946              	# 0 "" 2
 1947              		.loc 2 156 1
 1948              	#NO_APP
 1949 0584 6FF01FFE 		j	.L41
 1950              	.LVL134:
 1951              	.L46:
 1952              	.LBE456:
 1953              	.LBE455:
 283:src/Riscv.cpp ****     }
 1954              		.loc 1 283 9 is_stmt 1
 1955              	.LBB457:
 1956              	.LBB458:
 155:src/../h/Riscv.hpp **** }
 1957              		.loc 2 155 5
 155:src/../h/Riscv.hpp **** }
 1958              		.loc 2 155 64 is_stmt 0
 1959 0588 93072000 		li	a5,2
 1960              	#APP
 1961              	# 155 "src/../h/Riscv.hpp" 1
 1962              		csrc sip, a5
 1963              	# 0 "" 2
 1964              	.LVL135:
 1965              	#NO_APP
 1966              	.LBE458:
 1967              	.LBE457:
GAS LISTING /tmp/cc4qqfw8.s 			page 54


 1968              		.loc 1 286 1
 1969 0590 6FF05FFD 		j	.L41
 1970              		.cfi_endproc
 1971              	.LFE54:
 1973              		.globl	_ZN5Riscv9privilegeE
 1974              		.bss
 1975              		.set	.LANCHOR0,. + 0
 1978              	_ZN5Riscv9privilegeE:
 1979 0000 00       		.zero	1
 1980              		.text
 1981              	.Letext0:
 1982              		.file 6 "src/../h/../lib/hw.h"
 1983              		.file 7 "src/../h/DoublyLinkedList.hpp"
 1984              		.file 8 "src/../h/MemoryAllocator.hpp"
 1985              		.file 9 "src/../h/Scheduler.hpp"
 1986              		.file 10 "src/../h/../lib/console.h"
GAS LISTING /tmp/cc4qqfw8.s 			page 55


DEFINED SYMBOLS
                            *ABS*:0000000000000000 Riscv.cpp
     /tmp/cc4qqfw8.s:9      .text:0000000000000000 _ZN5Riscv10popSppSpieEv
     /tmp/cc4qqfw8.s:13     .text:0000000000000000 .L0 
     /tmp/cc4qqfw8.s:14     .text:0000000000000000 .L0 
     /tmp/cc4qqfw8.s:15     .text:0000000000000004 .L0 
     /tmp/cc4qqfw8.s:17     .text:0000000000000008 .L0 
     /tmp/cc4qqfw8.s:19     .text:000000000000000c .L0 
     /tmp/cc4qqfw8.s:21     .text:000000000000000c .L0 
       src/Riscv.cpp:16     .text:000000000000000c .L0 
     /tmp/cc4qqfw8.s:32     .text:0000000000000010 .L0 
     /tmp/cc4qqfw8.s:33     .text:0000000000000010 .L0 
     /tmp/cc4qqfw8.s:34     .text:0000000000000010 .L0 
     /tmp/cc4qqfw8.s:44     .text:0000000000000018 .L0 
       src/Riscv.cpp:18     .text:0000000000000018 .L0 
     /tmp/cc4qqfw8.s:51     .text:000000000000001c .L0 
     /tmp/cc4qqfw8.s:52     .text:0000000000000020 .L0 
     /tmp/cc4qqfw8.s:53     .text:0000000000000020 .L0 
     /tmp/cc4qqfw8.s:55     .text:0000000000000024 .L0 
     /tmp/cc4qqfw8.s:57     .text:0000000000000028 .L0 
     /tmp/cc4qqfw8.s:63     .text:0000000000000028 _ZN5Riscv20handleSupervisorTrapEv
     /tmp/cc4qqfw8.s:66     .text:0000000000000028 .L0 
     /tmp/cc4qqfw8.s:67     .text:0000000000000028 .L0 
     /tmp/cc4qqfw8.s:68     .text:000000000000002c .L0 
     /tmp/cc4qqfw8.s:77     .text:000000000000004c .L0 
     /tmp/cc4qqfw8.s:78     .text:000000000000004c .L0 
     /tmp/cc4qqfw8.s:79     .text:000000000000004c .L0 
     /tmp/cc4qqfw8.s:80     .text:000000000000004c .L0 
     /tmp/cc4qqfw8.s:81     .text:000000000000004c .L0 
     /tmp/cc4qqfw8.s:82     .text:000000000000004c .L0 
     /tmp/cc4qqfw8.s:83     .text:000000000000004c .L0 
     /tmp/cc4qqfw8.s:84     .text:000000000000004c .L0 
     /tmp/cc4qqfw8.s:86     .text:0000000000000050 .L0 
     /tmp/cc4qqfw8.s:90     .text:0000000000000050 .L0 
     /tmp/cc4qqfw8.s:91     .text:0000000000000050 .L0 
     /tmp/cc4qqfw8.s:92     .text:0000000000000050 .L0 
  src/../h/Riscv.hpp:103    .text:0000000000000050 .L0 
     /tmp/cc4qqfw8.s:100    .text:0000000000000058 .L0 
     /tmp/cc4qqfw8.s:101    .text:0000000000000058 .L0 
     /tmp/cc4qqfw8.s:106    .text:000000000000005c .L0 
     /tmp/cc4qqfw8.s:107    .text:000000000000005c .L0 
     /tmp/cc4qqfw8.s:108    .text:000000000000005c .L0 
       src/Riscv.cpp:27     .text:000000000000005c .L0 
     /tmp/cc4qqfw8.s:117    .text:0000000000000060 .L0 
     /tmp/cc4qqfw8.s:125    .text:0000000000000070 .L0 
     /tmp/cc4qqfw8.s:126    .text:0000000000000070 .L0 
     /tmp/cc4qqfw8.s:128    .text:0000000000000078 .L0 
     /tmp/cc4qqfw8.s:133    .text:000000000000007c .L0 
     /tmp/cc4qqfw8.s:134    .text:000000000000007c .L0 
     /tmp/cc4qqfw8.s:135    .text:000000000000007c .L0 
  src/../h/Riscv.hpp:115    .text:000000000000007c .L0 
     /tmp/cc4qqfw8.s:143    .text:0000000000000084 .L0 
     /tmp/cc4qqfw8.s:144    .text:0000000000000084 .L0 
     /tmp/cc4qqfw8.s:151    .text:0000000000000088 .L0 
     /tmp/cc4qqfw8.s:152    .text:0000000000000088 .L0 
     /tmp/cc4qqfw8.s:153    .text:0000000000000088 .L0 
     /tmp/cc4qqfw8.s:164    .text:0000000000000090 .L0 
GAS LISTING /tmp/cc4qqfw8.s 			page 56


     /tmp/cc4qqfw8.s:165    .text:0000000000000090 .L0 
     /tmp/cc4qqfw8.s:168    .text:000000000000009c .L0 
     /tmp/cc4qqfw8.s:169    .text:000000000000009c .L0 
     /tmp/cc4qqfw8.s:174    .text:00000000000000a0 .L0 
  src/../h/Riscv.hpp:121    .text:00000000000000a0 .L0 
     /tmp/cc4qqfw8.s:181    .text:00000000000000a4 .L0 
     /tmp/cc4qqfw8.s:191    .text:00000000000000a8 .L0 
     /tmp/cc4qqfw8.s:192    .text:00000000000000a8 .L0 
     /tmp/cc4qqfw8.s:193    .text:00000000000000a8 .L0 
     /tmp/cc4qqfw8.s:205    .text:00000000000000b0 .L0 
     /tmp/cc4qqfw8.s:206    .text:00000000000000b4 .L0 
     /tmp/cc4qqfw8.s:207    .text:00000000000000b4 .L0 
     /tmp/cc4qqfw8.s:209    .text:00000000000000b8 .L0 
     /tmp/cc4qqfw8.s:210    .text:00000000000000b8 .L0 
     /tmp/cc4qqfw8.s:212    .text:00000000000000bc .L0 
     /tmp/cc4qqfw8.s:214    .text:00000000000000c0 .L0 
     /tmp/cc4qqfw8.s:216    .text:00000000000000c4 .L0 
     /tmp/cc4qqfw8.s:218    .text:00000000000000c8 .L0 
     /tmp/cc4qqfw8.s:220    .text:00000000000000cc .L0 
     /tmp/cc4qqfw8.s:222    .text:00000000000000d0 .L0 
     /tmp/cc4qqfw8.s:224    .text:00000000000000d4 .L0 
     /tmp/cc4qqfw8.s:228    .text:00000000000000d8 .L0 
     /tmp/cc4qqfw8.s:233    .text:00000000000000d8 .L0 
     /tmp/cc4qqfw8.s:245    .text:00000000000000e8 .L0 
     /tmp/cc4qqfw8.s:246    .text:00000000000000e8 .L0 
     /tmp/cc4qqfw8.s:249    .text:00000000000000ec .L0 
     /tmp/cc4qqfw8.s:261    .text:00000000000000f4 .L0 
     /tmp/cc4qqfw8.s:276    .text:00000000000000fc .L0 
     /tmp/cc4qqfw8.s:290    .text:0000000000000104 .L0 
     /tmp/cc4qqfw8.s:306    .text:000000000000010c .L0 
     /tmp/cc4qqfw8.s:324    .text:0000000000000114 .L0 
     /tmp/cc4qqfw8.s:344    .text:000000000000011c .L0 
     /tmp/cc4qqfw8.s:366    .text:0000000000000124 .L0 
     /tmp/cc4qqfw8.s:390    .text:000000000000012c .L0 
     /tmp/cc4qqfw8.s:416    .text:0000000000000134 .L0 
     /tmp/cc4qqfw8.s:444    .text:000000000000013c .L0 
     /tmp/cc4qqfw8.s:474    .text:0000000000000144 .L0 
     /tmp/cc4qqfw8.s:506    .text:000000000000014c .L0 
     /tmp/cc4qqfw8.s:512    .text:0000000000000154 .L0 
     /tmp/cc4qqfw8.s:513    .text:0000000000000154 .L0 
     /tmp/cc4qqfw8.s:514    .text:0000000000000154 .L0 
  src/../h/Riscv.hpp:115    .text:0000000000000154 .L0 
     /tmp/cc4qqfw8.s:522    .text:000000000000015c .L0 
     /tmp/cc4qqfw8.s:523    .text:000000000000015c .L0 
     /tmp/cc4qqfw8.s:528    .text:0000000000000160 .L0 
     /tmp/cc4qqfw8.s:533    .text:0000000000000164 .L0 
     /tmp/cc4qqfw8.s:534    .text:0000000000000164 .L0 
     /tmp/cc4qqfw8.s:535    .text:0000000000000164 .L0 
  src/../h/Riscv.hpp:185    .text:0000000000000164 .L0 
     /tmp/cc4qqfw8.s:543    .text:000000000000016c .L0 
     /tmp/cc4qqfw8.s:544    .text:000000000000016c .L0 
     /tmp/cc4qqfw8.s:549    .text:0000000000000170 .L0 
     /tmp/cc4qqfw8.s:550    .text:0000000000000170 .L0 
       src/Riscv.cpp:257    .text:0000000000000170 .L0 
     /tmp/cc4qqfw8.s:556    .text:0000000000000174 .L0 
       src/Riscv.cpp:259    .text:0000000000000174 .L0 
     /tmp/cc4qqfw8.s:564    .text:000000000000017c .L0 
GAS LISTING /tmp/cc4qqfw8.s 			page 57


     /tmp/cc4qqfw8.s:565    .text:000000000000017c .L0 
     /tmp/cc4qqfw8.s:570    .text:0000000000000184 .L0 
  src/../h/Riscv.hpp:133    .text:0000000000000184 .L0 
     /tmp/cc4qqfw8.s:580    .text:0000000000000188 .L0 
     /tmp/cc4qqfw8.s:581    .text:0000000000000188 .L0 
     /tmp/cc4qqfw8.s:584    .text:0000000000000190 .L0 
     /tmp/cc4qqfw8.s:585    .text:0000000000000190 .L0 
     /tmp/cc4qqfw8.s:590    .text:0000000000000198 .L0 
  src/../h/Riscv.hpp:133    .text:0000000000000198 .L0 
     /tmp/cc4qqfw8.s:602    .text:000000000000019c .L0 
     /tmp/cc4qqfw8.s:603    .text:000000000000019c .L0 
  src/../h/Riscv.hpp:191    .text:000000000000019c .L0 
     /tmp/cc4qqfw8.s:615    .text:00000000000001a0 .L0 
     /tmp/cc4qqfw8.s:616    .text:00000000000001a0 .L0 
  src/../h/Riscv.hpp:121    .text:00000000000001a0 .L0 
     /tmp/cc4qqfw8.s:642    .text:00000000000001a4 .L0 
     /tmp/cc4qqfw8.s:649    .text:00000000000001a8 .L0 
     /tmp/cc4qqfw8.s:650    .text:00000000000001a8 .L0 
     /tmp/cc4qqfw8.s:661    .text:00000000000001b4 .L0 
     /tmp/cc4qqfw8.s:662    .text:00000000000001b4 .L0 
     /tmp/cc4qqfw8.s:663    .text:00000000000001b4 .L0 
  src/../h/Riscv.hpp:115    .text:00000000000001b4 .L0 
     /tmp/cc4qqfw8.s:671    .text:00000000000001bc .L0 
     /tmp/cc4qqfw8.s:672    .text:00000000000001bc .L0 
     /tmp/cc4qqfw8.s:676    .text:00000000000001c0 .L0 
     /tmp/cc4qqfw8.s:681    .text:00000000000001c4 .L0 
     /tmp/cc4qqfw8.s:682    .text:00000000000001c4 .L0 
     /tmp/cc4qqfw8.s:683    .text:00000000000001c4 .L0 
  src/../h/Riscv.hpp:185    .text:00000000000001c4 .L0 
     /tmp/cc4qqfw8.s:691    .text:00000000000001cc .L0 
     /tmp/cc4qqfw8.s:692    .text:00000000000001cc .L0 
     /tmp/cc4qqfw8.s:697    .text:00000000000001d0 .L0 
     /tmp/cc4qqfw8.s:698    .text:00000000000001d0 .L0 
     /tmp/cc4qqfw8.s:699    .text:00000000000001d0 .L0 
     /tmp/cc4qqfw8.s:700    .text:00000000000001d0 .L0 
       src/Riscv.cpp:55     .text:00000000000001d0 .L0 
     /tmp/cc4qqfw8.s:706    .text:00000000000001d4 .L0 
       src/Riscv.cpp:56     .text:00000000000001d4 .L0 
     /tmp/cc4qqfw8.s:711    .text:00000000000001d8 .L0 
       src/Riscv.cpp:57     .text:00000000000001d8 .L0 
     /tmp/cc4qqfw8.s:716    .text:00000000000001dc .L0 
       src/Riscv.cpp:60     .text:00000000000001dc .L0 
     /tmp/cc4qqfw8.s:722    .text:00000000000001e0 .L0 
       src/Riscv.cpp:61     .text:00000000000001e0 .L0 
     /tmp/cc4qqfw8.s:728    .text:00000000000001e4 .L0 
       src/Riscv.cpp:62     .text:00000000000001e4 .L0 
     /tmp/cc4qqfw8.s:734    .text:00000000000001e8 .L0 
     /tmp/cc4qqfw8.s:736    .text:00000000000001e8 .L0 
     /tmp/cc4qqfw8.s:742    .text:00000000000001f8 .L0 
     /tmp/cc4qqfw8.s:743    .text:00000000000001f8 .L0 
     /tmp/cc4qqfw8.s:749    .text:0000000000000208 .L0 
     /tmp/cc4qqfw8.s:750    .text:0000000000000208 .L0 
     /tmp/cc4qqfw8.s:752    .text:000000000000020c .L0 
     /tmp/cc4qqfw8.s:753    .text:000000000000020c .L0 
     /tmp/cc4qqfw8.s:755    .text:0000000000000210 .L0 
     /tmp/cc4qqfw8.s:759    .text:0000000000000214 .L0 
       src/Riscv.cpp:75     .text:0000000000000214 .L0 
GAS LISTING /tmp/cc4qqfw8.s 			page 58


     /tmp/cc4qqfw8.s:769    .text:0000000000000218 .L0 
     /tmp/cc4qqfw8.s:770    .text:0000000000000218 .L0 
  src/../h/Riscv.hpp:191    .text:0000000000000218 .L0 
     /tmp/cc4qqfw8.s:782    .text:000000000000021c .L0 
     /tmp/cc4qqfw8.s:783    .text:000000000000021c .L0 
  src/../h/Riscv.hpp:121    .text:000000000000021c .L0 
     /tmp/cc4qqfw8.s:790    .text:0000000000000220 .L0 
     /tmp/cc4qqfw8.s:796    .text:0000000000000224 .L0 
     /tmp/cc4qqfw8.s:807    .text:000000000000022c .L0 
     /tmp/cc4qqfw8.s:808    .text:000000000000022c .L0 
     /tmp/cc4qqfw8.s:809    .text:000000000000022c .L0 
  src/../h/Riscv.hpp:115    .text:000000000000022c .L0 
     /tmp/cc4qqfw8.s:817    .text:0000000000000234 .L0 
     /tmp/cc4qqfw8.s:818    .text:0000000000000234 .L0 
     /tmp/cc4qqfw8.s:823    .text:0000000000000238 .L0 
     /tmp/cc4qqfw8.s:828    .text:000000000000023c .L0 
     /tmp/cc4qqfw8.s:829    .text:000000000000023c .L0 
     /tmp/cc4qqfw8.s:830    .text:000000000000023c .L0 
  src/../h/Riscv.hpp:185    .text:000000000000023c .L0 
     /tmp/cc4qqfw8.s:838    .text:0000000000000244 .L0 
     /tmp/cc4qqfw8.s:839    .text:0000000000000244 .L0 
     /tmp/cc4qqfw8.s:844    .text:0000000000000248 .L0 
       src/Riscv.cpp:84     .text:0000000000000248 .L0 
     /tmp/cc4qqfw8.s:850    .text:000000000000024c .L0 
       src/Riscv.cpp:86     .text:000000000000024c .L0 
     /tmp/cc4qqfw8.s:856    .text:0000000000000250 .L0 
     /tmp/cc4qqfw8.s:858    .text:0000000000000250 .L0 
     /tmp/cc4qqfw8.s:863    .text:000000000000025c .L0 
       src/Riscv.cpp:90     .text:000000000000025c .L0 
     /tmp/cc4qqfw8.s:873    .text:0000000000000260 .L0 
     /tmp/cc4qqfw8.s:874    .text:0000000000000260 .L0 
  src/../h/Riscv.hpp:191    .text:0000000000000260 .L0 
     /tmp/cc4qqfw8.s:886    .text:0000000000000264 .L0 
     /tmp/cc4qqfw8.s:887    .text:0000000000000264 .L0 
  src/../h/Riscv.hpp:121    .text:0000000000000264 .L0 
     /tmp/cc4qqfw8.s:894    .text:0000000000000268 .L0 
     /tmp/cc4qqfw8.s:905    .text:000000000000026c .L0 
     /tmp/cc4qqfw8.s:906    .text:000000000000026c .L0 
     /tmp/cc4qqfw8.s:907    .text:000000000000026c .L0 
  src/../h/Riscv.hpp:115    .text:000000000000026c .L0 
     /tmp/cc4qqfw8.s:915    .text:0000000000000274 .L0 
     /tmp/cc4qqfw8.s:916    .text:0000000000000274 .L0 
     /tmp/cc4qqfw8.s:921    .text:0000000000000278 .L0 
     /tmp/cc4qqfw8.s:926    .text:000000000000027c .L0 
     /tmp/cc4qqfw8.s:927    .text:000000000000027c .L0 
     /tmp/cc4qqfw8.s:928    .text:000000000000027c .L0 
  src/../h/Riscv.hpp:185    .text:000000000000027c .L0 
     /tmp/cc4qqfw8.s:936    .text:0000000000000284 .L0 
     /tmp/cc4qqfw8.s:937    .text:0000000000000284 .L0 
     /tmp/cc4qqfw8.s:942    .text:0000000000000288 .L0 
       src/Riscv.cpp:99     .text:0000000000000288 .L0 
     /tmp/cc4qqfw8.s:948    .text:000000000000028c .L0 
       src/Riscv.cpp:101    .text:000000000000028c .L0 
     /tmp/cc4qqfw8.s:954    .text:0000000000000290 .L0 
     /tmp/cc4qqfw8.s:956    .text:0000000000000290 .L0 
     /tmp/cc4qqfw8.s:959    .text:0000000000000298 .L0 
       src/Riscv.cpp:103    .text:0000000000000298 .L0 
GAS LISTING /tmp/cc4qqfw8.s 			page 59


     /tmp/cc4qqfw8.s:969    .text:000000000000029c .L0 
     /tmp/cc4qqfw8.s:970    .text:000000000000029c .L0 
  src/../h/Riscv.hpp:191    .text:000000000000029c .L0 
     /tmp/cc4qqfw8.s:982    .text:00000000000002a0 .L0 
     /tmp/cc4qqfw8.s:983    .text:00000000000002a0 .L0 
  src/../h/Riscv.hpp:121    .text:00000000000002a0 .L0 
     /tmp/cc4qqfw8.s:990    .text:00000000000002a4 .L0 
     /tmp/cc4qqfw8.s:1001   .text:00000000000002a8 .L0 
     /tmp/cc4qqfw8.s:1002   .text:00000000000002a8 .L0 
     /tmp/cc4qqfw8.s:1003   .text:00000000000002a8 .L0 
  src/../h/Riscv.hpp:115    .text:00000000000002a8 .L0 
     /tmp/cc4qqfw8.s:1011   .text:00000000000002b0 .L0 
     /tmp/cc4qqfw8.s:1012   .text:00000000000002b0 .L0 
     /tmp/cc4qqfw8.s:1017   .text:00000000000002b4 .L0 
     /tmp/cc4qqfw8.s:1022   .text:00000000000002b8 .L0 
     /tmp/cc4qqfw8.s:1023   .text:00000000000002b8 .L0 
     /tmp/cc4qqfw8.s:1024   .text:00000000000002b8 .L0 
  src/../h/Riscv.hpp:185    .text:00000000000002b8 .L0 
     /tmp/cc4qqfw8.s:1032   .text:00000000000002c0 .L0 
     /tmp/cc4qqfw8.s:1033   .text:00000000000002c0 .L0 
     /tmp/cc4qqfw8.s:1038   .text:00000000000002c4 .L0 
     /tmp/cc4qqfw8.s:1039   .text:00000000000002c4 .L0 
     /tmp/cc4qqfw8.s:1042   .text:00000000000002d0 .L0 
     /tmp/cc4qqfw8.s:1045   .text:00000000000002d8 .L0 
     /tmp/cc4qqfw8.s:1046   .text:00000000000002d8 .L0 
     /tmp/cc4qqfw8.s:1051   .text:00000000000002e0 .L0 
     /tmp/cc4qqfw8.s:1052   .text:00000000000002e0 .L0 
  src/../h/Riscv.hpp:191    .text:00000000000002e0 .L0 
     /tmp/cc4qqfw8.s:1064   .text:00000000000002e4 .L0 
     /tmp/cc4qqfw8.s:1065   .text:00000000000002e4 .L0 
  src/../h/Riscv.hpp:121    .text:00000000000002e4 .L0 
     /tmp/cc4qqfw8.s:1072   .text:00000000000002e8 .L0 
     /tmp/cc4qqfw8.s:1083   .text:00000000000002ec .L0 
     /tmp/cc4qqfw8.s:1084   .text:00000000000002ec .L0 
     /tmp/cc4qqfw8.s:1085   .text:00000000000002ec .L0 
  src/../h/Riscv.hpp:115    .text:00000000000002ec .L0 
     /tmp/cc4qqfw8.s:1093   .text:00000000000002f4 .L0 
     /tmp/cc4qqfw8.s:1094   .text:00000000000002f4 .L0 
     /tmp/cc4qqfw8.s:1099   .text:00000000000002f8 .L0 
     /tmp/cc4qqfw8.s:1104   .text:00000000000002fc .L0 
     /tmp/cc4qqfw8.s:1105   .text:00000000000002fc .L0 
     /tmp/cc4qqfw8.s:1106   .text:00000000000002fc .L0 
  src/../h/Riscv.hpp:185    .text:00000000000002fc .L0 
     /tmp/cc4qqfw8.s:1114   .text:0000000000000304 .L0 
     /tmp/cc4qqfw8.s:1115   .text:0000000000000304 .L0 
     /tmp/cc4qqfw8.s:1120   .text:0000000000000308 .L0 
     /tmp/cc4qqfw8.s:1121   .text:0000000000000308 .L0 
     /tmp/cc4qqfw8.s:1126   .text:0000000000000310 .L0 
     /tmp/cc4qqfw8.s:1127   .text:0000000000000310 .L0 
  src/../h/Riscv.hpp:191    .text:0000000000000310 .L0 
     /tmp/cc4qqfw8.s:1139   .text:0000000000000314 .L0 
     /tmp/cc4qqfw8.s:1140   .text:0000000000000314 .L0 
  src/../h/Riscv.hpp:121    .text:0000000000000314 .L0 
     /tmp/cc4qqfw8.s:1147   .text:0000000000000318 .L0 
     /tmp/cc4qqfw8.s:1158   .text:000000000000031c .L0 
     /tmp/cc4qqfw8.s:1159   .text:000000000000031c .L0 
     /tmp/cc4qqfw8.s:1160   .text:000000000000031c .L0 
GAS LISTING /tmp/cc4qqfw8.s 			page 60


  src/../h/Riscv.hpp:115    .text:000000000000031c .L0 
     /tmp/cc4qqfw8.s:1168   .text:0000000000000324 .L0 
     /tmp/cc4qqfw8.s:1169   .text:0000000000000324 .L0 
     /tmp/cc4qqfw8.s:1174   .text:0000000000000328 .L0 
     /tmp/cc4qqfw8.s:1179   .text:000000000000032c .L0 
     /tmp/cc4qqfw8.s:1180   .text:000000000000032c .L0 
     /tmp/cc4qqfw8.s:1181   .text:000000000000032c .L0 
  src/../h/Riscv.hpp:185    .text:000000000000032c .L0 
     /tmp/cc4qqfw8.s:1189   .text:0000000000000334 .L0 
     /tmp/cc4qqfw8.s:1190   .text:0000000000000334 .L0 
     /tmp/cc4qqfw8.s:1195   .text:0000000000000338 .L0 
     /tmp/cc4qqfw8.s:1196   .text:0000000000000338 .L0 
     /tmp/cc4qqfw8.s:1199   .text:0000000000000344 .L0 
     /tmp/cc4qqfw8.s:1200   .text:0000000000000344 .L0 
     /tmp/cc4qqfw8.s:1205   .text:000000000000034c .L0 
     /tmp/cc4qqfw8.s:1206   .text:000000000000034c .L0 
  src/../h/Riscv.hpp:191    .text:000000000000034c .L0 
     /tmp/cc4qqfw8.s:1218   .text:0000000000000350 .L0 
     /tmp/cc4qqfw8.s:1219   .text:0000000000000350 .L0 
  src/../h/Riscv.hpp:121    .text:0000000000000350 .L0 
     /tmp/cc4qqfw8.s:1226   .text:0000000000000354 .L0 
     /tmp/cc4qqfw8.s:1237   .text:0000000000000358 .L0 
     /tmp/cc4qqfw8.s:1238   .text:0000000000000358 .L0 
     /tmp/cc4qqfw8.s:1239   .text:0000000000000358 .L0 
  src/../h/Riscv.hpp:115    .text:0000000000000358 .L0 
     /tmp/cc4qqfw8.s:1247   .text:0000000000000360 .L0 
     /tmp/cc4qqfw8.s:1248   .text:0000000000000360 .L0 
     /tmp/cc4qqfw8.s:1253   .text:0000000000000364 .L0 
     /tmp/cc4qqfw8.s:1258   .text:0000000000000368 .L0 
     /tmp/cc4qqfw8.s:1259   .text:0000000000000368 .L0 
     /tmp/cc4qqfw8.s:1260   .text:0000000000000368 .L0 
  src/../h/Riscv.hpp:185    .text:0000000000000368 .L0 
     /tmp/cc4qqfw8.s:1268   .text:0000000000000370 .L0 
     /tmp/cc4qqfw8.s:1269   .text:0000000000000370 .L0 
     /tmp/cc4qqfw8.s:1274   .text:0000000000000374 .L0 
     /tmp/cc4qqfw8.s:1275   .text:0000000000000374 .L0 
     /tmp/cc4qqfw8.s:1276   .text:0000000000000374 .L0 
       src/Riscv.cpp:151    .text:0000000000000374 .L0 
     /tmp/cc4qqfw8.s:1282   .text:0000000000000378 .L0 
       src/Riscv.cpp:152    .text:0000000000000378 .L0 
     /tmp/cc4qqfw8.s:1287   .text:000000000000037c .L0 
       src/Riscv.cpp:154    .text:000000000000037c .L0 
     /tmp/cc4qqfw8.s:1293   .text:0000000000000380 .L0 
       src/Riscv.cpp:155    .text:0000000000000380 .L0 
     /tmp/cc4qqfw8.s:1299   .text:0000000000000384 .L0 
     /tmp/cc4qqfw8.s:1301   .text:0000000000000384 .L0 
     /tmp/cc4qqfw8.s:1308   .text:0000000000000390 .L0 
     /tmp/cc4qqfw8.s:1314   .text:0000000000000394 .L0 
     /tmp/cc4qqfw8.s:1322   .text:000000000000039c .L0 
     /tmp/cc4qqfw8.s:1323   .text:000000000000039c .L0 
     /tmp/cc4qqfw8.s:1326   .text:00000000000003a4 .L0 
     /tmp/cc4qqfw8.s:1327   .text:00000000000003a4 .L0 
     /tmp/cc4qqfw8.s:1330   .text:00000000000003a8 .L0 
     /tmp/cc4qqfw8.s:1331   .text:00000000000003a8 .L0 
     /tmp/cc4qqfw8.s:1333   .text:00000000000003ac .L0 
     /tmp/cc4qqfw8.s:1337   .text:00000000000003b0 .L0 
       src/Riscv.cpp:165    .text:00000000000003b0 .L0 
GAS LISTING /tmp/cc4qqfw8.s 			page 61


     /tmp/cc4qqfw8.s:1347   .text:00000000000003b4 .L0 
     /tmp/cc4qqfw8.s:1348   .text:00000000000003b4 .L0 
  src/../h/Riscv.hpp:191    .text:00000000000003b4 .L0 
     /tmp/cc4qqfw8.s:1360   .text:00000000000003b8 .L0 
     /tmp/cc4qqfw8.s:1361   .text:00000000000003b8 .L0 
  src/../h/Riscv.hpp:121    .text:00000000000003b8 .L0 
     /tmp/cc4qqfw8.s:1368   .text:00000000000003bc .L0 
     /tmp/cc4qqfw8.s:1374   .text:00000000000003c0 .L0 
     /tmp/cc4qqfw8.s:1384   .text:00000000000003c8 .L0 
     /tmp/cc4qqfw8.s:1385   .text:00000000000003c8 .L0 
     /tmp/cc4qqfw8.s:1386   .text:00000000000003c8 .L0 
  src/../h/Riscv.hpp:115    .text:00000000000003c8 .L0 
     /tmp/cc4qqfw8.s:1394   .text:00000000000003d0 .L0 
     /tmp/cc4qqfw8.s:1395   .text:00000000000003d0 .L0 
     /tmp/cc4qqfw8.s:1399   .text:00000000000003d4 .L0 
     /tmp/cc4qqfw8.s:1404   .text:00000000000003d8 .L0 
     /tmp/cc4qqfw8.s:1405   .text:00000000000003d8 .L0 
     /tmp/cc4qqfw8.s:1406   .text:00000000000003d8 .L0 
  src/../h/Riscv.hpp:185    .text:00000000000003d8 .L0 
     /tmp/cc4qqfw8.s:1414   .text:00000000000003e0 .L0 
     /tmp/cc4qqfw8.s:1415   .text:00000000000003e0 .L0 
     /tmp/cc4qqfw8.s:1420   .text:00000000000003e4 .L0 
     /tmp/cc4qqfw8.s:1421   .text:00000000000003e4 .L0 
       src/Riscv.cpp:177    .text:00000000000003e4 .L0 
     /tmp/cc4qqfw8.s:1427   .text:00000000000003e8 .L0 
       src/Riscv.cpp:179    .text:00000000000003e8 .L0 
     /tmp/cc4qqfw8.s:1434   .text:00000000000003ec .L0 
     /tmp/cc4qqfw8.s:1441   .text:00000000000003f0 .L0 
     /tmp/cc4qqfw8.s:1444   .text:00000000000003f4 .L0 
     /tmp/cc4qqfw8.s:1452   .text:00000000000003fc .L0 
     /tmp/cc4qqfw8.s:1453   .text:00000000000003fc .L0 
     /tmp/cc4qqfw8.s:1454   .text:00000000000003fc .L0 
     /tmp/cc4qqfw8.s:1460   .text:0000000000000404 .L0 
     /tmp/cc4qqfw8.s:1461   .text:0000000000000404 .L0 
     /tmp/cc4qqfw8.s:1463   .text:0000000000000408 .L0 
     /tmp/cc4qqfw8.s:1466   .text:0000000000000410 .L0 
     /tmp/cc4qqfw8.s:1467   .text:0000000000000410 .L0 
     /tmp/cc4qqfw8.s:1473   .text:000000000000041c .L0 
     /tmp/cc4qqfw8.s:1476   .text:000000000000041c .L0 
     /tmp/cc4qqfw8.s:1477   .text:000000000000041c .L0 
     /tmp/cc4qqfw8.s:1479   .text:0000000000000420 .L0 
     /tmp/cc4qqfw8.s:1481   .text:0000000000000424 .L0 
     /tmp/cc4qqfw8.s:1486   .text:0000000000000428 .L0 
     /tmp/cc4qqfw8.s:1492   .text:000000000000042c .L0 
     /tmp/cc4qqfw8.s:1493   .text:000000000000042c .L0 
     /tmp/cc4qqfw8.s:1495   .text:0000000000000430 .L0 
     /tmp/cc4qqfw8.s:1497   .text:0000000000000434 .L0 
     /tmp/cc4qqfw8.s:1499   .text:0000000000000438 .L0 
     /tmp/cc4qqfw8.s:1507   .text:0000000000000440 .L0 
     /tmp/cc4qqfw8.s:1508   .text:0000000000000440 .L0 
     /tmp/cc4qqfw8.s:1510   .text:0000000000000444 .L0 
     /tmp/cc4qqfw8.s:1511   .text:0000000000000444 .L0 
     /tmp/cc4qqfw8.s:1513   .text:0000000000000448 .L0 
     /tmp/cc4qqfw8.s:1520   .text:0000000000000454 .L0 
     /tmp/cc4qqfw8.s:1521   .text:0000000000000454 .L0 
  src/../h/Riscv.hpp:191    .text:0000000000000454 .L0 
     /tmp/cc4qqfw8.s:1533   .text:0000000000000458 .L0 
GAS LISTING /tmp/cc4qqfw8.s 			page 62


     /tmp/cc4qqfw8.s:1534   .text:0000000000000458 .L0 
  src/../h/Riscv.hpp:121    .text:0000000000000458 .L0 
     /tmp/cc4qqfw8.s:1541   .text:000000000000045c .L0 
     /tmp/cc4qqfw8.s:1552   .text:0000000000000460 .L0 
     /tmp/cc4qqfw8.s:1553   .text:0000000000000460 .L0 
     /tmp/cc4qqfw8.s:1554   .text:0000000000000460 .L0 
  src/../h/Riscv.hpp:115    .text:0000000000000460 .L0 
     /tmp/cc4qqfw8.s:1562   .text:0000000000000468 .L0 
     /tmp/cc4qqfw8.s:1563   .text:0000000000000468 .L0 
     /tmp/cc4qqfw8.s:1568   .text:000000000000046c .L0 
     /tmp/cc4qqfw8.s:1573   .text:0000000000000470 .L0 
     /tmp/cc4qqfw8.s:1574   .text:0000000000000470 .L0 
     /tmp/cc4qqfw8.s:1575   .text:0000000000000470 .L0 
  src/../h/Riscv.hpp:185    .text:0000000000000470 .L0 
     /tmp/cc4qqfw8.s:1583   .text:0000000000000478 .L0 
     /tmp/cc4qqfw8.s:1584   .text:0000000000000478 .L0 
     /tmp/cc4qqfw8.s:1589   .text:000000000000047c .L0 
     /tmp/cc4qqfw8.s:1590   .text:000000000000047c .L0 
       src/Riscv.cpp:202    .text:000000000000047c .L0 
     /tmp/cc4qqfw8.s:1596   .text:0000000000000480 .L0 
       src/Riscv.cpp:204    .text:0000000000000480 .L0 
     /tmp/cc4qqfw8.s:1602   .text:0000000000000484 .L0 
     /tmp/cc4qqfw8.s:1603   .text:0000000000000484 .L0 
     /tmp/cc4qqfw8.s:1605   .text:0000000000000484 .L0 
     /tmp/cc4qqfw8.s:1608   .text:000000000000048c .L0 
       src/Riscv.cpp:211    .text:000000000000048c .L0 
     /tmp/cc4qqfw8.s:1618   .text:0000000000000490 .L0 
     /tmp/cc4qqfw8.s:1619   .text:0000000000000490 .L0 
  src/../h/Riscv.hpp:191    .text:0000000000000490 .L0 
     /tmp/cc4qqfw8.s:1631   .text:0000000000000494 .L0 
     /tmp/cc4qqfw8.s:1632   .text:0000000000000494 .L0 
  src/../h/Riscv.hpp:121    .text:0000000000000494 .L0 
     /tmp/cc4qqfw8.s:1639   .text:0000000000000498 .L0 
     /tmp/cc4qqfw8.s:1650   .text:000000000000049c .L0 
     /tmp/cc4qqfw8.s:1651   .text:000000000000049c .L0 
     /tmp/cc4qqfw8.s:1652   .text:000000000000049c .L0 
  src/../h/Riscv.hpp:115    .text:000000000000049c .L0 
     /tmp/cc4qqfw8.s:1660   .text:00000000000004a4 .L0 
     /tmp/cc4qqfw8.s:1661   .text:00000000000004a4 .L0 
     /tmp/cc4qqfw8.s:1666   .text:00000000000004a8 .L0 
     /tmp/cc4qqfw8.s:1671   .text:00000000000004ac .L0 
     /tmp/cc4qqfw8.s:1672   .text:00000000000004ac .L0 
     /tmp/cc4qqfw8.s:1673   .text:00000000000004ac .L0 
  src/../h/Riscv.hpp:185    .text:00000000000004ac .L0 
     /tmp/cc4qqfw8.s:1681   .text:00000000000004b4 .L0 
     /tmp/cc4qqfw8.s:1682   .text:00000000000004b4 .L0 
     /tmp/cc4qqfw8.s:1687   .text:00000000000004b8 .L0 
     /tmp/cc4qqfw8.s:1688   .text:00000000000004b8 .L0 
       src/Riscv.cpp:222    .text:00000000000004b8 .L0 
     /tmp/cc4qqfw8.s:1694   .text:00000000000004bc .L0 
       src/Riscv.cpp:224    .text:00000000000004bc .L0 
     /tmp/cc4qqfw8.s:1700   .text:00000000000004c0 .L0 
     /tmp/cc4qqfw8.s:1701   .text:00000000000004c0 .L0 
     /tmp/cc4qqfw8.s:1703   .text:00000000000004c0 .L0 
     /tmp/cc4qqfw8.s:1706   .text:00000000000004c8 .L0 
     /tmp/cc4qqfw8.s:1707   .text:00000000000004c8 .L0 
     /tmp/cc4qqfw8.s:1708   .text:00000000000004c8 .L0 
GAS LISTING /tmp/cc4qqfw8.s 			page 63


     /tmp/cc4qqfw8.s:1718   .text:00000000000004d0 .L0 
     /tmp/cc4qqfw8.s:1719   .text:00000000000004d0 .L0 
  src/../h/Riscv.hpp:191    .text:00000000000004d0 .L0 
     /tmp/cc4qqfw8.s:1731   .text:00000000000004d4 .L0 
     /tmp/cc4qqfw8.s:1732   .text:00000000000004d4 .L0 
  src/../h/Riscv.hpp:121    .text:00000000000004d4 .L0 
     /tmp/cc4qqfw8.s:1739   .text:00000000000004d8 .L0 
     /tmp/cc4qqfw8.s:1750   .text:00000000000004dc .L0 
     /tmp/cc4qqfw8.s:1751   .text:00000000000004dc .L0 
     /tmp/cc4qqfw8.s:1752   .text:00000000000004dc .L0 
  src/../h/Riscv.hpp:115    .text:00000000000004dc .L0 
     /tmp/cc4qqfw8.s:1760   .text:00000000000004e4 .L0 
     /tmp/cc4qqfw8.s:1761   .text:00000000000004e4 .L0 
     /tmp/cc4qqfw8.s:1766   .text:00000000000004e8 .L0 
     /tmp/cc4qqfw8.s:1771   .text:00000000000004ec .L0 
     /tmp/cc4qqfw8.s:1772   .text:00000000000004ec .L0 
     /tmp/cc4qqfw8.s:1773   .text:00000000000004ec .L0 
  src/../h/Riscv.hpp:185    .text:00000000000004ec .L0 
     /tmp/cc4qqfw8.s:1781   .text:00000000000004f4 .L0 
     /tmp/cc4qqfw8.s:1782   .text:00000000000004f4 .L0 
     /tmp/cc4qqfw8.s:1787   .text:00000000000004f8 .L0 
     /tmp/cc4qqfw8.s:1788   .text:00000000000004f8 .L0 
     /tmp/cc4qqfw8.s:1793   .text:0000000000000500 .L0 
  src/../h/Riscv.hpp:133    .text:0000000000000500 .L0 
     /tmp/cc4qqfw8.s:1803   .text:0000000000000504 .L0 
     /tmp/cc4qqfw8.s:1804   .text:0000000000000504 .L0 
     /tmp/cc4qqfw8.s:1807   .text:000000000000050c .L0 
     /tmp/cc4qqfw8.s:1808   .text:000000000000050c .L0 
     /tmp/cc4qqfw8.s:1813   .text:0000000000000514 .L0 
  src/../h/Riscv.hpp:133    .text:0000000000000514 .L0 
     /tmp/cc4qqfw8.s:1823   .text:0000000000000518 .L0 
       src/Riscv.cpp:246    .text:0000000000000518 .L0 
     /tmp/cc4qqfw8.s:1833   .text:000000000000051c .L0 
     /tmp/cc4qqfw8.s:1834   .text:000000000000051c .L0 
  src/../h/Riscv.hpp:191    .text:000000000000051c .L0 
     /tmp/cc4qqfw8.s:1846   .text:0000000000000520 .L0 
     /tmp/cc4qqfw8.s:1847   .text:0000000000000520 .L0 
  src/../h/Riscv.hpp:121    .text:0000000000000520 .L0 
     /tmp/cc4qqfw8.s:1854   .text:0000000000000524 .L0 
     /tmp/cc4qqfw8.s:1872   .text:0000000000000528 .L0 
     /tmp/cc4qqfw8.s:1878   .text:0000000000000528 _ZN5Riscv17handleTrapConsoleEv
     /tmp/cc4qqfw8.s:1881   .text:0000000000000528 .L0 
     /tmp/cc4qqfw8.s:1882   .text:0000000000000528 .L0 
     /tmp/cc4qqfw8.s:1883   .text:000000000000052c .L0 
     /tmp/cc4qqfw8.s:1886   .text:0000000000000534 .L0 
     /tmp/cc4qqfw8.s:1887   .text:0000000000000534 .L0 
     /tmp/cc4qqfw8.s:1889   .text:0000000000000538 .L0 
     /tmp/cc4qqfw8.s:1893   .text:0000000000000538 .L0 
     /tmp/cc4qqfw8.s:1894   .text:0000000000000538 .L0 
     /tmp/cc4qqfw8.s:1895   .text:0000000000000538 .L0 
  src/../h/Riscv.hpp:103    .text:0000000000000538 .L0 
     /tmp/cc4qqfw8.s:1903   .text:0000000000000540 .L0 
     /tmp/cc4qqfw8.s:1904   .text:0000000000000540 .L0 
     /tmp/cc4qqfw8.s:1909   .text:0000000000000544 .L0 
     /tmp/cc4qqfw8.s:1914   .text:0000000000000554 .L0 
     /tmp/cc4qqfw8.s:1921   .text:0000000000000564 .L0 
     /tmp/cc4qqfw8.s:1922   .text:0000000000000568 .L0 
GAS LISTING /tmp/cc4qqfw8.s 			page 64


     /tmp/cc4qqfw8.s:1923   .text:0000000000000568 .L0 
     /tmp/cc4qqfw8.s:1925   .text:000000000000056c .L0 
     /tmp/cc4qqfw8.s:1926   .text:000000000000056c .L0 
     /tmp/cc4qqfw8.s:1928   .text:0000000000000570 .L0 
     /tmp/cc4qqfw8.s:1932   .text:0000000000000574 .L0 
     /tmp/cc4qqfw8.s:1934   .text:0000000000000574 .L0 
     /tmp/cc4qqfw8.s:1935   .text:0000000000000574 .L0 
     /tmp/cc4qqfw8.s:1940   .text:000000000000057c .L0 
     /tmp/cc4qqfw8.s:1941   .text:000000000000057c .L0 
     /tmp/cc4qqfw8.s:1942   .text:000000000000057c .L0 
     /tmp/cc4qqfw8.s:1949   .text:0000000000000584 .L0 
     /tmp/cc4qqfw8.s:1957   .text:0000000000000588 .L0 
     /tmp/cc4qqfw8.s:1958   .text:0000000000000588 .L0 
     /tmp/cc4qqfw8.s:1959   .text:0000000000000588 .L0 
     /tmp/cc4qqfw8.s:1969   .text:0000000000000590 .L0 
     /tmp/cc4qqfw8.s:1970   .text:0000000000000594 .L0 
     /tmp/cc4qqfw8.s:1978   .bss:0000000000000000 _ZN5Riscv9privilegeE
     /tmp/cc4qqfw8.s:1975   .bss:0000000000000000 .LANCHOR0
     /tmp/cc4qqfw8.s:1987   .text:0000000000000594 .L0 
     /tmp/cc4qqfw8.s:126    .text:0000000000000070 .L0 
     /tmp/cc4qqfw8.s:166    .text:0000000000000094 .L0 
     /tmp/cc4qqfw8.s:565    .text:000000000000017c .L0 
     /tmp/cc4qqfw8.s:585    .text:0000000000000190 .L0 
     /tmp/cc4qqfw8.s:1039   .text:00000000000002c4 .L0 
     /tmp/cc4qqfw8.s:1196   .text:0000000000000338 .L0 
     /tmp/cc4qqfw8.s:1788   .text:00000000000004f8 .L0 
     /tmp/cc4qqfw8.s:1808   .text:000000000000050c .L0 
     /tmp/cc4qqfw8.s:183    .text:00000000000000a8 .L28
     /tmp/cc4qqfw8.s:227    .text:00000000000000d8 .L6
     /tmp/cc4qqfw8.s:200    .text:00000000000000b0 .L3
     /tmp/cc4qqfw8.s:644    .text:00000000000001a8 .L29
     /tmp/cc4qqfw8.s:654    .text:00000000000001b4 .L30
     /tmp/cc4qqfw8.s:799    .text:000000000000022c .L31
     /tmp/cc4qqfw8.s:896    .text:000000000000026c .L32
     /tmp/cc4qqfw8.s:992    .text:00000000000002a8 .L33
     /tmp/cc4qqfw8.s:1074   .text:00000000000002ec .L34
     /tmp/cc4qqfw8.s:1149   .text:000000000000031c .L35
     /tmp/cc4qqfw8.s:1228   .text:0000000000000358 .L36
     /tmp/cc4qqfw8.s:1377   .text:00000000000003c8 .L37
     /tmp/cc4qqfw8.s:1543   .text:0000000000000460 .L38
     /tmp/cc4qqfw8.s:1641   .text:000000000000049c .L39
     /tmp/cc4qqfw8.s:1741   .text:00000000000004dc .L40
     /tmp/cc4qqfw8.s:792    .text:0000000000000224 .L25
     /tmp/cc4qqfw8.s:264    .text:00000000000000fc .L8
     /tmp/cc4qqfw8.s:756    .text:0000000000000214 .L9
     /tmp/cc4qqfw8.s:1370   .text:00000000000003c0 .L26
     /tmp/cc4qqfw8.s:1334   .text:00000000000003b0 .L16
     /tmp/cc4qqfw8.s:1470   .text:000000000000041c .L20
     /tmp/cc4qqfw8.s:1502   .text:0000000000000440 .L18
     /tmp/cc4qqfw8.s:1436   .text:00000000000003f0 .L19
     /tmp/cc4qqfw8.s:1516   .text:0000000000000454 .L21
     /tmp/cc4qqfw8.s:1931   .text:0000000000000574 .L45
     /tmp/cc4qqfw8.s:1951   .text:0000000000000588 .L46
     /tmp/cc4qqfw8.s:1919   .text:0000000000000564 .L41
     /tmp/cc4qqfw8.s:5102   .debug_abbrev:0000000000000000 .Ldebug_abbrev0
     /tmp/cc4qqfw8.s:7432   .debug_str:0000000000000b3b .LASF216
     /tmp/cc4qqfw8.s:7138   .debug_str:0000000000000181 .LASF217
GAS LISTING /tmp/cc4qqfw8.s 			page 65


     /tmp/cc4qqfw8.s:7290   .debug_str:00000000000006bc .LASF218
     /tmp/cc4qqfw8.s:5      .text:0000000000000000 .Ltext0
     /tmp/cc4qqfw8.s:1981   .text:0000000000000594 .Letext0
     /tmp/cc4qqfw8.s:7080   .debug_line:0000000000000000 .Ldebug_line0
     /tmp/cc4qqfw8.s:7220   .debug_str:0000000000000452 .LASF0
     /tmp/cc4qqfw8.s:7264   .debug_str:000000000000060c .LASF1
     /tmp/cc4qqfw8.s:7364   .debug_str:0000000000000970 .LASF2
     /tmp/cc4qqfw8.s:7376   .debug_str:00000000000009de .LASF4
     /tmp/cc4qqfw8.s:7236   .debug_str:00000000000004c9 .LASF3
     /tmp/cc4qqfw8.s:7094   .debug_str:0000000000000057 .LASF5
     /tmp/cc4qqfw8.s:7320   .debug_str:00000000000007cb .LASF6
     /tmp/cc4qqfw8.s:7252   .debug_str:00000000000005aa .LASF7
     /tmp/cc4qqfw8.s:7188   .debug_str:0000000000000340 .LASF8
     /tmp/cc4qqfw8.s:7196   .debug_str:0000000000000382 .LASF9
     /tmp/cc4qqfw8.s:7124   .debug_str:000000000000011c .LASF10
     /tmp/cc4qqfw8.s:7176   .debug_str:00000000000002de .LASF11
     /tmp/cc4qqfw8.s:7140   .debug_str:000000000000018f .LASF12
     /tmp/cc4qqfw8.s:7122   .debug_str:000000000000010c .LASF13
     /tmp/cc4qqfw8.s:7406   .debug_str:0000000000000ab2 .LASF14
     /tmp/cc4qqfw8.s:7160   .debug_str:0000000000000232 .LASF15
     /tmp/cc4qqfw8.s:7396   .debug_str:0000000000000a7c .LASF16
     /tmp/cc4qqfw8.s:7482   .debug_str:0000000000000d5b .LASF70
     /tmp/cc4qqfw8.s:7344   .debug_str:00000000000008c1 .LASF20
     /tmp/cc4qqfw8.s:7270   .debug_str:0000000000000647 .LASF17
     /tmp/cc4qqfw8.s:7166   .debug_str:0000000000000286 .LASF18
     /tmp/cc4qqfw8.s:7498   .debug_str:0000000000000dc1 .LASF19
     /tmp/cc4qqfw8.s:7466   .debug_str:0000000000000cd3 .LASF21
     /tmp/cc4qqfw8.s:7170   .debug_str:000000000000029a .LASF22
     /tmp/cc4qqfw8.s:7430   .debug_str:0000000000000b2e .LASF23
     /tmp/cc4qqfw8.s:7146   .debug_str:00000000000001c4 .LASF24
     /tmp/cc4qqfw8.s:7390   .debug_str:0000000000000a4e .LASF152
     /tmp/cc4qqfw8.s:7208   .debug_str:00000000000003fb .LASF57
     /tmp/cc4qqfw8.s:7218   .debug_str:000000000000043a .LASF59
     /tmp/cc4qqfw8.s:7458   .debug_str:0000000000000c9f .LASF25
     /tmp/cc4qqfw8.s:7448   .debug_str:0000000000000c64 .LASF27
     /tmp/cc4qqfw8.s:7358   .debug_str:000000000000094a .LASF29
     /tmp/cc4qqfw8.s:7308   .debug_str:0000000000000760 .LASF31
     /tmp/cc4qqfw8.s:7336   .debug_str:0000000000000878 .LASF26
     /tmp/cc4qqfw8.s:7338   .debug_str:000000000000087f .LASF28
     /tmp/cc4qqfw8.s:7304   .debug_str:0000000000000745 .LASF30
     /tmp/cc4qqfw8.s:7256   .debug_str:00000000000005df .LASF32
     /tmp/cc4qqfw8.s:7494   .debug_str:0000000000000dad .LASF33
     /tmp/cc4qqfw8.s:7438   .debug_str:0000000000000c19 .LASF34
     /tmp/cc4qqfw8.s:7300   .debug_str:0000000000000738 .LASF35
     /tmp/cc4qqfw8.s:7306   .debug_str:000000000000074c .LASF36
     /tmp/cc4qqfw8.s:7272   .debug_str:0000000000000650 .LASF37
     /tmp/cc4qqfw8.s:7342   .debug_str:00000000000008ad .LASF38
     /tmp/cc4qqfw8.s:7522   .debug_str:0000000000000e8f .LASF39
     /tmp/cc4qqfw8.s:7226   .debug_str:000000000000046a .LASF40
     /tmp/cc4qqfw8.s:7402   .debug_str:0000000000000a9e .LASF41
     /tmp/cc4qqfw8.s:7380   .debug_str:0000000000000a0b .LASF42
     /tmp/cc4qqfw8.s:7382   .debug_str:0000000000000a1e .LASF43
     /tmp/cc4qqfw8.s:7130   .debug_str:000000000000013a .LASF44
     /tmp/cc4qqfw8.s:7156   .debug_str:000000000000020d .LASF45
     /tmp/cc4qqfw8.s:7214   .debug_str:0000000000000413 .LASF46
     /tmp/cc4qqfw8.s:7224   .debug_str:0000000000000464 .LASF47
     /tmp/cc4qqfw8.s:7148   .debug_str:00000000000001d0 .LASF48
GAS LISTING /tmp/cc4qqfw8.s 			page 66


     /tmp/cc4qqfw8.s:7096   .debug_str:000000000000005e .LASF49
     /tmp/cc4qqfw8.s:7370   .debug_str:0000000000000994 .LASF50
     /tmp/cc4qqfw8.s:7362   .debug_str:0000000000000965 .LASF51
     /tmp/cc4qqfw8.s:7514   .debug_str:0000000000000e44 .LASF52
     /tmp/cc4qqfw8.s:7486   .debug_str:0000000000000d66 .LASF53
     /tmp/cc4qqfw8.s:7500   .debug_str:0000000000000dca .LASF54
     /tmp/cc4qqfw8.s:7480   .debug_str:0000000000000d51 .LASF55
     /tmp/cc4qqfw8.s:7292   .debug_str:00000000000006ec .LASF56
     /tmp/cc4qqfw8.s:7492   .debug_str:0000000000000d9e .LASF58
     /tmp/cc4qqfw8.s:7194   .debug_str:0000000000000366 .LASF60
     /tmp/cc4qqfw8.s:7366   .debug_str:000000000000097e .LASF61
     /tmp/cc4qqfw8.s:7516   .debug_str:0000000000000e5c .LASF62
     /tmp/cc4qqfw8.s:7168   .debug_str:000000000000028f .LASF63
     /tmp/cc4qqfw8.s:7184   .debug_str:000000000000031e .LASF64
     /tmp/cc4qqfw8.s:7322   .debug_str:00000000000007de .LASF65
     /tmp/cc4qqfw8.s:7248   .debug_str:000000000000056b .LASF67
     /tmp/cc4qqfw8.s:7360   .debug_str:0000000000000953 .LASF66
     /tmp/cc4qqfw8.s:7158   .debug_str:0000000000000213 .LASF68
     /tmp/cc4qqfw8.s:7284   .debug_str:0000000000000696 .LASF69
     /tmp/cc4qqfw8.s:7490   .debug_str:0000000000000d7a .LASF71
     /tmp/cc4qqfw8.s:7476   .debug_str:0000000000000d2c .LASF105
     /tmp/cc4qqfw8.s:7262   .debug_str:0000000000000607 .LASF72
     /tmp/cc4qqfw8.s:7126   .debug_str:000000000000012b .LASF73
     /tmp/cc4qqfw8.s:7102   .debug_str:0000000000000089 .LASF74
     /tmp/cc4qqfw8.s:7232   .debug_str:000000000000048e .LASF107
     /tmp/cc4qqfw8.s:7400   .debug_str:0000000000000a99 .LASF75
     /tmp/cc4qqfw8.s:7302   .debug_str:0000000000000740 .LASF76
     /tmp/cc4qqfw8.s:7518   .debug_str:0000000000000e75 .LASF77
     /tmp/cc4qqfw8.s:7372   .debug_str:00000000000009ac .LASF80
     /tmp/cc4qqfw8.s:7174   .debug_str:00000000000002bd .LASF78
     /tmp/cc4qqfw8.s:7368   .debug_str:000000000000098a .LASF79
     /tmp/cc4qqfw8.s:7350   .debug_str:00000000000008f1 .LASF81
     /tmp/cc4qqfw8.s:7314   .debug_str:0000000000000798 .LASF82
     /tmp/cc4qqfw8.s:7496   .debug_str:0000000000000db5 .LASF83
     /tmp/cc4qqfw8.s:7294   .debug_str:0000000000000702 .LASF84
     /tmp/cc4qqfw8.s:7412   .debug_str:0000000000000ace .LASF85
     /tmp/cc4qqfw8.s:7116   .debug_str:00000000000000ce .LASF86
     /tmp/cc4qqfw8.s:7460   .debug_str:0000000000000ca8 .LASF87
     /tmp/cc4qqfw8.s:7162   .debug_str:0000000000000248 .LASF88
     /tmp/cc4qqfw8.s:7230   .debug_str:0000000000000484 .LASF89
     /tmp/cc4qqfw8.s:7330   .debug_str:000000000000081f .LASF90
     /tmp/cc4qqfw8.s:7426   .debug_str:0000000000000b1e .LASF144
     /tmp/cc4qqfw8.s:7242   .debug_str:000000000000051b .LASF91
     /tmp/cc4qqfw8.s:7464   .debug_str:0000000000000cb7 .LASF92
     /tmp/cc4qqfw8.s:7100   .debug_str:0000000000000070 .LASF93
     /tmp/cc4qqfw8.s:7134   .debug_str:000000000000016b .LASF94
     /tmp/cc4qqfw8.s:7442   .debug_str:0000000000000c37 .LASF95
     /tmp/cc4qqfw8.s:7348   .debug_str:00000000000008e9 .LASF96
     /tmp/cc4qqfw8.s:7186   .debug_str:0000000000000336 .LASF97
     /tmp/cc4qqfw8.s:7392   .debug_str:0000000000000a58 .LASF98
     /tmp/cc4qqfw8.s:7504   .debug_str:0000000000000df0 .LASF99
     /tmp/cc4qqfw8.s:7508   .debug_str:0000000000000e09 .LASF219
     /tmp/cc4qqfw8.s:7246   .debug_str:000000000000054f .LASF220
     /tmp/cc4qqfw8.s:7250   .debug_str:000000000000058d .LASF100
     /tmp/cc4qqfw8.s:7120   .debug_str:00000000000000f7 .LASF101
     /tmp/cc4qqfw8.s:7374   .debug_str:00000000000009c9 .LASF102
     /tmp/cc4qqfw8.s:7524   .debug_str:0000000000000e97 .LASF103
GAS LISTING /tmp/cc4qqfw8.s 			page 67


     /tmp/cc4qqfw8.s:7462   .debug_str:0000000000000cb2 .LASF106
     /tmp/cc4qqfw8.s:7260   .debug_str:0000000000000602 .LASF104
     /tmp/cc4qqfw8.s:7470   .debug_str:0000000000000cfd .LASF108
     /tmp/cc4qqfw8.s:7296   .debug_str:0000000000000726 .LASF109
     /tmp/cc4qqfw8.s:7318   .debug_str:00000000000007b4 .LASF110
     /tmp/cc4qqfw8.s:7340   .debug_str:0000000000000892 .LASF111
     /tmp/cc4qqfw8.s:7206   .debug_str:00000000000003e0 .LASF221
     /tmp/cc4qqfw8.s:7288   .debug_str:00000000000006af .LASF112
     /tmp/cc4qqfw8.s:7088   .debug_str:000000000000002b .LASF113
     /tmp/cc4qqfw8.s:7092   .debug_str:0000000000000047 .LASF114
     /tmp/cc4qqfw8.s:7244   .debug_str:0000000000000537 .LASF115
     /tmp/cc4qqfw8.s:7356   .debug_str:0000000000000941 .LASF116
     /tmp/cc4qqfw8.s:7512   .debug_str:0000000000000e23 .LASF117
     /tmp/cc4qqfw8.s:7278   .debug_str:0000000000000672 .LASF118
     /tmp/cc4qqfw8.s:7478   .debug_str:0000000000000d31 .LASF119
     /tmp/cc4qqfw8.s:7316   .debug_str:00000000000007a8 .LASF120
     /tmp/cc4qqfw8.s:7254   .debug_str:00000000000005bd .LASF121
     /tmp/cc4qqfw8.s:7526   .debug_str:0000000000000ea5 .LASF122
     /tmp/cc4qqfw8.s:7354   .debug_str:0000000000000922 .LASF123
     /tmp/cc4qqfw8.s:7388   .debug_str:0000000000000a43 .LASF124
     /tmp/cc4qqfw8.s:7178   .debug_str:00000000000002ed .LASF125
     /tmp/cc4qqfw8.s:7328   .debug_str:0000000000000816 .LASF126
     /tmp/cc4qqfw8.s:7132   .debug_str:000000000000014d .LASF127
     /tmp/cc4qqfw8.s:7104   .debug_str:000000000000008e .LASF128
     /tmp/cc4qqfw8.s:7506   .debug_str:0000000000000e02 .LASF129
     /tmp/cc4qqfw8.s:7118   .debug_str:00000000000000f1 .LASF130
     /tmp/cc4qqfw8.s:7110   .debug_str:00000000000000a7 .LASF131
     /tmp/cc4qqfw8.s:7324   .debug_str:00000000000007f3 .LASF132
     /tmp/cc4qqfw8.s:7416   .debug_str:0000000000000ae2 .LASF133
     /tmp/cc4qqfw8.s:7408   .debug_str:0000000000000abe .LASF134
     /tmp/cc4qqfw8.s:7258   .debug_str:00000000000005f2 .LASF135
     /tmp/cc4qqfw8.s:7418   .debug_str:0000000000000aea .LASF136
     /tmp/cc4qqfw8.s:7326   .debug_str:00000000000007fb .LASF137
     /tmp/cc4qqfw8.s:7108   .debug_str:000000000000009b .LASF138
     /tmp/cc4qqfw8.s:7468   .debug_str:0000000000000ce2 .LASF139
     /tmp/cc4qqfw8.s:7298   .debug_str:000000000000072b .LASF140
     /tmp/cc4qqfw8.s:7150   .debug_str:00000000000001e2 .LASF141
     /tmp/cc4qqfw8.s:7404   .debug_str:0000000000000aa5 .LASF142
     /tmp/cc4qqfw8.s:7378   .debug_str:00000000000009e5 .LASF143
     /tmp/cc4qqfw8.s:7310   .debug_str:0000000000000775 .LASF145
     /tmp/cc4qqfw8.s:7268   .debug_str:0000000000000641 .LASF146
     /tmp/cc4qqfw8.s:7084   .debug_str:0000000000000011 .LASF147
     /tmp/cc4qqfw8.s:7386   .debug_str:0000000000000a36 .LASF148
     /tmp/cc4qqfw8.s:7164   .debug_str:000000000000026a .LASF149
     /tmp/cc4qqfw8.s:7424   .debug_str:0000000000000b0f .LASF150
     /tmp/cc4qqfw8.s:7312   .debug_str:000000000000077a .LASF151
     /tmp/cc4qqfw8.s:7428   .debug_str:0000000000000b26 .LASF153
     /tmp/cc4qqfw8.s:7228   .debug_str:000000000000047e .LASF154
     /tmp/cc4qqfw8.s:7238   .debug_str:00000000000004db .LASF155
     /tmp/cc4qqfw8.s:7136   .debug_str:0000000000000174 .LASF156
     /tmp/cc4qqfw8.s:7444   .debug_str:0000000000000c40 .LASF157
     /tmp/cc4qqfw8.s:7352   .debug_str:0000000000000912 .LASF158
     /tmp/cc4qqfw8.s:7114   .debug_str:00000000000000be .LASF159
     /tmp/cc4qqfw8.s:7502   .debug_str:0000000000000de0 .LASF160
     /tmp/cc4qqfw8.s:7436   .debug_str:0000000000000c08 .LASF161
     /tmp/cc4qqfw8.s:7394   .debug_str:0000000000000a69 .LASF162
     /tmp/cc4qqfw8.s:7082   .debug_str:0000000000000000 .LASF163
GAS LISTING /tmp/cc4qqfw8.s 			page 68


     /tmp/cc4qqfw8.s:7202   .debug_str:00000000000003bd .LASF164
     /tmp/cc4qqfw8.s:7090   .debug_str:0000000000000042 .LASF165
     /tmp/cc4qqfw8.s:7510   .debug_str:0000000000000e1d .LASF166
     /tmp/cc4qqfw8.s:7446   .debug_str:0000000000000c5c .LASF167
     /tmp/cc4qqfw8.s:7440   .debug_str:0000000000000c2d .LASF168
     /tmp/cc4qqfw8.s:7414   .debug_str:0000000000000ad9 .LASF169
     /tmp/cc4qqfw8.s:7488   .debug_str:0000000000000d70 .LASF170
     /tmp/cc4qqfw8.s:7112   .debug_str:00000000000000b0 .LASF171
     /tmp/cc4qqfw8.s:7346   .debug_str:00000000000008cc .LASF172
     /tmp/cc4qqfw8.s:7142   .debug_str:000000000000019f .LASF173
     /tmp/cc4qqfw8.s:7240   .debug_str:00000000000004ef .LASF174
     /tmp/cc4qqfw8.s:7152   .debug_str:00000000000001ff .LASF175
     /tmp/cc4qqfw8.s:7144   .debug_str:00000000000001ad .LASF176
     /tmp/cc4qqfw8.s:7128   .debug_str:0000000000000130 .LASF177
     /tmp/cc4qqfw8.s:7266   .debug_str:000000000000061f .LASF178
     /tmp/cc4qqfw8.s:7384   .debug_str:0000000000000a25 .LASF179
     /tmp/cc4qqfw8.s:7434   .debug_str:0000000000000bff .LASF180
     /tmp/cc4qqfw8.s:7474   .debug_str:0000000000000d25 .LASF181
     /tmp/cc4qqfw8.s:7520   .debug_str:0000000000000e86 .LASF182
     /tmp/cc4qqfw8.s:7182   .debug_str:0000000000000313 .LASF183
     /tmp/cc4qqfw8.s:7198   .debug_str:0000000000000390 .LASF184
     /tmp/cc4qqfw8.s:7154   .debug_str:0000000000000208 .LASF185
     /tmp/cc4qqfw8.s:7450   .debug_str:0000000000000c79 .LASF186
     /tmp/cc4qqfw8.s:7410   .debug_str:0000000000000ac7 .LASF187
     /tmp/cc4qqfw8.s:7234   .debug_str:00000000000004b0 .LASF188
     /tmp/cc4qqfw8.s:7210   .debug_str:0000000000000406 .LASF189
     /tmp/cc4qqfw8.s:7200   .debug_str:00000000000003a4 .LASF190
     /tmp/cc4qqfw8.s:7286   .debug_str:000000000000069b .LASF191
     /tmp/cc4qqfw8.s:7276   .debug_str:000000000000065e .LASF192
     /tmp/cc4qqfw8.s:7216   .debug_str:0000000000000425 .LASF193
     /tmp/cc4qqfw8.s:7420   .debug_str:0000000000000af5 .LASF194
     /tmp/cc4qqfw8.s:7098   .debug_str:0000000000000069 .LASF195
     /tmp/cc4qqfw8.s:7332   .debug_str:000000000000085c .LASF196
     /tmp/cc4qqfw8.s:7190   .debug_str:0000000000000350 .LASF197
     /tmp/cc4qqfw8.s:7422   .debug_str:0000000000000b0a .LASF198
     /tmp/cc4qqfw8.s:7280   .debug_str:000000000000067a .LASF222
     /tmp/cc4qqfw8.s:7180   .debug_str:000000000000030e .LASF200
     /tmp/cc4qqfw8.s:7222   .debug_str:000000000000045f .LASF199
     /tmp/cc4qqfw8.s:7172   .debug_str:00000000000002a6 .LASF208
     /tmp/cc4qqfw8.s:1879   .text:0000000000000528 .LFB54
     /tmp/cc4qqfw8.s:1971   .text:0000000000000594 .LFE54
     /tmp/cc4qqfw8.s:7398   .debug_str:0000000000000a92 .LASF201
     /tmp/cc4qqfw8.s:6347   .debug_loc:0000000000000000 .LLST81
     /tmp/cc4qqfw8.s:1891   .text:0000000000000538 .LBB453
     /tmp/cc4qqfw8.s:1907   .text:0000000000000544 .LBE453
     /tmp/cc4qqfw8.s:1938   .text:000000000000057c .LBB455
     /tmp/cc4qqfw8.s:1953   .text:0000000000000588 .LBE455
     /tmp/cc4qqfw8.s:6362   .debug_loc:0000000000000049 .LLST82
     /tmp/cc4qqfw8.s:1955   .text:0000000000000588 .LBB457
     /tmp/cc4qqfw8.s:1967   .text:0000000000000590 .LBE457
     /tmp/cc4qqfw8.s:6371   .debug_loc:000000000000006f .LLST83
     /tmp/cc4qqfw8.s:1936   .text:000000000000057c .LVL133
     /tmp/cc4qqfw8.s:64     .text:0000000000000028 .LFB53
     /tmp/cc4qqfw8.s:1873   .text:0000000000000528 .LFE53
     /tmp/cc4qqfw8.s:6379   .debug_loc:0000000000000093 .LLST1
     /tmp/cc4qqfw8.s:7086   .debug_str:0000000000000025 .LASF202
     /tmp/cc4qqfw8.s:6410   .debug_loc:0000000000000119 .LLST2
GAS LISTING /tmp/cc4qqfw8.s 			page 69


     /tmp/cc4qqfw8.s:7452   .debug_str:0000000000000c90 .LASF203
     /tmp/cc4qqfw8.s:6461   .debug_loc:000000000000020d .LLST3
     /tmp/cc4qqfw8.s:129    .text:000000000000007c .LBB176
     /tmp/cc4qqfw8.s:186    .text:00000000000000a8 .LBE176
     /tmp/cc4qqfw8.s:7484   .debug_str:0000000000000d61 .LASF204
     /tmp/cc4qqfw8.s:6472   .debug_loc:0000000000000243 .LLST4
     /tmp/cc4qqfw8.s:131    .text:000000000000007c .LBB177
     /tmp/cc4qqfw8.s:147    .text:0000000000000088 .LBE177
     /tmp/cc4qqfw8.s:149    .text:0000000000000088 .LBB179
     /tmp/cc4qqfw8.s:162    .text:0000000000000090 .LBE179
     /tmp/cc4qqfw8.s:6485   .debug_loc:000000000000027b .LLST5
     /tmp/cc4qqfw8.s:171    .text:00000000000000a0 .LBB181
     /tmp/cc4qqfw8.s:185    .text:00000000000000a8 .LBE181
     /tmp/cc4qqfw8.s:6494   .debug_loc:00000000000002a1 .LLST6
     /tmp/cc4qqfw8.s:657    .text:00000000000001b4 .LBB186
     /tmp/cc4qqfw8.s:800    .text:000000000000022c .LBE186
     /tmp/cc4qqfw8.s:6501   .debug_loc:00000000000002c4 .LLST7
     /tmp/cc4qqfw8.s:7204   .debug_str:00000000000003d8 .LASF205
     /tmp/cc4qqfw8.s:6508   .debug_loc:00000000000002e7 .LLST8
     /tmp/cc4qqfw8.s:6515   .debug_loc:000000000000030a .LLST9
     /tmp/cc4qqfw8.s:7454   .debug_str:0000000000000c95 .LASF206
     /tmp/cc4qqfw8.s:6522   .debug_loc:000000000000032d .LLST10
     /tmp/cc4qqfw8.s:7456   .debug_str:0000000000000c9a .LASF207
     /tmp/cc4qqfw8.s:6529   .debug_loc:0000000000000350 .LLST11
     /tmp/cc4qqfw8.s:6536   .debug_loc:0000000000000373 .LLST12
     /tmp/cc4qqfw8.s:6547   .debug_loc:00000000000003a9 .LLST13
     /tmp/cc4qqfw8.s:6554   .debug_loc:00000000000003cc .LLST14
     /tmp/cc4qqfw8.s:659    .text:00000000000001b4 .LBB187
     /tmp/cc4qqfw8.s:674    .text:00000000000001c0 .LBE187
     /tmp/cc4qqfw8.s:679    .text:00000000000001c4 .LBB189
     /tmp/cc4qqfw8.s:695    .text:00000000000001d0 .LBE189
     /tmp/cc4qqfw8.s:767    .text:0000000000000218 .LBB191
     /tmp/cc4qqfw8.s:778    .text:000000000000021c .LBE191
     /tmp/cc4qqfw8.s:6561   .debug_loc:00000000000003ef .LLST15
     /tmp/cc4qqfw8.s:780    .text:000000000000021c .LBB193
     /tmp/cc4qqfw8.s:794    .text:0000000000000224 .LBE193
     /tmp/cc4qqfw8.s:6568   .debug_loc:0000000000000412 .LLST16
     /tmp/cc4qqfw8.s:738    .text:00000000000001f4 .LVL32
     /tmp/cc4qqfw8.s:747    .text:0000000000000208 .LVL35
     /tmp/cc4qqfw8.s:803    .text:000000000000022c .LBB371
     /tmp/cc4qqfw8.s:899    .text:000000000000026c .LBE371
     /tmp/cc4qqfw8.s:6575   .debug_loc:0000000000000435 .LLST75
     /tmp/cc4qqfw8.s:6582   .debug_loc:0000000000000458 .LLST76
     /tmp/cc4qqfw8.s:6589   .debug_loc:000000000000047b .LLST77
     /tmp/cc4qqfw8.s:805    .text:000000000000022c .LBB372
     /tmp/cc4qqfw8.s:821    .text:0000000000000238 .LBE372
     /tmp/cc4qqfw8.s:826    .text:000000000000023c .LBB374
     /tmp/cc4qqfw8.s:842    .text:0000000000000248 .LBE374
     /tmp/cc4qqfw8.s:871    .text:0000000000000260 .LBB376
     /tmp/cc4qqfw8.s:882    .text:0000000000000264 .LBE376
     /tmp/cc4qqfw8.s:6596   .debug_loc:000000000000049e .LLST78
     /tmp/cc4qqfw8.s:884    .text:0000000000000264 .LBB378
     /tmp/cc4qqfw8.s:898    .text:000000000000026c .LBE378
     /tmp/cc4qqfw8.s:6603   .debug_loc:00000000000004c1 .LLST79
     /tmp/cc4qqfw8.s:861    .text:000000000000025c .LVL46
     /tmp/cc4qqfw8.s:901    .text:000000000000026c .LBB352
     /tmp/cc4qqfw8.s:995    .text:00000000000002a8 .LBE352
GAS LISTING /tmp/cc4qqfw8.s 			page 70


     /tmp/cc4qqfw8.s:6610   .debug_loc:00000000000004e4 .LLST70
     /tmp/cc4qqfw8.s:6617   .debug_loc:0000000000000507 .LLST71
     /tmp/cc4qqfw8.s:6624   .debug_loc:000000000000052a .LLST72
     /tmp/cc4qqfw8.s:903    .text:000000000000026c .LBB353
     /tmp/cc4qqfw8.s:919    .text:0000000000000278 .LBE353
     /tmp/cc4qqfw8.s:924    .text:000000000000027c .LBB355
     /tmp/cc4qqfw8.s:940    .text:0000000000000288 .LBE355
     /tmp/cc4qqfw8.s:967    .text:000000000000029c .LBB357
     /tmp/cc4qqfw8.s:978    .text:00000000000002a0 .LBE357
     /tmp/cc4qqfw8.s:6631   .debug_loc:000000000000054d .LLST73
     /tmp/cc4qqfw8.s:980    .text:00000000000002a0 .LBB359
     /tmp/cc4qqfw8.s:994    .text:00000000000002a8 .LBE359
     /tmp/cc4qqfw8.s:6638   .debug_loc:0000000000000570 .LLST74
     /tmp/cc4qqfw8.s:957    .text:0000000000000298 .LVL54
     /tmp/cc4qqfw8.s:997    .text:00000000000002a8 .LBB334
     /tmp/cc4qqfw8.s:1077   .text:00000000000002ec .LBE334
     /tmp/cc4qqfw8.s:6645   .debug_loc:0000000000000593 .LLST66
     /tmp/cc4qqfw8.s:6652   .debug_loc:00000000000005b6 .LLST67
     /tmp/cc4qqfw8.s:999    .text:00000000000002a8 .LBB335
     /tmp/cc4qqfw8.s:1015   .text:00000000000002b4 .LBE335
     /tmp/cc4qqfw8.s:1020   .text:00000000000002b8 .LBB337
     /tmp/cc4qqfw8.s:1036   .text:00000000000002c4 .LBE337
     /tmp/cc4qqfw8.s:1049   .text:00000000000002e0 .LBB339
     /tmp/cc4qqfw8.s:1060   .text:00000000000002e4 .LBE339
     /tmp/cc4qqfw8.s:6659   .debug_loc:00000000000005d9 .LLST68
     /tmp/cc4qqfw8.s:1062   .text:00000000000002e4 .LBB341
     /tmp/cc4qqfw8.s:1076   .text:00000000000002ec .LBE341
     /tmp/cc4qqfw8.s:6666   .debug_loc:00000000000005fc .LLST69
     /tmp/cc4qqfw8.s:1047   .text:00000000000002e0 .LVL61
     /tmp/cc4qqfw8.s:1079   .text:00000000000002ec .LBB317
     /tmp/cc4qqfw8.s:1152   .text:000000000000031c .LBE317
     /tmp/cc4qqfw8.s:6673   .debug_loc:000000000000061f .LLST62
     /tmp/cc4qqfw8.s:6680   .debug_loc:0000000000000642 .LLST63
     /tmp/cc4qqfw8.s:1081   .text:00000000000002ec .LBB318
     /tmp/cc4qqfw8.s:1097   .text:00000000000002f8 .LBE318
     /tmp/cc4qqfw8.s:1102   .text:00000000000002fc .LBB320
     /tmp/cc4qqfw8.s:1118   .text:0000000000000308 .LBE320
     /tmp/cc4qqfw8.s:1124   .text:0000000000000310 .LBB322
     /tmp/cc4qqfw8.s:1135   .text:0000000000000314 .LBE322
     /tmp/cc4qqfw8.s:6687   .debug_loc:0000000000000665 .LLST64
     /tmp/cc4qqfw8.s:1137   .text:0000000000000314 .LBB324
     /tmp/cc4qqfw8.s:1151   .text:000000000000031c .LBE324
     /tmp/cc4qqfw8.s:6694   .debug_loc:0000000000000688 .LLST65
     /tmp/cc4qqfw8.s:1122   .text:0000000000000310 .LVL67
     /tmp/cc4qqfw8.s:1154   .text:000000000000031c .LBB301
     /tmp/cc4qqfw8.s:1231   .text:0000000000000358 .LBE301
     /tmp/cc4qqfw8.s:6701   .debug_loc:00000000000006ab .LLST58
     /tmp/cc4qqfw8.s:6708   .debug_loc:00000000000006ce .LLST59
     /tmp/cc4qqfw8.s:1156   .text:000000000000031c .LBB302
     /tmp/cc4qqfw8.s:1172   .text:0000000000000328 .LBE302
     /tmp/cc4qqfw8.s:1177   .text:000000000000032c .LBB304
     /tmp/cc4qqfw8.s:1193   .text:0000000000000338 .LBE304
     /tmp/cc4qqfw8.s:1203   .text:000000000000034c .LBB306
     /tmp/cc4qqfw8.s:1214   .text:0000000000000350 .LBE306
     /tmp/cc4qqfw8.s:6715   .debug_loc:00000000000006f1 .LLST60
     /tmp/cc4qqfw8.s:1216   .text:0000000000000350 .LBB308
     /tmp/cc4qqfw8.s:1230   .text:0000000000000358 .LBE308
GAS LISTING /tmp/cc4qqfw8.s 			page 71


     /tmp/cc4qqfw8.s:6722   .debug_loc:0000000000000714 .LLST61
     /tmp/cc4qqfw8.s:1201   .text:000000000000034c .LVL73
     /tmp/cc4qqfw8.s:1233   .text:0000000000000358 .LBB282
     /tmp/cc4qqfw8.s:1378   .text:00000000000003c8 .LBE282
     /tmp/cc4qqfw8.s:6729   .debug_loc:0000000000000737 .LLST47
     /tmp/cc4qqfw8.s:6736   .debug_loc:000000000000075a .LLST48
     /tmp/cc4qqfw8.s:6743   .debug_loc:000000000000077d .LLST49
     /tmp/cc4qqfw8.s:6750   .debug_loc:00000000000007a0 .LLST50
     /tmp/cc4qqfw8.s:6757   .debug_loc:00000000000007c3 .LLST51
     /tmp/cc4qqfw8.s:6764   .debug_loc:00000000000007e6 .LLST52
     /tmp/cc4qqfw8.s:1235   .text:0000000000000358 .LBB283
     /tmp/cc4qqfw8.s:1251   .text:0000000000000364 .LBE283
     /tmp/cc4qqfw8.s:1256   .text:0000000000000368 .LBB285
     /tmp/cc4qqfw8.s:1272   .text:0000000000000374 .LBE285
     /tmp/cc4qqfw8.s:1304   .text:0000000000000390 .LBB287
     /tmp/cc4qqfw8.s:1320   .text:000000000000039c .LBE287
     /tmp/cc4qqfw8.s:6781   .debug_loc:0000000000000831 .LLST53
     /tmp/cc4qqfw8.s:6788   .debug_loc:0000000000000854 .LLST54
     /tmp/cc4qqfw8.s:1310   .text:0000000000000394 .LBB289
     /tmp/cc4qqfw8.s:1318   .text:000000000000039c .LBE289
     /tmp/cc4qqfw8.s:6795   .debug_loc:0000000000000877 .LLST55
     /tmp/cc4qqfw8.s:1345   .text:00000000000003b4 .LBB291
     /tmp/cc4qqfw8.s:1356   .text:00000000000003b8 .LBE291
     /tmp/cc4qqfw8.s:6804   .debug_loc:000000000000089c .LLST56
     /tmp/cc4qqfw8.s:1358   .text:00000000000003b8 .LBB293
     /tmp/cc4qqfw8.s:1372   .text:00000000000003c0 .LBE293
     /tmp/cc4qqfw8.s:6811   .debug_loc:00000000000008bf .LLST57
     /tmp/cc4qqfw8.s:1303   .text:0000000000000390 .LVL81
     /tmp/cc4qqfw8.s:1380   .text:00000000000003c8 .LBB258
     /tmp/cc4qqfw8.s:1546   .text:0000000000000460 .LBE258
     /tmp/cc4qqfw8.s:6818   .debug_loc:00000000000008e2 .LLST35
     /tmp/cc4qqfw8.s:6825   .debug_loc:0000000000000905 .LLST36
     /tmp/cc4qqfw8.s:6832   .debug_loc:0000000000000928 .LLST37
     /tmp/cc4qqfw8.s:7066   .debug_ranges:0000000000000000 .Ldebug_ranges0
     /tmp/cc4qqfw8.s:6839   .debug_loc:000000000000094b .LLST39
     /tmp/cc4qqfw8.s:1438   .text:00000000000003f0 .LBB264
     /tmp/cc4qqfw8.s:6846   .debug_loc:000000000000096e .LLST40
     /tmp/cc4qqfw8.s:6861   .debug_loc:00000000000009a8 .LLST41
     /tmp/cc4qqfw8.s:6872   .debug_loc:00000000000009de .LLST42
     /tmp/cc4qqfw8.s:1445   .text:00000000000003fc .LVL95
     /tmp/cc4qqfw8.s:1449   .text:00000000000003fc .LBB267
     /tmp/cc4qqfw8.s:1458   .text:0000000000000404 .LBE267
     /tmp/cc4qqfw8.s:6879   .debug_loc:0000000000000a01 .LLST43
     /tmp/cc4qqfw8.s:1469   .text:000000000000041c .LVL97
     /tmp/cc4qqfw8.s:1382   .text:00000000000003c8 .LBB259
     /tmp/cc4qqfw8.s:1397   .text:00000000000003d4 .LBE259
     /tmp/cc4qqfw8.s:1402   .text:00000000000003d8 .LBB261
     /tmp/cc4qqfw8.s:1418   .text:00000000000003e4 .LBE261
     /tmp/cc4qqfw8.s:1474   .text:000000000000041c .LBB270
     /tmp/cc4qqfw8.s:1484   .text:0000000000000428 .LBE270
     /tmp/cc4qqfw8.s:6886   .debug_loc:0000000000000a24 .LLST44
     /tmp/cc4qqfw8.s:1518   .text:0000000000000454 .LBB273
     /tmp/cc4qqfw8.s:1529   .text:0000000000000458 .LBE273
     /tmp/cc4qqfw8.s:6895   .debug_loc:0000000000000a49 .LLST45
     /tmp/cc4qqfw8.s:1531   .text:0000000000000458 .LBB275
     /tmp/cc4qqfw8.s:1545   .text:0000000000000460 .LBE275
     /tmp/cc4qqfw8.s:6902   .debug_loc:0000000000000a6c .LLST46
GAS LISTING /tmp/cc4qqfw8.s 			page 72


     /tmp/cc4qqfw8.s:1515   .text:0000000000000454 .LVL101
     /tmp/cc4qqfw8.s:1548   .text:0000000000000460 .LBB245
     /tmp/cc4qqfw8.s:1644   .text:000000000000049c .LBE245
     /tmp/cc4qqfw8.s:6909   .debug_loc:0000000000000a8f .LLST29
     /tmp/cc4qqfw8.s:6916   .debug_loc:0000000000000ab2 .LLST30
     /tmp/cc4qqfw8.s:6923   .debug_loc:0000000000000ad5 .LLST31
     /tmp/cc4qqfw8.s:6930   .debug_loc:0000000000000af8 .LLST32
     /tmp/cc4qqfw8.s:1550   .text:0000000000000460 .LBB246
     /tmp/cc4qqfw8.s:1566   .text:000000000000046c .LBE246
     /tmp/cc4qqfw8.s:1571   .text:0000000000000470 .LBB248
     /tmp/cc4qqfw8.s:1587   .text:000000000000047c .LBE248
     /tmp/cc4qqfw8.s:1616   .text:0000000000000490 .LBB250
     /tmp/cc4qqfw8.s:1627   .text:0000000000000494 .LBE250
     /tmp/cc4qqfw8.s:6937   .debug_loc:0000000000000b1b .LLST33
     /tmp/cc4qqfw8.s:1629   .text:0000000000000494 .LBB252
     /tmp/cc4qqfw8.s:1643   .text:000000000000049c .LBE252
     /tmp/cc4qqfw8.s:6944   .debug_loc:0000000000000b3e .LLST34
     /tmp/cc4qqfw8.s:1606   .text:000000000000048c .LVL108
     /tmp/cc4qqfw8.s:1646   .text:000000000000049c .LBB233
     /tmp/cc4qqfw8.s:1744   .text:00000000000004dc .LBE233
     /tmp/cc4qqfw8.s:6951   .debug_loc:0000000000000b61 .LLST23
     /tmp/cc4qqfw8.s:6958   .debug_loc:0000000000000b84 .LLST24
     /tmp/cc4qqfw8.s:6965   .debug_loc:0000000000000ba7 .LLST25
     /tmp/cc4qqfw8.s:6972   .debug_loc:0000000000000bca .LLST26
     /tmp/cc4qqfw8.s:1648   .text:000000000000049c .LBB234
     /tmp/cc4qqfw8.s:1664   .text:00000000000004a8 .LBE234
     /tmp/cc4qqfw8.s:1669   .text:00000000000004ac .LBB236
     /tmp/cc4qqfw8.s:1685   .text:00000000000004b8 .LBE236
     /tmp/cc4qqfw8.s:1716   .text:00000000000004d0 .LBB238
     /tmp/cc4qqfw8.s:1727   .text:00000000000004d4 .LBE238
     /tmp/cc4qqfw8.s:6980   .debug_loc:0000000000000bee .LLST27
     /tmp/cc4qqfw8.s:1729   .text:00000000000004d4 .LBB240
     /tmp/cc4qqfw8.s:1743   .text:00000000000004dc .LBE240
     /tmp/cc4qqfw8.s:6987   .debug_loc:0000000000000c11 .LLST28
     /tmp/cc4qqfw8.s:1704   .text:00000000000004c8 .LVL116
     /tmp/cc4qqfw8.s:1746   .text:00000000000004dc .LBB219
     /tmp/cc4qqfw8.s:1857   .text:0000000000000528 .LBE219
     /tmp/cc4qqfw8.s:1748   .text:00000000000004dc .LBB220
     /tmp/cc4qqfw8.s:1764   .text:00000000000004e8 .LBE220
     /tmp/cc4qqfw8.s:1769   .text:00000000000004ec .LBB222
     /tmp/cc4qqfw8.s:1785   .text:00000000000004f8 .LBE222
     /tmp/cc4qqfw8.s:1790   .text:0000000000000500 .LBB224
     /tmp/cc4qqfw8.s:1801   .text:0000000000000504 .LBE224
     /tmp/cc4qqfw8.s:1810   .text:0000000000000514 .LBB226
     /tmp/cc4qqfw8.s:1821   .text:0000000000000518 .LBE226
     /tmp/cc4qqfw8.s:1831   .text:000000000000051c .LBB228
     /tmp/cc4qqfw8.s:1842   .text:0000000000000520 .LBE228
     /tmp/cc4qqfw8.s:6994   .debug_loc:0000000000000c34 .LLST22
     /tmp/cc4qqfw8.s:1844   .text:0000000000000520 .LBB230
     /tmp/cc4qqfw8.s:1856   .text:0000000000000528 .LBE230
     /tmp/cc4qqfw8.s:1805   .text:000000000000050c .LVL125
     /tmp/cc4qqfw8.s:508    .text:0000000000000154 .LBB206
     /tmp/cc4qqfw8.s:625    .text:00000000000001a4 .LBE206
     /tmp/cc4qqfw8.s:7001   .debug_loc:0000000000000c57 .LLST17
     /tmp/cc4qqfw8.s:7008   .debug_loc:0000000000000c7a .LLST18
     /tmp/cc4qqfw8.s:7015   .debug_loc:0000000000000c9d .LLST19
     /tmp/cc4qqfw8.s:510    .text:0000000000000154 .LBB207
GAS LISTING /tmp/cc4qqfw8.s 			page 73


     /tmp/cc4qqfw8.s:526    .text:0000000000000160 .LBE207
     /tmp/cc4qqfw8.s:531    .text:0000000000000164 .LBB209
     /tmp/cc4qqfw8.s:547    .text:0000000000000170 .LBE209
     /tmp/cc4qqfw8.s:567    .text:0000000000000184 .LBB211
     /tmp/cc4qqfw8.s:578    .text:0000000000000188 .LBE211
     /tmp/cc4qqfw8.s:587    .text:0000000000000198 .LBB213
     /tmp/cc4qqfw8.s:598    .text:000000000000019c .LBE213
     /tmp/cc4qqfw8.s:600    .text:000000000000019c .LBB215
     /tmp/cc4qqfw8.s:611    .text:00000000000001a0 .LBE215
     /tmp/cc4qqfw8.s:7022   .debug_loc:0000000000000cc0 .LLST20
     /tmp/cc4qqfw8.s:613    .text:00000000000001a0 .LBB217
     /tmp/cc4qqfw8.s:624    .text:00000000000001a4 .LBE217
     /tmp/cc4qqfw8.s:7029   .debug_loc:0000000000000ce3 .LLST21
     /tmp/cc4qqfw8.s:582    .text:0000000000000190 .LVL19
     /tmp/cc4qqfw8.s:88     .text:0000000000000050 .LBB172
     /tmp/cc4qqfw8.s:104    .text:000000000000005c .LBE172
     /tmp/cc4qqfw8.s:189    .text:00000000000000a8 .LBB420
     /tmp/cc4qqfw8.s:202    .text:00000000000000b0 .LBE420
     /tmp/cc4qqfw8.s:7036   .debug_loc:0000000000000d06 .LLST80
     /tmp/cc4qqfw8.s:651    .text:00000000000001b0 .LVL25
     /tmp/cc4qqfw8.s:10     .text:0000000000000000 .LFB52
     /tmp/cc4qqfw8.s:58     .text:0000000000000028 .LFE52
     /tmp/cc4qqfw8.s:29     .text:0000000000000010 .LBB170
     /tmp/cc4qqfw8.s:42     .text:0000000000000018 .LBE170
     /tmp/cc4qqfw8.s:7044   .debug_loc:0000000000000d2a .LLST0
     /tmp/cc4qqfw8.s:7106   .debug_str:0000000000000096 .LASF210
     /tmp/cc4qqfw8.s:7334   .debug_str:0000000000000864 .LASF209
     /tmp/cc4qqfw8.s:7472   .debug_str:0000000000000d20 .LASF211
     /tmp/cc4qqfw8.s:7274   .debug_str:0000000000000658 .LASF212
     /tmp/cc4qqfw8.s:7192   .debug_str:0000000000000356 .LASF213
     /tmp/cc4qqfw8.s:7212   .debug_str:000000000000040c .LASF214
     /tmp/cc4qqfw8.s:7282   .debug_str:000000000000068f .LASF215
     /tmp/cc4qqfw8.s:1905   .text:0000000000000544 .LVL130
     /tmp/cc4qqfw8.s:1918   .text:0000000000000564 .LVL131
     /tmp/cc4qqfw8.s:1930   .text:0000000000000574 .LVL132
     /tmp/cc4qqfw8.s:1950   .text:0000000000000588 .LVL134
     /tmp/cc4qqfw8.s:1964   .text:0000000000000590 .LVL135
     /tmp/cc4qqfw8.s:102    .text:000000000000005c .LVL2
     /tmp/cc4qqfw8.s:154    .text:000000000000008c .LVL5
     /tmp/cc4qqfw8.s:182    .text:00000000000000a8 .LVL8
     /tmp/cc4qqfw8.s:198    .text:00000000000000b0 .LVL9
     /tmp/cc4qqfw8.s:226    .text:00000000000000d8 .LVL10
     /tmp/cc4qqfw8.s:247    .text:00000000000000ec .LVL11
     /tmp/cc4qqfw8.s:263    .text:00000000000000fc .LVL12
     /tmp/cc4qqfw8.s:643    .text:00000000000001a8 .LVL24
     /tmp/cc4qqfw8.s:653    .text:00000000000001b4 .LVL26
     /tmp/cc4qqfw8.s:113    .text:0000000000000060 .LVL3
     /tmp/cc4qqfw8.s:524    .text:0000000000000160 .LVL13
     /tmp/cc4qqfw8.s:819    .text:0000000000000238 .LVL41
     /tmp/cc4qqfw8.s:895    .text:000000000000026c .LVL49
     /tmp/cc4qqfw8.s:917    .text:0000000000000278 .LVL50
     /tmp/cc4qqfw8.s:991    .text:00000000000002a8 .LVL57
     /tmp/cc4qqfw8.s:1013   .text:00000000000002b4 .LVL58
     /tmp/cc4qqfw8.s:1073   .text:00000000000002ec .LVL63
     /tmp/cc4qqfw8.s:1095   .text:00000000000002f8 .LVL64
     /tmp/cc4qqfw8.s:1148   .text:000000000000031c .LVL69
     /tmp/cc4qqfw8.s:1170   .text:0000000000000328 .LVL70
GAS LISTING /tmp/cc4qqfw8.s 			page 74


     /tmp/cc4qqfw8.s:1227   .text:0000000000000358 .LVL75
     /tmp/cc4qqfw8.s:1249   .text:0000000000000364 .LVL76
     /tmp/cc4qqfw8.s:1376   .text:00000000000003c8 .LVL89
     /tmp/cc4qqfw8.s:1431   .text:00000000000003ec .LVL92
     /tmp/cc4qqfw8.s:1542   .text:0000000000000460 .LVL103
     /tmp/cc4qqfw8.s:1564   .text:000000000000046c .LVL104
     /tmp/cc4qqfw8.s:1640   .text:000000000000049c .LVL111
     /tmp/cc4qqfw8.s:1662   .text:00000000000004a8 .LVL112
     /tmp/cc4qqfw8.s:1740   .text:00000000000004dc .LVL119
     /tmp/cc4qqfw8.s:1762   .text:00000000000004e8 .LVL120
     /tmp/cc4qqfw8.s:854    .text:0000000000000250 .LVL44
     /tmp/cc4qqfw8.s:859    .text:0000000000000254 .LVL45
     /tmp/cc4qqfw8.s:952    .text:0000000000000290 .LVL53
     /tmp/cc4qqfw8.s:145    .text:0000000000000088 .LVL4
     /tmp/cc4qqfw8.s:170    .text:00000000000000a0 .LVL7
     /tmp/cc4qqfw8.s:159    .text:0000000000000090 .LVL6
     /tmp/cc4qqfw8.s:677    .text:00000000000001c4 .LVL27
     /tmp/cc4qqfw8.s:798    .text:000000000000022c .LVL40
     /tmp/cc4qqfw8.s:693    .text:00000000000001d0 .LVL28
     /tmp/cc4qqfw8.s:720    .text:00000000000001e0 .LVL29
     /tmp/cc4qqfw8.s:726    .text:00000000000001e4 .LVL30
     /tmp/cc4qqfw8.s:732    .text:00000000000001e8 .LVL31
     /tmp/cc4qqfw8.s:740    .text:00000000000001f8 .LVL33
     /tmp/cc4qqfw8.s:745    .text:0000000000000200 .LVL34
     /tmp/cc4qqfw8.s:757    .text:0000000000000214 .LVL36
     /tmp/cc4qqfw8.s:791    .text:0000000000000224 .LVL39
     /tmp/cc4qqfw8.s:765    .text:0000000000000218 .LVL37
     /tmp/cc4qqfw8.s:775    .text:000000000000021c .LVL38
     /tmp/cc4qqfw8.s:824    .text:000000000000023c .LVL42
     /tmp/cc4qqfw8.s:840    .text:0000000000000248 .LVL43
     /tmp/cc4qqfw8.s:869    .text:0000000000000260 .LVL47
     /tmp/cc4qqfw8.s:879    .text:0000000000000264 .LVL48
     /tmp/cc4qqfw8.s:922    .text:000000000000027c .LVL51
     /tmp/cc4qqfw8.s:938    .text:0000000000000288 .LVL52
     /tmp/cc4qqfw8.s:965    .text:000000000000029c .LVL55
     /tmp/cc4qqfw8.s:975    .text:00000000000002a0 .LVL56
     /tmp/cc4qqfw8.s:1018   .text:00000000000002b8 .LVL59
     /tmp/cc4qqfw8.s:1034   .text:00000000000002c4 .LVL60
     /tmp/cc4qqfw8.s:1057   .text:00000000000002e4 .LVL62
     /tmp/cc4qqfw8.s:1100   .text:00000000000002fc .LVL65
     /tmp/cc4qqfw8.s:1116   .text:0000000000000308 .LVL66
     /tmp/cc4qqfw8.s:1132   .text:0000000000000314 .LVL68
     /tmp/cc4qqfw8.s:1175   .text:000000000000032c .LVL71
     /tmp/cc4qqfw8.s:1191   .text:0000000000000338 .LVL72
     /tmp/cc4qqfw8.s:1211   .text:0000000000000350 .LVL74
     /tmp/cc4qqfw8.s:1254   .text:0000000000000368 .LVL77
     /tmp/cc4qqfw8.s:1270   .text:0000000000000374 .LVL78
     /tmp/cc4qqfw8.s:1291   .text:0000000000000380 .LVL79
     /tmp/cc4qqfw8.s:1297   .text:0000000000000384 .LVL80
     /tmp/cc4qqfw8.s:1316   .text:000000000000039c .LVL83
     /tmp/cc4qqfw8.s:1329   .text:00000000000003a8 .LVL84
     /tmp/cc4qqfw8.s:1335   .text:00000000000003b0 .LVL85
     /tmp/cc4qqfw8.s:1369   .text:00000000000003c0 .LVL88
     /tmp/cc4qqfw8.s:1309   .text:0000000000000394 .LVL82
     /tmp/cc4qqfw8.s:1343   .text:00000000000003b4 .LVL86
     /tmp/cc4qqfw8.s:1353   .text:00000000000003b8 .LVL87
     /tmp/cc4qqfw8.s:1400   .text:00000000000003d8 .LVL90
GAS LISTING /tmp/cc4qqfw8.s 			page 75


     /tmp/cc4qqfw8.s:1416   .text:00000000000003e4 .LVL91
     /tmp/cc4qqfw8.s:1435   .text:00000000000003f0 .LVL93
     /tmp/cc4qqfw8.s:1489   .text:000000000000042c .LVL99
     /tmp/cc4qqfw8.s:1501   .text:0000000000000440 .LVL100
     /tmp/cc4qqfw8.s:1442   .text:00000000000003f4 .LVL94
     /tmp/cc4qqfw8.s:1456   .text:0000000000000404 .LVL96
     /tmp/cc4qqfw8.s:1482   .text:0000000000000428 .LVL98
     /tmp/cc4qqfw8.s:1526   .text:0000000000000458 .LVL102
     /tmp/cc4qqfw8.s:1569   .text:0000000000000470 .LVL105
     /tmp/cc4qqfw8.s:1585   .text:000000000000047c .LVL106
     /tmp/cc4qqfw8.s:1600   .text:0000000000000484 .LVL107
     /tmp/cc4qqfw8.s:1614   .text:0000000000000490 .LVL109
     /tmp/cc4qqfw8.s:1624   .text:0000000000000494 .LVL110
     /tmp/cc4qqfw8.s:1667   .text:00000000000004ac .LVL113
     /tmp/cc4qqfw8.s:1683   .text:00000000000004b8 .LVL114
     /tmp/cc4qqfw8.s:1698   .text:00000000000004c0 .LVL115
     /tmp/cc4qqfw8.s:1714   .text:00000000000004d0 .LVL117
     /tmp/cc4qqfw8.s:1724   .text:00000000000004d4 .LVL118
     /tmp/cc4qqfw8.s:1829   .text:000000000000051c .LVL128
     /tmp/cc4qqfw8.s:1839   .text:0000000000000520 .LVL129
     /tmp/cc4qqfw8.s:529    .text:0000000000000164 .LVL14
     /tmp/cc4qqfw8.s:545    .text:0000000000000170 .LVL15
     /tmp/cc4qqfw8.s:562    .text:000000000000017c .LVL16
     /tmp/cc4qqfw8.s:595    .text:000000000000019c .LVL21
     /tmp/cc4qqfw8.s:608    .text:00000000000001a0 .LVL22
     /tmp/cc4qqfw8.s:621    .text:00000000000001a4 .LVL23
     /tmp/cc4qqfw8.s:27     .text:0000000000000010 .LVL0
     /tmp/cc4qqfw8.s:39     .text:0000000000000018 .LVL1
     /tmp/cc4qqfw8.s:1988   .debug_info:0000000000000000 .Ldebug_info0
     /tmp/cc4qqfw8.s:1437   .text:00000000000003f0 .LBB263
     /tmp/cc4qqfw8.s:1471   .text:000000000000041c .LBE263
     /tmp/cc4qqfw8.s:1487   .text:000000000000042c .LBB272
     /tmp/cc4qqfw8.s:1505   .text:0000000000000440 .LBE272
     /tmp/cc4qqfw8.s:1447   .text:00000000000003fc .LBE264
     /tmp/cc4qqfw8.s:1490   .text:000000000000042c .LBB269
     /tmp/cc4qqfw8.s:1504   .text:0000000000000440 .LBE269

UNDEFINED SYMBOLS
_ZN5Riscv11TrapConsoleEv
__putc
_ZN5Riscv14supervisorTrapEv
console_handler
_ZN15MemoryAllocator10kmem_allocEm
_ZN7_thread12createThreadEPFvPvES0_Pm
_ZN15MemoryAllocator9kmem_freeEPv
_ZN7_thread7runningE
_ZN7_thread8dispatchEv
_ZN7_thread16timeSliceCounterE
_ZN10KSemaphorenwEm
_ZN9Scheduler3putEP7_thread
_ZN10KSemaphoredlEPv
_ZN10KSemaphore4waitEv
_ZN10KSemaphore6signalEv
__getc
