GAS LISTING /tmp/ccjUSfAh.s 			page 1


   1              		.file	"Riscv.cpp"
   2              		.option pic
   3              		.option norelax
   4              		.text
   5              	.Ltext0:
   6              		.align	2
   7              		.globl	_ZN5Riscv10popSppSpieEv
   9              	_ZN5Riscv10popSppSpieEv:
  10              	.LFB54:
  11              		.file 1 "src/Riscv.cpp"
   1:src/Riscv.cpp **** //
   2:src/Riscv.cpp **** // Created by os on 6/17/22.
   3:src/Riscv.cpp **** //
   4:src/Riscv.cpp **** 
   5:src/Riscv.cpp **** #include "../h/Riscv.hpp"
   6:src/Riscv.cpp **** #include "../h/MemoryAllocator.hpp"
   7:src/Riscv.cpp **** #include "../h/_thread.hpp"
   8:src/Riscv.cpp **** #include "../h/KSemaphore.hpp"
   9:src/Riscv.cpp **** #include "../h/KConsole.hpp"
  10:src/Riscv.cpp **** 
  11:src/Riscv.cpp **** 
  12:src/Riscv.cpp **** 
  13:src/Riscv.cpp **** 
  14:src/Riscv.cpp **** void Riscv::popSppSpie()    //pop supervisor previous privilege, supervisor previous interrupt enab
  15:src/Riscv.cpp **** {
  12              		.loc 1 15 1
  13              		.cfi_startproc
  14 0000 130101FF 		addi	sp,sp,-16
  15              		.cfi_def_cfa_offset 16
  16 0004 23348100 		sd	s0,8(sp)
  17              		.cfi_offset 8, -8
  18 0008 13040101 		addi	s0,sp,16
  19              		.cfi_def_cfa 8, 0
  16:src/Riscv.cpp ****     __asm__ volatile ("csrw sepc, ra");
  20              		.loc 1 16 5
  21              		.loc 1 16 39 is_stmt 0
  22              	#APP
  23              	# 16 "src/Riscv.cpp" 1
  17              	    __asm__ volatile ("sret");  //exit privileged regime
  24              		csrw sepc, ra
  25              	# 0 "" 2
  26              		.loc 1 17 5 is_stmt 1
  27              		.loc 1 17 30 is_stmt 0
  28              	# 17 "src/Riscv.cpp" 1
  18              	}
  29              		sret
  30              	# 0 "" 2
  31              		.loc 1 18 1
  32              	#NO_APP
  33 0014 03348100 		ld	s0,8(sp)
  34              		.cfi_restore 8
  35              		.cfi_def_cfa 2, 16
  36 0018 13010101 		addi	sp,sp,16
  37              		.cfi_def_cfa_offset 0
  38 001c 67800000 		jr	ra
  39              		.cfi_endproc
  40              	.LFE54:
GAS LISTING /tmp/ccjUSfAh.s 			page 2


  42              		.align	2
  43              		.globl	_ZN5Riscv20handleSupervisorTrapEv
  45              	_ZN5Riscv20handleSupervisorTrapEv:
  46              	.LFB55:
  19:src/Riscv.cpp **** 
  20:src/Riscv.cpp **** void Riscv::handleSupervisorTrap(){
  47              		.loc 1 20 35 is_stmt 1
  48              		.cfi_startproc
  49 0020 130101F0 		addi	sp,sp,-256
  50              		.cfi_def_cfa_offset 256
  51 0024 233C110E 		sd	ra,248(sp)
  52 0028 2338810E 		sd	s0,240(sp)
  53 002c 2334910E 		sd	s1,232(sp)
  54 0030 2330210F 		sd	s2,224(sp)
  55 0034 233C310D 		sd	s3,216(sp)
  56 0038 2338410D 		sd	s4,208(sp)
  57              		.cfi_offset 1, -8
  58              		.cfi_offset 8, -16
  59              		.cfi_offset 9, -24
  60              		.cfi_offset 18, -32
  61              		.cfi_offset 19, -40
  62              		.cfi_offset 20, -48
  63 003c 13040110 		addi	s0,sp,256
  64              		.cfi_def_cfa 8, 0
  21:src/Riscv.cpp ****     uint scause = r_scause();
  65              		.loc 1 21 5
  66              	.LBB140:
  67              	.LBB141:
  68              		.file 2 "src/../h/Riscv.hpp"
   1:src/../h/Riscv.hpp **** //
   2:src/../h/Riscv.hpp **** // Created by os on 6/17/22.
   3:src/../h/Riscv.hpp **** //
   4:src/../h/Riscv.hpp **** 
   5:src/../h/Riscv.hpp **** #ifndef PROJECT_BASE_V1_1_RISCV_HPP
   6:src/../h/Riscv.hpp **** #define PROJECT_BASE_V1_1_RISCV_HPP
   7:src/../h/Riscv.hpp **** 
   8:src/../h/Riscv.hpp **** #include "../lib/hw.h"
   9:src/../h/Riscv.hpp **** 
  10:src/../h/Riscv.hpp **** 
  11:src/../h/Riscv.hpp **** class Riscv
  12:src/../h/Riscv.hpp **** {
  13:src/../h/Riscv.hpp **** public:
  14:src/../h/Riscv.hpp **** 
  15:src/../h/Riscv.hpp ****     // pop sstatus.spp and sstatus.spie bits (has to be a non inline function)
  16:src/../h/Riscv.hpp ****     static void popSppSpie();
  17:src/../h/Riscv.hpp **** 
  18:src/../h/Riscv.hpp ****     // read register scause
  19:src/../h/Riscv.hpp ****     static uint64 r_scause();
  20:src/../h/Riscv.hpp **** 
  21:src/../h/Riscv.hpp ****     // write register scause
  22:src/../h/Riscv.hpp ****     static void w_scause(uint64 scause);
  23:src/../h/Riscv.hpp **** 
  24:src/../h/Riscv.hpp ****     // read register sepc
  25:src/../h/Riscv.hpp ****     static uint64 r_sepc();
  26:src/../h/Riscv.hpp **** 
  27:src/../h/Riscv.hpp ****     // write register sepc
  28:src/../h/Riscv.hpp ****     static void w_sepc(uint64 sepc);
GAS LISTING /tmp/ccjUSfAh.s 			page 3


  29:src/../h/Riscv.hpp **** 
  30:src/../h/Riscv.hpp ****     // read register stvec
  31:src/../h/Riscv.hpp ****     static uint64 r_stvec();
  32:src/../h/Riscv.hpp **** 
  33:src/../h/Riscv.hpp ****     // write register stvec
  34:src/../h/Riscv.hpp ****     static void w_stvec(uint64 stvec);
  35:src/../h/Riscv.hpp **** 
  36:src/../h/Riscv.hpp ****     // read register stval
  37:src/../h/Riscv.hpp ****     static uint64 r_stval();
  38:src/../h/Riscv.hpp **** 
  39:src/../h/Riscv.hpp ****     // write register stval
  40:src/../h/Riscv.hpp ****     static void w_stval(uint64 stval);
  41:src/../h/Riscv.hpp **** 
  42:src/../h/Riscv.hpp ****     enum BitMaskSip
  43:src/../h/Riscv.hpp ****     {
  44:src/../h/Riscv.hpp ****         SIP_SSIP = (1 << 1),
  45:src/../h/Riscv.hpp ****         SIP_STIP = (1 << 5),
  46:src/../h/Riscv.hpp ****         SIP_SEIP = (1 << 9),
  47:src/../h/Riscv.hpp ****     };
  48:src/../h/Riscv.hpp **** 
  49:src/../h/Riscv.hpp ****     // mask set register sip
  50:src/../h/Riscv.hpp ****     static void ms_sip(uint64 mask);
  51:src/../h/Riscv.hpp **** 
  52:src/../h/Riscv.hpp ****     // mask clear register sip
  53:src/../h/Riscv.hpp ****     static void mc_sip(uint64 mask);
  54:src/../h/Riscv.hpp **** 
  55:src/../h/Riscv.hpp ****     // read register sip
  56:src/../h/Riscv.hpp ****     static uint64 r_sip();
  57:src/../h/Riscv.hpp **** 
  58:src/../h/Riscv.hpp ****     // write register sip
  59:src/../h/Riscv.hpp ****     static void w_sip(uint64 sip);
  60:src/../h/Riscv.hpp **** 
  61:src/../h/Riscv.hpp ****     enum BitMaskSstatus
  62:src/../h/Riscv.hpp ****     {
  63:src/../h/Riscv.hpp ****         SSTATUS_SIE = (1 << 1),
  64:src/../h/Riscv.hpp ****         SSTATUS_SPIE = (1 << 5),
  65:src/../h/Riscv.hpp ****         SSTATUS_SPP = (1 << 8),
  66:src/../h/Riscv.hpp ****     };
  67:src/../h/Riscv.hpp **** 
  68:src/../h/Riscv.hpp ****     // mask set register sstatus
  69:src/../h/Riscv.hpp ****     static void ms_sstatus(uint64 mask);
  70:src/../h/Riscv.hpp **** 
  71:src/../h/Riscv.hpp ****     // mask clear register sstatus
  72:src/../h/Riscv.hpp ****     static void mc_sstatus(uint64 mask);
  73:src/../h/Riscv.hpp **** 
  74:src/../h/Riscv.hpp ****     // read register sstatus
  75:src/../h/Riscv.hpp ****     static uint64 r_sstatus();
  76:src/../h/Riscv.hpp **** 
  77:src/../h/Riscv.hpp ****     // write register sstatus
  78:src/../h/Riscv.hpp ****     static void w_sstatus(uint64 sstatus);
  79:src/../h/Riscv.hpp **** 
  80:src/../h/Riscv.hpp ****     // supervisor trap
  81:src/../h/Riscv.hpp ****     static void supervisorTrap();
  82:src/../h/Riscv.hpp **** 
  83:src/../h/Riscv.hpp **** private:
  84:src/../h/Riscv.hpp **** 
  85:src/../h/Riscv.hpp ****     // supervisor trap handler
GAS LISTING /tmp/ccjUSfAh.s 			page 4


  86:src/../h/Riscv.hpp ****     static void handleSupervisorTrap();
  87:src/../h/Riscv.hpp **** 
  88:src/../h/Riscv.hpp **** //    static void syscallHandler();
  89:src/../h/Riscv.hpp **** 
  90:src/../h/Riscv.hpp **** };
  91:src/../h/Riscv.hpp **** 
  92:src/../h/Riscv.hpp **** inline uint64 Riscv::r_scause()
  93:src/../h/Riscv.hpp **** {
  94:src/../h/Riscv.hpp ****     uint64 volatile scause;
  69              		.loc 2 94 5
  95:src/../h/Riscv.hpp ****     __asm__ volatile ("csrr %[scause], scause" : [scause] "=r"(scause));
  70              		.loc 2 95 5
  71              		.loc 2 95 72 is_stmt 0
  72              	#APP
  73              	# 95 "src/../h/Riscv.hpp" 1
  96              	    return scause;
  74              		csrr a5, scause
  75              	# 0 "" 2
  76              	#NO_APP
  77 0044 2334F4F0 		sd	a5,-248(s0)
  78              		.loc 2 96 5 is_stmt 1
  79              		.loc 2 96 12 is_stmt 0
  80 0048 833784F0 		ld	a5,-248(s0)
  81              	.LBE141:
  82              	.LBE140:
  83              		.loc 1 21 28
  84 004c 9B870700 		sext.w	a5,a5
  85              	.LVL0:
  22:src/Riscv.cpp ****     uint64 a0reg;
  86              		.loc 1 22 5 is_stmt 1
  23:src/Riscv.cpp **** //    uint64 arg0;
  24:src/Riscv.cpp ****     uint64 arg1;
  87              		.loc 1 24 5
  25:src/Riscv.cpp ****     __asm__ volatile("mv %0, a0" : "=r" (a0reg));
  88              		.loc 1 25 5
  89              		.loc 1 25 49 is_stmt 0
  90              	#APP
  91              	# 25 "src/Riscv.cpp" 1
  26              	
  92              		mv s1, a0
  93              	# 0 "" 2
  94              	.LVL1:
  27:src/Riscv.cpp ****     if (scause == 0x0000000000000008UL || scause==0x0000000000000009UL){
  95              		.loc 1 27 5 is_stmt 1
  96              	#NO_APP
  97              	.LBB142:
  98              		.loc 1 27 40 is_stmt 0
  99 0054 9B8787FF 		addiw	a5,a5,-8
 100              	.LVL2:
 101              		.loc 1 27 5
 102 0058 13071000 		li	a4,1
 103 005c 6372F702 		bleu	a5,a4,.L25
 104              	.LVL3:
 105              	.L3:
 106              	.LBE142:
  28:src/Riscv.cpp ****         // interrupt: no; cause code: environment call from U-mode(8) or S-mode(9)
  29:src/Riscv.cpp **** 
GAS LISTING /tmp/ccjUSfAh.s 			page 5


  30:src/Riscv.cpp ****         //call from yield
  31:src/Riscv.cpp **** 
  32:src/Riscv.cpp ****         if(a0reg==0x11){
  33:src/Riscv.cpp ****             uint64 sepc = r_sepc() + 4;
  34:src/Riscv.cpp ****             uint64 sstatus = r_sstatus();
  35:src/Riscv.cpp **** 
  36:src/Riscv.cpp **** 
  37:src/Riscv.cpp ****             _thread::thread_t *arg1;
  38:src/Riscv.cpp ****             _thread::Body arg2;
  39:src/Riscv.cpp ****             uint64 arg3;
  40:src/Riscv.cpp ****             uint64 *arg4;
  41:src/Riscv.cpp **** 
  42:src/Riscv.cpp ****             __asm__ volatile("ld a1, 11*8(fp)"); //a1
  43:src/Riscv.cpp ****             __asm__ volatile("ld a2, 12*8(fp)"); //a2
  44:src/Riscv.cpp ****             __asm__ volatile("ld a3, 13*8(fp)"); //a3
  45:src/Riscv.cpp ****             __asm__ volatile("ld a4, 14*8(fp)"); //a4
  46:src/Riscv.cpp **** 
  47:src/Riscv.cpp **** 
  48:src/Riscv.cpp ****             __asm__ volatile("mv %0, a1" : "=r" (arg1));    //handle (thread_t*)
  49:src/Riscv.cpp ****             __asm__ volatile("mv %0, a2" : "=r" (arg2));    //start routine
  50:src/Riscv.cpp ****             __asm__ volatile("mv %0, a3" : "=r" (arg3));    //argument of start routine
  51:src/Riscv.cpp ****             __asm__ volatile("mv %0, a4" : "=r" (arg4));    //stack
  52:src/Riscv.cpp **** 
  53:src/Riscv.cpp ****             //make new thread object using overloaded new operator for that function
  54:src/Riscv.cpp ****             _thread* t = _thread::createThread(arg2,  (void*)arg3, arg4);    //t je thread_t
  55:src/Riscv.cpp ****             *arg1=t;
  56:src/Riscv.cpp **** 
  57:src/Riscv.cpp ****             uint64 ret;
  58:src/Riscv.cpp ****             if(t!= nullptr)ret=0;
  59:src/Riscv.cpp ****             else ret =-1;
  60:src/Riscv.cpp **** 
  61:src/Riscv.cpp **** 
  62:src/Riscv.cpp ****             //return _thread* adress through a0
  63:src/Riscv.cpp ****             __asm__ volatile("mv a0, %0" : : "r" (ret));
  64:src/Riscv.cpp **** 
  65:src/Riscv.cpp ****             w_sstatus(sstatus);
  66:src/Riscv.cpp ****             w_sepc(sepc);
  67:src/Riscv.cpp ****         }
  68:src/Riscv.cpp ****         if(a0reg== 0x01 ){
  69:src/Riscv.cpp ****             uint64 sepc = r_sepc() + 4;
  70:src/Riscv.cpp ****             uint64 sstatus = r_sstatus();
  71:src/Riscv.cpp ****             //kmem_alloc
  72:src/Riscv.cpp ****             __asm__ volatile("mv %0, a1" : "=r" (arg1));    //read size from a1 and move it to arg1
  73:src/Riscv.cpp ****             uint64 ptr= (uint64) MemoryAllocator::kmem_alloc(arg1*MEM_BLOCK_SIZE);
  74:src/Riscv.cpp **** 
  75:src/Riscv.cpp ****             //write return value to a0 register
  76:src/Riscv.cpp ****             __asm__ volatile("mv a0, %0" : : "r" (ptr));
  77:src/Riscv.cpp **** 
  78:src/Riscv.cpp ****             w_sstatus(sstatus);
  79:src/Riscv.cpp ****             w_sepc(sepc);
  80:src/Riscv.cpp ****         }
  81:src/Riscv.cpp ****         else if(a0reg==0x02){
  82:src/Riscv.cpp ****             uint64 sepc = r_sepc() + 4;
  83:src/Riscv.cpp ****             uint64 sstatus = r_sstatus();
  84:src/Riscv.cpp **** 
  85:src/Riscv.cpp ****             __asm__ volatile("mv %0, a1" : "=r" (arg1));    //read pointer to free from a1 and move
  86:src/Riscv.cpp ****             int ret = MemoryAllocator::kmem_free((void *) arg1);
GAS LISTING /tmp/ccjUSfAh.s 			page 6


  87:src/Riscv.cpp ****             __asm__ volatile("mv a0, %0" : : "r" (ret));
  88:src/Riscv.cpp **** 
  89:src/Riscv.cpp ****             w_sstatus(sstatus);
  90:src/Riscv.cpp ****             w_sepc(sepc);
  91:src/Riscv.cpp ****         }
  92:src/Riscv.cpp **** 
  93:src/Riscv.cpp ****         else if(a0reg==0x12){
  94:src/Riscv.cpp ****             uint64 sepc = r_sepc() + 4;
  95:src/Riscv.cpp ****             uint64 sstatus = r_sstatus();
  96:src/Riscv.cpp **** 
  97:src/Riscv.cpp ****             _thread::running->finished=true;
  98:src/Riscv.cpp ****             _thread::dispatch();
  99:src/Riscv.cpp **** 
 100:src/Riscv.cpp ****             w_sstatus(sstatus);
 101:src/Riscv.cpp ****             w_sepc(sepc);
 102:src/Riscv.cpp **** 
 103:src/Riscv.cpp **** 
 104:src/Riscv.cpp ****         }
 105:src/Riscv.cpp ****         else if(a0reg == 0x13){
 106:src/Riscv.cpp ****             uint64 sepc = r_sepc() + 4;
 107:src/Riscv.cpp ****             uint64 sstatus = r_sstatus();
 108:src/Riscv.cpp **** 
 109:src/Riscv.cpp **** 
 110:src/Riscv.cpp ****             _thread::dispatch();
 111:src/Riscv.cpp **** 
 112:src/Riscv.cpp ****             w_sstatus(sstatus);
 113:src/Riscv.cpp ****             w_sepc(sepc);
 114:src/Riscv.cpp ****         }
 115:src/Riscv.cpp **** 
 116:src/Riscv.cpp ****         else if(a0reg==0x04){
 117:src/Riscv.cpp ****             uint64 sepc = r_sepc() + 4;
 118:src/Riscv.cpp ****             uint64 sstatus = r_sstatus();
 119:src/Riscv.cpp **** 
 120:src/Riscv.cpp ****             _thread::timeSliceCounter = 0;
 121:src/Riscv.cpp ****             _thread::dispatch();
 122:src/Riscv.cpp **** 
 123:src/Riscv.cpp ****             w_sstatus(sstatus);
 124:src/Riscv.cpp ****             w_sepc(sepc);
 125:src/Riscv.cpp ****         }
 126:src/Riscv.cpp ****         else if(a0reg==0x21){
 127:src/Riscv.cpp ****             uint64 sepc = r_sepc() + 4;
 128:src/Riscv.cpp ****             uint64 sstatus = r_sstatus();
 129:src/Riscv.cpp **** 
 130:src/Riscv.cpp ****            KSemaphore::sem_t *arg1;
 131:src/Riscv.cpp ****            uint64 arg2;
 132:src/Riscv.cpp **** 
 133:src/Riscv.cpp ****             __asm__ volatile("ld a1, 11*8(fp)"); //a1
 134:src/Riscv.cpp ****             __asm__ volatile("ld a2, 12*8(fp)"); //a2
 135:src/Riscv.cpp **** 
 136:src/Riscv.cpp ****             __asm__ volatile("mv %0, a1" : "=r" (arg1));    //handle (sem_t*)
 137:src/Riscv.cpp ****             __asm__ volatile("mv %0, a2" : "=r" (arg2));    //init val
 138:src/Riscv.cpp **** 
 139:src/Riscv.cpp ****             KSemaphore* sem = new KSemaphore(arg2);
 140:src/Riscv.cpp ****             *arg1=sem;
 141:src/Riscv.cpp **** 
 142:src/Riscv.cpp ****             uint64 ret=0;
 143:src/Riscv.cpp ****             if(sem!= nullptr)ret=0;
GAS LISTING /tmp/ccjUSfAh.s 			page 7


 144:src/Riscv.cpp ****             else ret=-1;
 145:src/Riscv.cpp **** 
 146:src/Riscv.cpp ****             __asm__ volatile("mv a0, %0" : : "r" (ret));
 147:src/Riscv.cpp **** 
 148:src/Riscv.cpp ****             w_sstatus(sstatus);
 149:src/Riscv.cpp ****             w_sepc(sepc);
 150:src/Riscv.cpp ****         }
 151:src/Riscv.cpp ****         else if(a0reg==0x22){
 152:src/Riscv.cpp ****             uint64 sepc = r_sepc() + 4;
 153:src/Riscv.cpp ****             uint64 sstatus = r_sstatus();
 154:src/Riscv.cpp **** 
 155:src/Riscv.cpp ****             KSemaphore::sem_t arg1; //handle
 156:src/Riscv.cpp **** 
 157:src/Riscv.cpp **** 
 158:src/Riscv.cpp ****             __asm__ volatile("ld a1, 11*8(fp)"); //a1
 159:src/Riscv.cpp **** 
 160:src/Riscv.cpp ****             __asm__ volatile("mv %0, a1" : "=r" (arg1));    //handle (sem_t*)
 161:src/Riscv.cpp **** 
 162:src/Riscv.cpp ****             KSemaphore* sem = arg1;
 163:src/Riscv.cpp **** 
 164:src/Riscv.cpp ****             //deblock all blocked threads on this semaphore
 165:src/Riscv.cpp ****             while(sem->blocked.peekFirst()!=0){
 166:src/Riscv.cpp ****                 _thread* t = sem->blocked.removeFirst();
 167:src/Riscv.cpp ****                 t->deblocked=true;
 168:src/Riscv.cpp ****                 sem->val++;
 169:src/Riscv.cpp ****                 Scheduler::put(t);
 170:src/Riscv.cpp ****             }
 171:src/Riscv.cpp **** 
 172:src/Riscv.cpp ****             delete sem;
 173:src/Riscv.cpp **** 
 174:src/Riscv.cpp ****             w_sstatus(sstatus);
 175:src/Riscv.cpp ****             w_sepc(sepc);
 176:src/Riscv.cpp ****         }
 177:src/Riscv.cpp ****         else if(a0reg==0x23){
 178:src/Riscv.cpp ****             uint64 sepc = r_sepc() + 4;
 179:src/Riscv.cpp ****             uint64 sstatus = r_sstatus();
 180:src/Riscv.cpp **** 
 181:src/Riscv.cpp ****             KSemaphore::sem_t arg1; //handle
 182:src/Riscv.cpp **** 
 183:src/Riscv.cpp ****             __asm__ volatile("ld a1, 11*8(fp)"); //a1
 184:src/Riscv.cpp **** 
 185:src/Riscv.cpp ****             __asm__ volatile("mv %0, a1" : "=r" (arg1));    //handle (sem_t*)
 186:src/Riscv.cpp **** 
 187:src/Riscv.cpp **** //            KSemaphore* sem = *arg1;
 188:src/Riscv.cpp **** 
 189:src/Riscv.cpp ****             uint64 ret = arg1->wait();
 190:src/Riscv.cpp **** 
 191:src/Riscv.cpp ****             __asm__ volatile("mv a0, %0" : : "r" (ret));
 192:src/Riscv.cpp **** 
 193:src/Riscv.cpp ****             w_sstatus(sstatus);
 194:src/Riscv.cpp ****             w_sepc(sepc);
 195:src/Riscv.cpp ****         }
 196:src/Riscv.cpp ****         else if(a0reg==0x24){
 197:src/Riscv.cpp ****             uint64 sepc = r_sepc() + 4;
 198:src/Riscv.cpp ****             uint64 sstatus = r_sstatus();
 199:src/Riscv.cpp **** 
 200:src/Riscv.cpp ****             KSemaphore::sem_t arg1; //handle
GAS LISTING /tmp/ccjUSfAh.s 			page 8


 201:src/Riscv.cpp **** 
 202:src/Riscv.cpp ****             __asm__ volatile("ld a1, 11*8(fp)"); //a1
 203:src/Riscv.cpp **** 
 204:src/Riscv.cpp ****             __asm__ volatile("mv %0, a1" : "=r" (arg1));    //handle (sem_t*)
 205:src/Riscv.cpp **** 
 206:src/Riscv.cpp **** 
 207:src/Riscv.cpp ****             arg1->signal();
 208:src/Riscv.cpp **** 
 209:src/Riscv.cpp ****             uint64 ret = 0;
 210:src/Riscv.cpp **** 
 211:src/Riscv.cpp ****             __asm__ volatile("mv a0, %0" : : "r" (ret));
 212:src/Riscv.cpp **** 
 213:src/Riscv.cpp ****             w_sstatus(sstatus);
 214:src/Riscv.cpp ****             w_sepc(sepc);
 215:src/Riscv.cpp ****         }
 216:src/Riscv.cpp ****         else if(a0reg==0x41){
 217:src/Riscv.cpp ****             uint64 sepc = r_sepc() + 4;
 218:src/Riscv.cpp ****             uint64 sstatus = r_sstatus();
 219:src/Riscv.cpp **** 
 220:src/Riscv.cpp ****             //call method from kernel Console class
 221:src/Riscv.cpp ****             char c = KConsole::getc();
 222:src/Riscv.cpp **** 
 223:src/Riscv.cpp ****             __asm__ volatile("mv a0, %0" : : "r" (c));
 224:src/Riscv.cpp **** 
 225:src/Riscv.cpp **** 
 226:src/Riscv.cpp ****             w_sstatus(sstatus);
 227:src/Riscv.cpp ****             w_sepc(sepc);
 228:src/Riscv.cpp ****         }
 229:src/Riscv.cpp ****         else if(a0reg==0x42){
 230:src/Riscv.cpp ****             uint64 sepc = r_sepc() + 4;
 231:src/Riscv.cpp ****             uint64 sstatus = r_sstatus();
 232:src/Riscv.cpp **** 
 233:src/Riscv.cpp ****             char c;
 234:src/Riscv.cpp ****             __asm__ volatile("ld a1, 11*8(fp)"); //a1
 235:src/Riscv.cpp **** 
 236:src/Riscv.cpp ****             __asm__ volatile("mv %0, a1" : "=r" (c));
 237:src/Riscv.cpp **** 
 238:src/Riscv.cpp ****             KConsole::putc(c);
 239:src/Riscv.cpp **** 
 240:src/Riscv.cpp ****             w_sstatus(sstatus);
 241:src/Riscv.cpp ****             w_sepc(sepc);
 242:src/Riscv.cpp ****         }
 243:src/Riscv.cpp **** 
 244:src/Riscv.cpp **** 
 245:src/Riscv.cpp ****     }
 246:src/Riscv.cpp ****     else if (scause == 0x8000000000000001UL){
 247:src/Riscv.cpp ****         // interrupt: yes; cause code: supervisor software interrupt (CLINT; machine timer interrup
 248:src/Riscv.cpp **** 
 249:src/Riscv.cpp ****     }
 250:src/Riscv.cpp ****     else if (scause == 0x8000000000000009UL)
 251:src/Riscv.cpp ****     {
 252:src/Riscv.cpp ****         // interrupt: yes; cause code: supervisor external interrupt (PLIC; could be keyboard)
 253:src/Riscv.cpp **** 
 254:src/Riscv.cpp ****         uint64 sepc = r_sepc() + 4;
 255:src/Riscv.cpp ****         uint64 sstatus = r_sstatus();
 256:src/Riscv.cpp **** 
 257:src/Riscv.cpp ****         console_handler();
GAS LISTING /tmp/ccjUSfAh.s 			page 9


 258:src/Riscv.cpp **** 
 259:src/Riscv.cpp ****         w_sstatus(sstatus);
 260:src/Riscv.cpp ****         w_sepc(sepc);
 261:src/Riscv.cpp ****     }
 262:src/Riscv.cpp ****     else{
 263:src/Riscv.cpp ****         // unexpected trap cause
 264:src/Riscv.cpp ****         //print(scause)
 265:src/Riscv.cpp ****         //print(sepc)
 266:src/Riscv.cpp ****         //print(stval) //trap value
 267:src/Riscv.cpp **** 
 268:src/Riscv.cpp ****     }
 269:src/Riscv.cpp **** 
 270:src/Riscv.cpp **** }
 107              		.loc 1 270 1
 108 0060 8330810F 		ld	ra,248(sp)
 109              		.cfi_remember_state
 110              		.cfi_restore 1
 111 0064 0334010F 		ld	s0,240(sp)
 112              		.cfi_restore 8
 113              		.cfi_def_cfa 2, 256
 114 0068 8334810E 		ld	s1,232(sp)
 115              		.cfi_restore 9
 116 006c 0339010E 		ld	s2,224(sp)
 117              		.cfi_restore 18
 118 0070 8339810D 		ld	s3,216(sp)
 119              		.cfi_restore 19
 120 0074 033A010D 		ld	s4,208(sp)
 121              		.cfi_restore 20
 122 0078 13010110 		addi	sp,sp,256
 123              		.cfi_def_cfa_offset 0
 124 007c 67800000 		jr	ra
 125              	.LVL4:
 126              	.L25:
 127              		.cfi_restore_state
  32:src/Riscv.cpp ****             uint64 sepc = r_sepc() + 4;
 128              		.loc 1 32 9 is_stmt 1
 129              	.LBB341:
 130              	.LBB143:
 131 0080 93071001 		li	a5,17
 132 0084 638CF408 		beq	s1,a5,.L26
 133              	.L5:
 134              	.LBE143:
 135              	.LBE341:
  68:src/Riscv.cpp ****             uint64 sepc = r_sepc() + 4;
 136              		.loc 1 68 9
 137              	.LBB342:
 138              	.LBB153:
 139 0088 93071000 		li	a5,1
 140 008c 638CF40E 		beq	s1,a5,.L27
 141              	.LBE153:
 142              	.LBE342:
  81:src/Riscv.cpp ****             uint64 sepc = r_sepc() + 4;
 143              		.loc 1 81 14
 144              	.LBB343:
 145              	.LBB329:
 146              	.LBB154:
 147 0090 93072000 		li	a5,2
GAS LISTING /tmp/ccjUSfAh.s 			page 10


 148 0094 6386F412 		beq	s1,a5,.L28
 149              	.LBE154:
 150              	.LBE329:
 151              	.LBE343:
  93:src/Riscv.cpp ****             uint64 sepc = r_sepc() + 4;
 152              		.loc 1 93 14
 153              	.LBB344:
 154              	.LBB330:
 155              	.LBB310:
 156              	.LBB155:
 157 0098 93072001 		li	a5,18
 158 009c 638EF414 		beq	s1,a5,.L29
 159              	.LBE155:
 160              	.LBE310:
 161              	.LBE330:
 162              	.LBE344:
 105:src/Riscv.cpp ****             uint64 sepc = r_sepc() + 4;
 163              		.loc 1 105 14
 164              	.LBB345:
 165              	.LBB331:
 166              	.LBB311:
 167              	.LBB292:
 168              	.LBB156:
 169 00a0 93073001 		li	a5,19
 170 00a4 638CF418 		beq	s1,a5,.L30
 171              	.LBE156:
 172              	.LBE292:
 173              	.LBE311:
 174              	.LBE331:
 175              	.LBE345:
 116:src/Riscv.cpp ****             uint64 sepc = r_sepc() + 4;
 176              		.loc 1 116 14
 177              	.LBB346:
 178              	.LBB332:
 179              	.LBB312:
 180              	.LBB293:
 181              	.LBB275:
 182              	.LBB157:
 183 00a8 93074000 		li	a5,4
 184 00ac 6380F41C 		beq	s1,a5,.L31
 185              	.LBE157:
 186              	.LBE275:
 187              	.LBE293:
 188              	.LBE312:
 189              	.LBE332:
 190              	.LBE346:
 126:src/Riscv.cpp ****             uint64 sepc = r_sepc() + 4;
 191              		.loc 1 126 14
 192              	.LBB347:
 193              	.LBB333:
 194              	.LBB313:
 195              	.LBB294:
 196              	.LBB276:
 197              	.LBB259:
 198              	.LBB158:
 199 00b0 93071002 		li	a5,33
 200 00b4 638AF41E 		beq	s1,a5,.L32
GAS LISTING /tmp/ccjUSfAh.s 			page 11


 201              	.LBE158:
 202              	.LBE259:
 203              	.LBE276:
 204              	.LBE294:
 205              	.LBE313:
 206              	.LBE333:
 207              	.LBE347:
 151:src/Riscv.cpp ****             uint64 sepc = r_sepc() + 4;
 208              		.loc 1 151 14
 209              	.LBB348:
 210              	.LBB334:
 211              	.LBB314:
 212              	.LBB295:
 213              	.LBB277:
 214              	.LBB260:
 215              	.LBB244:
 216              	.LBB159:
 217 00b8 93072002 		li	a5,34
 218 00bc 638AF424 		beq	s1,a5,.L33
 219              	.LBE159:
 220              	.LBE244:
 221              	.LBE260:
 222              	.LBE277:
 223              	.LBE295:
 224              	.LBE314:
 225              	.LBE334:
 226              	.LBE348:
 177:src/Riscv.cpp ****             uint64 sepc = r_sepc() + 4;
 227              		.loc 1 177 14
 228              	.LBB349:
 229              	.LBB335:
 230              	.LBB315:
 231              	.LBB296:
 232              	.LBB278:
 233              	.LBB261:
 234              	.LBB245:
 235              	.LBB226:
 236              	.LBB160:
 237 00c0 93073002 		li	a5,35
 238 00c4 6380F42E 		beq	s1,a5,.L34
 239              	.LBE160:
 240              	.LBE226:
 241              	.LBE245:
 242              	.LBE261:
 243              	.LBE278:
 244              	.LBE296:
 245              	.LBE315:
 246              	.LBE335:
 247              	.LBE349:
 196:src/Riscv.cpp ****             uint64 sepc = r_sepc() + 4;
 248              		.loc 1 196 14
 249              	.LBB350:
 250              	.LBB336:
 251              	.LBB316:
 252              	.LBB297:
 253              	.LBB279:
 254              	.LBB262:
GAS LISTING /tmp/ccjUSfAh.s 			page 12


 255              	.LBB246:
 256              	.LBB227:
 257              	.LBB205:
 258              	.LBB161:
 259 00c8 93074002 		li	a5,36
 260 00cc 638AF430 		beq	s1,a5,.L35
 261              	.LBE161:
 262              	.LBE205:
 263              	.LBE227:
 264              	.LBE246:
 265              	.LBE262:
 266              	.LBE279:
 267              	.LBE297:
 268              	.LBE316:
 269              	.LBE336:
 270              	.LBE350:
 216:src/Riscv.cpp ****             uint64 sepc = r_sepc() + 4;
 271              		.loc 1 216 14
 272              	.LBB351:
 273              	.LBB337:
 274              	.LBB317:
 275              	.LBB298:
 276              	.LBB280:
 277              	.LBB263:
 278              	.LBB247:
 279              	.LBB228:
 280              	.LBB206:
 281              	.LBB193:
 282              	.LBB162:
 283 00d0 93071004 		li	a5,65
 284 00d4 6386F434 		beq	s1,a5,.L36
 285              	.LBE162:
 286              	.LBE193:
 287              	.LBE206:
 288              	.LBE228:
 289              	.LBE247:
 290              	.LBE263:
 291              	.LBE280:
 292              	.LBE298:
 293              	.LBE317:
 294              	.LBE337:
 295              	.LBE351:
 229:src/Riscv.cpp ****             uint64 sepc = r_sepc() + 4;
 296              		.loc 1 229 14
 297              	.LBB352:
 298              	.LBB338:
 299              	.LBB318:
 300              	.LBB299:
 301              	.LBB281:
 302              	.LBB264:
 303              	.LBB248:
 304              	.LBB229:
 305              	.LBB207:
 306              	.LBB194:
 307              	.LBB182:
 308              	.LBB163:
 309 00d8 93072004 		li	a5,66
GAS LISTING /tmp/ccjUSfAh.s 			page 13


 310 00dc E392F4F8 		bne	s1,a5,.L3
 311              	.LBB164:
 230:src/Riscv.cpp ****             uint64 sstatus = r_sstatus();
 312              		.loc 1 230 13
 313              	.LBB165:
 314              	.LBB166:
  97:src/../h/Riscv.hpp **** }
  98:src/../h/Riscv.hpp **** 
  99:src/../h/Riscv.hpp **** inline void Riscv::w_scause(uint64 scause)
 100:src/../h/Riscv.hpp **** {
 101:src/../h/Riscv.hpp ****     __asm__ volatile ("csrw scause, %[scause]" : : [scause] "r"(scause));
 102:src/../h/Riscv.hpp **** }
 103:src/../h/Riscv.hpp **** 
 104:src/../h/Riscv.hpp **** inline uint64 Riscv::r_sepc()
 105:src/../h/Riscv.hpp **** {
 106:src/../h/Riscv.hpp ****     uint64 volatile sepc;
 315              		.loc 2 106 5
 107:src/../h/Riscv.hpp ****     __asm__ volatile ("csrr %[sepc], sepc" : [sepc] "=r"(sepc));
 316              		.loc 2 107 5
 317              		.loc 2 107 64 is_stmt 0
 318              	#APP
 319              	# 107 "src/../h/Riscv.hpp" 1
 108              	    return sepc;
 320              		csrr a5, sepc
 321              	# 0 "" 2
 322              	#NO_APP
 323 00e4 2334F4FC 		sd	a5,-56(s0)
 324              		.loc 2 108 5 is_stmt 1
 325              		.loc 2 108 12 is_stmt 0
 326 00e8 833484FC 		ld	s1,-56(s0)
 327              	.LVL5:
 328              	.LBE166:
 329              	.LBE165:
 230:src/Riscv.cpp ****             uint64 sstatus = r_sstatus();
 330              		.loc 1 230 38
 331 00ec 93844400 		addi	s1,s1,4
 332              	.LVL6:
 231:src/Riscv.cpp **** 
 333              		.loc 1 231 13 is_stmt 1
 334              	.LBB167:
 335              	.LBB168:
 109:src/../h/Riscv.hpp **** }
 110:src/../h/Riscv.hpp **** 
 111:src/../h/Riscv.hpp **** inline void Riscv::w_sepc(uint64 sepc)
 112:src/../h/Riscv.hpp **** {
 113:src/../h/Riscv.hpp ****     __asm__ volatile ("csrw sepc, %[sepc]" : : [sepc] "r"(sepc));
 114:src/../h/Riscv.hpp **** }
 115:src/../h/Riscv.hpp **** 
 116:src/../h/Riscv.hpp **** inline uint64 Riscv::r_stvec()
 117:src/../h/Riscv.hpp **** {
 118:src/../h/Riscv.hpp ****     uint64 volatile stvec;
 119:src/../h/Riscv.hpp ****     __asm__ volatile ("csrr %[stvec], stvec" : [stvec] "=r"(stvec));
 120:src/../h/Riscv.hpp ****     return stvec;
 121:src/../h/Riscv.hpp **** }
 122:src/../h/Riscv.hpp **** 
 123:src/../h/Riscv.hpp **** inline void Riscv::w_stvec(uint64 stvec)
 124:src/../h/Riscv.hpp **** {
GAS LISTING /tmp/ccjUSfAh.s 			page 14


 125:src/../h/Riscv.hpp ****     __asm__ volatile ("csrw stvec, %[stvec]" : : [stvec] "r"(stvec));
 126:src/../h/Riscv.hpp **** }
 127:src/../h/Riscv.hpp **** 
 128:src/../h/Riscv.hpp **** inline uint64 Riscv::r_stval()
 129:src/../h/Riscv.hpp **** {
 130:src/../h/Riscv.hpp ****     uint64 volatile stval;
 131:src/../h/Riscv.hpp ****     __asm__ volatile ("csrr %[stval], stval" : [stval] "=r"(stval));
 132:src/../h/Riscv.hpp ****     return stval;
 133:src/../h/Riscv.hpp **** }
 134:src/../h/Riscv.hpp **** 
 135:src/../h/Riscv.hpp **** inline void Riscv::w_stval(uint64 stval)
 136:src/../h/Riscv.hpp **** {
 137:src/../h/Riscv.hpp ****     __asm__ volatile ("csrw stval, %[stval]" : : [stval] "r"(stval));
 138:src/../h/Riscv.hpp **** }
 139:src/../h/Riscv.hpp **** 
 140:src/../h/Riscv.hpp **** inline void Riscv::ms_sip(uint64 mask)
 141:src/../h/Riscv.hpp **** {
 142:src/../h/Riscv.hpp ****     __asm__ volatile ("csrs sip, %[mask]" : : [mask] "r"(mask));
 143:src/../h/Riscv.hpp **** }
 144:src/../h/Riscv.hpp **** 
 145:src/../h/Riscv.hpp **** inline void Riscv::mc_sip(uint64 mask)
 146:src/../h/Riscv.hpp **** {
 147:src/../h/Riscv.hpp ****     __asm__ volatile ("csrc sip, %[mask]" : : [mask] "r"(mask));
 148:src/../h/Riscv.hpp **** }
 149:src/../h/Riscv.hpp **** 
 150:src/../h/Riscv.hpp **** inline uint64 Riscv::r_sip()
 151:src/../h/Riscv.hpp **** {
 152:src/../h/Riscv.hpp ****     uint64 volatile sip;
 153:src/../h/Riscv.hpp ****     __asm__ volatile ("csrr %[sip], sip" : [sip] "=r"(sip));
 154:src/../h/Riscv.hpp ****     return sip;
 155:src/../h/Riscv.hpp **** }
 156:src/../h/Riscv.hpp **** 
 157:src/../h/Riscv.hpp **** inline void Riscv::w_sip(uint64 sip)
 158:src/../h/Riscv.hpp **** {
 159:src/../h/Riscv.hpp ****     __asm__ volatile ("csrw sip, %[sip]" : : [sip] "r"(sip));
 160:src/../h/Riscv.hpp **** }
 161:src/../h/Riscv.hpp **** 
 162:src/../h/Riscv.hpp **** //mask set
 163:src/../h/Riscv.hpp **** inline void Riscv::ms_sstatus(uint64 mask)
 164:src/../h/Riscv.hpp **** {
 165:src/../h/Riscv.hpp ****     __asm__ volatile ("csrs sstatus, %[mask]" : : [mask] "r"(mask));
 166:src/../h/Riscv.hpp **** }
 167:src/../h/Riscv.hpp **** 
 168:src/../h/Riscv.hpp **** //mask clear
 169:src/../h/Riscv.hpp **** inline void Riscv::mc_sstatus(uint64 mask)
 170:src/../h/Riscv.hpp **** {
 171:src/../h/Riscv.hpp ****     __asm__ volatile ("csrc sstatus, %[mask]" : : [mask] "r"(mask));
 172:src/../h/Riscv.hpp **** }
 173:src/../h/Riscv.hpp **** 
 174:src/../h/Riscv.hpp **** inline uint64 Riscv::r_sstatus()
 175:src/../h/Riscv.hpp **** {
 176:src/../h/Riscv.hpp ****     uint64 volatile sstatus;
 336              		.loc 2 176 5
 177:src/../h/Riscv.hpp ****     __asm__ volatile ("csrr %[sstatus], sstatus" : [sstatus] "=r"(sstatus));
 337              		.loc 2 177 5
 338              		.loc 2 177 76 is_stmt 0
 339              	#APP
GAS LISTING /tmp/ccjUSfAh.s 			page 15


 340              	# 177 "src/../h/Riscv.hpp" 1
 178              	    return sstatus;
 341              		csrr a5, sstatus
 342              	# 0 "" 2
 343              	#NO_APP
 344 00f4 2330F4FC 		sd	a5,-64(s0)
 345              		.loc 2 178 5 is_stmt 1
 346              		.loc 2 178 12 is_stmt 0
 347 00f8 033904FC 		ld	s2,-64(s0)
 348              	.LVL7:
 349              	.LBE168:
 350              	.LBE167:
 233:src/Riscv.cpp ****             __asm__ volatile("ld a1, 11*8(fp)"); //a1
 351              		.loc 1 233 13 is_stmt 1
 234:src/Riscv.cpp **** 
 352              		.loc 1 234 13
 234:src/Riscv.cpp **** 
 353              		.loc 1 234 48 is_stmt 0
 354              	#APP
 355              	# 234 "src/Riscv.cpp" 1
 236:src/Riscv.cpp **** 
 356              		ld a1, 11*8(fp)
 357              	# 0 "" 2
 358              		.loc 1 236 13 is_stmt 1
 236:src/Riscv.cpp **** 
 359              		.loc 1 236 53 is_stmt 0
 360              	# 236 "src/Riscv.cpp" 1
 361              		mv a0, a1
 362              	# 0 "" 2
 363              	.LVL8:
 238:src/Riscv.cpp **** 
 364              		.loc 1 238 13 is_stmt 1
 238:src/Riscv.cpp **** 
 365              		.loc 1 238 27 is_stmt 0
 366              	#NO_APP
 367 0104 1375F50F 		andi	a0,a0,0xff
 368 0108 97000000 		call	_ZN8KConsole4putcEc@plt
 368      E7800000 
 369              	.LVL9:
 240:src/Riscv.cpp ****             w_sepc(sepc);
 370              		.loc 1 240 13 is_stmt 1
 371              	.LBB169:
 372              	.LBB170:
 179:src/../h/Riscv.hpp **** }
 180:src/../h/Riscv.hpp **** 
 181:src/../h/Riscv.hpp **** inline void Riscv::w_sstatus(uint64 sstatus)
 182:src/../h/Riscv.hpp **** {
 183:src/../h/Riscv.hpp ****     __asm__ volatile ("csrw sstatus, %[sstatus]" : : [sstatus] "r"(sstatus));
 373              		.loc 2 183 5
 374              		.loc 2 183 77 is_stmt 0
 375              	#APP
 376              	# 183 "src/../h/Riscv.hpp" 1
 184              	}
 377              		csrw sstatus, s2
 378              	# 0 "" 2
 379              	.LVL10:
 380              	#NO_APP
GAS LISTING /tmp/ccjUSfAh.s 			page 16


 381              	.LBE170:
 382              	.LBE169:
 241:src/Riscv.cpp ****         }
 383              		.loc 1 241 13 is_stmt 1
 384              	.LBB171:
 385              	.LBB172:
 113:src/../h/Riscv.hpp **** }
 386              		.loc 2 113 5
 113:src/../h/Riscv.hpp **** }
 387              		.loc 2 113 65 is_stmt 0
 388              	#APP
 389              	# 113 "src/../h/Riscv.hpp" 1
 390              		csrw sepc, s1
 391              	# 0 "" 2
 392              	.LVL11:
 393              	#NO_APP
 394              	.LBE172:
 395              	.LBE171:
 396              	.LBE164:
 397              	.LBE163:
 398              	.LBE182:
 399              	.LBE194:
 400              	.LBE207:
 401              	.LBE229:
 402              	.LBE248:
 403              	.LBE264:
 404              	.LBE281:
 405              	.LBE299:
 406              	.LBE318:
 407              	.LBE338:
 408              	.LBE352:
 409              		.loc 1 270 1
 410 0118 6FF09FF4 		j	.L3
 411              	.LVL12:
 412              	.L26:
 413              	.LBB353:
 414              	.LBB339:
 415              	.LBB144:
  33:src/Riscv.cpp ****             uint64 sstatus = r_sstatus();
 416              		.loc 1 33 13 is_stmt 1
 417              	.LBB145:
 418              	.LBB146:
 106:src/../h/Riscv.hpp ****     __asm__ volatile ("csrr %[sepc], sepc" : [sepc] "=r"(sepc));
 419              		.loc 2 106 5
 107:src/../h/Riscv.hpp ****     return sepc;
 420              		.loc 2 107 5
 107:src/../h/Riscv.hpp ****     return sepc;
 421              		.loc 2 107 64 is_stmt 0
 422              	#APP
 423              	# 107 "src/../h/Riscv.hpp" 1
 424              		csrr a5, sepc
 425              	# 0 "" 2
 426              	#NO_APP
 427 0120 233CF4F0 		sd	a5,-232(s0)
 108:src/../h/Riscv.hpp **** }
 428              		.loc 2 108 5 is_stmt 1
 108:src/../h/Riscv.hpp **** }
GAS LISTING /tmp/ccjUSfAh.s 			page 17


 429              		.loc 2 108 12 is_stmt 0
 430 0124 033984F1 		ld	s2,-232(s0)
 431              	.LBE146:
 432              	.LBE145:
  33:src/Riscv.cpp ****             uint64 sstatus = r_sstatus();
 433              		.loc 1 33 38
 434 0128 13094900 		addi	s2,s2,4
 435              	.LVL13:
  34:src/Riscv.cpp **** 
 436              		.loc 1 34 13 is_stmt 1
 437              	.LBB147:
 438              	.LBB148:
 176:src/../h/Riscv.hpp ****     __asm__ volatile ("csrr %[sstatus], sstatus" : [sstatus] "=r"(sstatus));
 439              		.loc 2 176 5
 177:src/../h/Riscv.hpp ****     return sstatus;
 440              		.loc 2 177 5
 177:src/../h/Riscv.hpp ****     return sstatus;
 441              		.loc 2 177 76 is_stmt 0
 442              	#APP
 443              	# 177 "src/../h/Riscv.hpp" 1
 444              		csrr a5, sstatus
 445              	# 0 "" 2
 446              	#NO_APP
 447 0130 2338F4F0 		sd	a5,-240(s0)
 178:src/../h/Riscv.hpp **** }
 448              		.loc 2 178 5 is_stmt 1
 178:src/../h/Riscv.hpp **** }
 449              		.loc 2 178 12 is_stmt 0
 450 0134 833904F1 		ld	s3,-240(s0)
 451              	.LVL14:
 452              	.LBE148:
 453              	.LBE147:
  37:src/Riscv.cpp ****             _thread::Body arg2;
 454              		.loc 1 37 13 is_stmt 1
  38:src/Riscv.cpp ****             uint64 arg3;
 455              		.loc 1 38 13
  39:src/Riscv.cpp ****             uint64 *arg4;
 456              		.loc 1 39 13
  40:src/Riscv.cpp **** 
 457              		.loc 1 40 13
  42:src/Riscv.cpp ****             __asm__ volatile("ld a2, 12*8(fp)"); //a2
 458              		.loc 1 42 13
  42:src/Riscv.cpp ****             __asm__ volatile("ld a2, 12*8(fp)"); //a2
 459              		.loc 1 42 48 is_stmt 0
 460              	#APP
 461              	# 42 "src/Riscv.cpp" 1
  43:src/Riscv.cpp ****             __asm__ volatile("ld a3, 13*8(fp)"); //a3
 462              		ld a1, 11*8(fp)
 463              	# 0 "" 2
 464              		.loc 1 43 13 is_stmt 1
  43:src/Riscv.cpp ****             __asm__ volatile("ld a3, 13*8(fp)"); //a3
 465              		.loc 1 43 48 is_stmt 0
 466              	# 43 "src/Riscv.cpp" 1
  44:src/Riscv.cpp ****             __asm__ volatile("ld a4, 14*8(fp)"); //a4
 467              		ld a2, 12*8(fp)
 468              	# 0 "" 2
 469              		.loc 1 44 13 is_stmt 1
GAS LISTING /tmp/ccjUSfAh.s 			page 18


  44:src/Riscv.cpp ****             __asm__ volatile("ld a4, 14*8(fp)"); //a4
 470              		.loc 1 44 48 is_stmt 0
 471              	# 44 "src/Riscv.cpp" 1
  45:src/Riscv.cpp **** 
 472              		ld a3, 13*8(fp)
 473              	# 0 "" 2
 474              		.loc 1 45 13 is_stmt 1
  45:src/Riscv.cpp **** 
 475              		.loc 1 45 48 is_stmt 0
 476              	# 45 "src/Riscv.cpp" 1
  48:src/Riscv.cpp ****             __asm__ volatile("mv %0, a2" : "=r" (arg2));    //start routine
 477              		ld a4, 14*8(fp)
 478              	# 0 "" 2
 479              		.loc 1 48 13 is_stmt 1
  48:src/Riscv.cpp ****             __asm__ volatile("mv %0, a2" : "=r" (arg2));    //start routine
 480              		.loc 1 48 56 is_stmt 0
 481              	# 48 "src/Riscv.cpp" 1
 482              		mv s4, a1
 483              	# 0 "" 2
 484              	.LVL15:
  49:src/Riscv.cpp ****             __asm__ volatile("mv %0, a3" : "=r" (arg3));    //argument of start routine
 485              		.loc 1 49 13 is_stmt 1
  49:src/Riscv.cpp ****             __asm__ volatile("mv %0, a3" : "=r" (arg3));    //argument of start routine
 486              		.loc 1 49 56 is_stmt 0
 487              	# 49 "src/Riscv.cpp" 1
 488              		mv a0, a2
 489              	# 0 "" 2
 490              	.LVL16:
  50:src/Riscv.cpp ****             __asm__ volatile("mv %0, a4" : "=r" (arg4));    //stack
 491              		.loc 1 50 13 is_stmt 1
  50:src/Riscv.cpp ****             __asm__ volatile("mv %0, a4" : "=r" (arg4));    //stack
 492              		.loc 1 50 56 is_stmt 0
 493              	# 50 "src/Riscv.cpp" 1
 494              		mv a1, a3
 495              	# 0 "" 2
 496              	.LVL17:
  51:src/Riscv.cpp **** 
 497              		.loc 1 51 13 is_stmt 1
  51:src/Riscv.cpp **** 
 498              		.loc 1 51 56 is_stmt 0
 499              	# 51 "src/Riscv.cpp" 1
 500              		mv a2, a4
 501              	# 0 "" 2
 502              	.LVL18:
  54:src/Riscv.cpp ****             *arg1=t;
 503              		.loc 1 54 13 is_stmt 1
  54:src/Riscv.cpp ****             *arg1=t;
 504              		.loc 1 54 47 is_stmt 0
 505              	#NO_APP
 506 0158 97000000 		call	_ZN7_thread12createThreadEPFvPvES0_Pm@plt
 506      E7800000 
 507              	.LVL19:
  55:src/Riscv.cpp **** 
 508              		.loc 1 55 13 is_stmt 1
  55:src/Riscv.cpp **** 
 509              		.loc 1 55 18 is_stmt 0
 510 0160 2330AA00 		sd	a0,0(s4)
GAS LISTING /tmp/ccjUSfAh.s 			page 19


  57:src/Riscv.cpp ****             if(t!= nullptr)ret=0;
 511              		.loc 1 57 13 is_stmt 1
  58:src/Riscv.cpp ****             else ret =-1;
 512              		.loc 1 58 13
 513 0164 630C0500 		beqz	a0,.L22
  58:src/Riscv.cpp ****             else ret =-1;
 514              		.loc 1 58 31 is_stmt 0
 515 0168 93070000 		li	a5,0
 516              	.L6:
 517              	.LVL20:
  63:src/Riscv.cpp **** 
 518              		.loc 1 63 13 is_stmt 1
  63:src/Riscv.cpp **** 
 519              		.loc 1 63 56 is_stmt 0
 520              	#APP
 521              	# 63 "src/Riscv.cpp" 1
  65:src/Riscv.cpp ****             w_sepc(sepc);
 522              		mv a0, a5
 523              	# 0 "" 2
 524              		.loc 1 65 13 is_stmt 1
 525              	.LVL21:
 526              	#NO_APP
 527              	.LBB149:
 528              	.LBB150:
 183:src/../h/Riscv.hpp **** }
 529              		.loc 2 183 5
 183:src/../h/Riscv.hpp **** }
 530              		.loc 2 183 77 is_stmt 0
 531              	#APP
 532              	# 183 "src/../h/Riscv.hpp" 1
 533              		csrw sstatus, s3
 534              	# 0 "" 2
 535              	.LVL22:
 536              	#NO_APP
 537              	.LBE150:
 538              	.LBE149:
  66:src/Riscv.cpp ****         }
 539              		.loc 1 66 13 is_stmt 1
 540              	.LBB151:
 541              	.LBB152:
 113:src/../h/Riscv.hpp **** }
 542              		.loc 2 113 5
 113:src/../h/Riscv.hpp **** }
 543              		.loc 2 113 65 is_stmt 0
 544              	#APP
 545              	# 113 "src/../h/Riscv.hpp" 1
 114:src/../h/Riscv.hpp **** 
 546              		csrw sepc, s2
 547              	# 0 "" 2
 548              		.loc 2 114 1
 549              	#NO_APP
 550 0178 6FF01FF1 		j	.L5
 551              	.LVL23:
 552              	.L22:
 553              	.LBE152:
 554              	.LBE151:
  59:src/Riscv.cpp **** 
GAS LISTING /tmp/ccjUSfAh.s 			page 20


 555              		.loc 1 59 22
 556 017c 9307F0FF 		li	a5,-1
 557 0180 6FF0DFFE 		j	.L6
 558              	.LVL24:
 559              	.L27:
 560              	.LBE144:
 561              	.LBE339:
 562              	.LBB340:
 563              	.LBB319:
  69:src/Riscv.cpp ****             uint64 sstatus = r_sstatus();
 564              		.loc 1 69 13 is_stmt 1
 565              	.LBB320:
 566              	.LBB321:
 106:src/../h/Riscv.hpp ****     __asm__ volatile ("csrr %[sepc], sepc" : [sepc] "=r"(sepc));
 567              		.loc 2 106 5
 107:src/../h/Riscv.hpp ****     return sepc;
 568              		.loc 2 107 5
 107:src/../h/Riscv.hpp ****     return sepc;
 569              		.loc 2 107 64 is_stmt 0
 570              	#APP
 571              	# 107 "src/../h/Riscv.hpp" 1
 572              		csrr a5, sepc
 573              	# 0 "" 2
 574              	#NO_APP
 575 0188 2334F4F2 		sd	a5,-216(s0)
 108:src/../h/Riscv.hpp **** }
 576              		.loc 2 108 5 is_stmt 1
 108:src/../h/Riscv.hpp **** }
 577              		.loc 2 108 12 is_stmt 0
 578 018c 833484F2 		ld	s1,-216(s0)
 579              	.LVL25:
 580              	.LBE321:
 581              	.LBE320:
  69:src/Riscv.cpp ****             uint64 sstatus = r_sstatus();
 582              		.loc 1 69 38
 583 0190 93844400 		addi	s1,s1,4
 584              	.LVL26:
  70:src/Riscv.cpp ****             //kmem_alloc
 585              		.loc 1 70 13 is_stmt 1
 586              	.LBB322:
 587              	.LBB323:
 176:src/../h/Riscv.hpp ****     __asm__ volatile ("csrr %[sstatus], sstatus" : [sstatus] "=r"(sstatus));
 588              		.loc 2 176 5
 177:src/../h/Riscv.hpp ****     return sstatus;
 589              		.loc 2 177 5
 177:src/../h/Riscv.hpp ****     return sstatus;
 590              		.loc 2 177 76 is_stmt 0
 591              	#APP
 592              	# 177 "src/../h/Riscv.hpp" 1
 593              		csrr a5, sstatus
 594              	# 0 "" 2
 595              	#NO_APP
 596 0198 2330F4F2 		sd	a5,-224(s0)
 178:src/../h/Riscv.hpp **** }
 597              		.loc 2 178 5 is_stmt 1
 178:src/../h/Riscv.hpp **** }
 598              		.loc 2 178 12 is_stmt 0
GAS LISTING /tmp/ccjUSfAh.s 			page 21


 599 019c 033904F2 		ld	s2,-224(s0)
 600              	.LVL27:
 601              	.LBE323:
 602              	.LBE322:
  72:src/Riscv.cpp ****             uint64 ptr= (uint64) MemoryAllocator::kmem_alloc(arg1*MEM_BLOCK_SIZE);
 603              		.loc 1 72 13 is_stmt 1
  72:src/Riscv.cpp ****             uint64 ptr= (uint64) MemoryAllocator::kmem_alloc(arg1*MEM_BLOCK_SIZE);
 604              		.loc 1 72 56 is_stmt 0
 605              	#APP
 606              	# 72 "src/Riscv.cpp" 1
 607              		mv a0, a1
 608              	# 0 "" 2
 609              	.LVL28:
  73:src/Riscv.cpp **** 
 610              		.loc 1 73 13 is_stmt 1
  73:src/Riscv.cpp **** 
 611              		.loc 1 73 61 is_stmt 0
 612              	#NO_APP
 613 01a4 13156500 		slli	a0,a0,6
 614              	.LVL29:
 615 01a8 97000000 		call	_ZN15MemoryAllocator10kmem_allocEm@plt
 615      E7800000 
 616              	.LVL30:
  76:src/Riscv.cpp **** 
 617              		.loc 1 76 13 is_stmt 1
  76:src/Riscv.cpp **** 
 618              		.loc 1 76 56 is_stmt 0
 619              	#APP
 620              	# 76 "src/Riscv.cpp" 1
  78:src/Riscv.cpp ****             w_sepc(sepc);
 621              		mv a0, a0
 622              	# 0 "" 2
 623              		.loc 1 78 13 is_stmt 1
 624              	.LVL31:
 625              	#NO_APP
 626              	.LBB324:
 627              	.LBB325:
 183:src/../h/Riscv.hpp **** }
 628              		.loc 2 183 5
 183:src/../h/Riscv.hpp **** }
 629              		.loc 2 183 77 is_stmt 0
 630              	#APP
 631              	# 183 "src/../h/Riscv.hpp" 1
 632              		csrw sstatus, s2
 633              	# 0 "" 2
 634              	.LVL32:
 635              	#NO_APP
 636              	.LBE325:
 637              	.LBE324:
  79:src/Riscv.cpp ****         }
 638              		.loc 1 79 13 is_stmt 1
 639              	.LBB326:
 640              	.LBB327:
 113:src/../h/Riscv.hpp **** }
 641              		.loc 2 113 5
 113:src/../h/Riscv.hpp **** }
 642              		.loc 2 113 65 is_stmt 0
GAS LISTING /tmp/ccjUSfAh.s 			page 22


 643              	#APP
 644              	# 113 "src/../h/Riscv.hpp" 1
 114:src/../h/Riscv.hpp **** 
 645              		csrw sepc, s1
 646              	# 0 "" 2
 647              		.loc 2 114 1
 648              	#NO_APP
 649 01bc 6FF05FEA 		j	.L3
 650              	.LVL33:
 651              	.L28:
 652              	.LBE327:
 653              	.LBE326:
 654              	.LBE319:
 655              	.LBB328:
 656              	.LBB300:
  82:src/Riscv.cpp ****             uint64 sstatus = r_sstatus();
 657              		.loc 1 82 13 is_stmt 1
 658              	.LBB301:
 659              	.LBB302:
 106:src/../h/Riscv.hpp ****     __asm__ volatile ("csrr %[sepc], sepc" : [sepc] "=r"(sepc));
 660              		.loc 2 106 5
 107:src/../h/Riscv.hpp ****     return sepc;
 661              		.loc 2 107 5
 107:src/../h/Riscv.hpp ****     return sepc;
 662              		.loc 2 107 64 is_stmt 0
 663              	#APP
 664              	# 107 "src/../h/Riscv.hpp" 1
 665              		csrr a5, sepc
 666              	# 0 "" 2
 667              	#NO_APP
 668 01c4 233CF4F2 		sd	a5,-200(s0)
 108:src/../h/Riscv.hpp **** }
 669              		.loc 2 108 5 is_stmt 1
 108:src/../h/Riscv.hpp **** }
 670              		.loc 2 108 12 is_stmt 0
 671 01c8 833484F3 		ld	s1,-200(s0)
 672              	.LVL34:
 673              	.LBE302:
 674              	.LBE301:
  82:src/Riscv.cpp ****             uint64 sstatus = r_sstatus();
 675              		.loc 1 82 38
 676 01cc 93844400 		addi	s1,s1,4
 677              	.LVL35:
  83:src/Riscv.cpp **** 
 678              		.loc 1 83 13 is_stmt 1
 679              	.LBB303:
 680              	.LBB304:
 176:src/../h/Riscv.hpp ****     __asm__ volatile ("csrr %[sstatus], sstatus" : [sstatus] "=r"(sstatus));
 681              		.loc 2 176 5
 177:src/../h/Riscv.hpp ****     return sstatus;
 682              		.loc 2 177 5
 177:src/../h/Riscv.hpp ****     return sstatus;
 683              		.loc 2 177 76 is_stmt 0
 684              	#APP
 685              	# 177 "src/../h/Riscv.hpp" 1
 686              		csrr a5, sstatus
 687              	# 0 "" 2
GAS LISTING /tmp/ccjUSfAh.s 			page 23


 688              	#NO_APP
 689 01d4 2338F4F2 		sd	a5,-208(s0)
 178:src/../h/Riscv.hpp **** }
 690              		.loc 2 178 5 is_stmt 1
 178:src/../h/Riscv.hpp **** }
 691              		.loc 2 178 12 is_stmt 0
 692 01d8 033904F3 		ld	s2,-208(s0)
 693              	.LVL36:
 694              	.LBE304:
 695              	.LBE303:
  85:src/Riscv.cpp ****             int ret = MemoryAllocator::kmem_free((void *) arg1);
 696              		.loc 1 85 13 is_stmt 1
  85:src/Riscv.cpp ****             int ret = MemoryAllocator::kmem_free((void *) arg1);
 697              		.loc 1 85 56 is_stmt 0
 698              	#APP
 699              	# 85 "src/Riscv.cpp" 1
 700              		mv a0, a1
 701              	# 0 "" 2
 702              	.LVL37:
  86:src/Riscv.cpp ****             __asm__ volatile("mv a0, %0" : : "r" (ret));
 703              		.loc 1 86 13 is_stmt 1
  86:src/Riscv.cpp ****             __asm__ volatile("mv a0, %0" : : "r" (ret));
 704              		.loc 1 86 49 is_stmt 0
 705              	#NO_APP
 706 01e0 97000000 		call	_ZN15MemoryAllocator9kmem_freeEPv@plt
 706      E7800000 
 707              	.LVL38:
  87:src/Riscv.cpp **** 
 708              		.loc 1 87 13 is_stmt 1
  87:src/Riscv.cpp **** 
 709              		.loc 1 87 56 is_stmt 0
 710              	#APP
 711              	# 87 "src/Riscv.cpp" 1
  89:src/Riscv.cpp ****             w_sepc(sepc);
 712              		mv a0, a0
 713              	# 0 "" 2
 714              		.loc 1 89 13 is_stmt 1
 715              	.LVL39:
 716              	#NO_APP
 717              	.LBB305:
 718              	.LBB306:
 183:src/../h/Riscv.hpp **** }
 719              		.loc 2 183 5
 183:src/../h/Riscv.hpp **** }
 720              		.loc 2 183 77 is_stmt 0
 721              	#APP
 722              	# 183 "src/../h/Riscv.hpp" 1
 723              		csrw sstatus, s2
 724              	# 0 "" 2
 725              	.LVL40:
 726              	#NO_APP
 727              	.LBE306:
 728              	.LBE305:
  90:src/Riscv.cpp ****         }
 729              		.loc 1 90 13 is_stmt 1
 730              	.LBB307:
 731              	.LBB308:
GAS LISTING /tmp/ccjUSfAh.s 			page 24


 113:src/../h/Riscv.hpp **** }
 732              		.loc 2 113 5
 113:src/../h/Riscv.hpp **** }
 733              		.loc 2 113 65 is_stmt 0
 734              	#APP
 735              	# 113 "src/../h/Riscv.hpp" 1
 114:src/../h/Riscv.hpp **** 
 736              		csrw sepc, s1
 737              	# 0 "" 2
 738              		.loc 2 114 1
 739              	#NO_APP
 740 01f4 6FF0DFE6 		j	.L3
 741              	.LVL41:
 742              	.L29:
 743              	.LBE308:
 744              	.LBE307:
 745              	.LBE300:
 746              	.LBB309:
 747              	.LBB282:
  94:src/Riscv.cpp ****             uint64 sstatus = r_sstatus();
 748              		.loc 1 94 13 is_stmt 1
 749              	.LBB283:
 750              	.LBB284:
 106:src/../h/Riscv.hpp ****     __asm__ volatile ("csrr %[sepc], sepc" : [sepc] "=r"(sepc));
 751              		.loc 2 106 5
 107:src/../h/Riscv.hpp ****     return sepc;
 752              		.loc 2 107 5
 107:src/../h/Riscv.hpp ****     return sepc;
 753              		.loc 2 107 64 is_stmt 0
 754              	#APP
 755              	# 107 "src/../h/Riscv.hpp" 1
 756              		csrr a5, sepc
 757              	# 0 "" 2
 758              	#NO_APP
 759 01fc 2334F4F4 		sd	a5,-184(s0)
 108:src/../h/Riscv.hpp **** }
 760              		.loc 2 108 5 is_stmt 1
 108:src/../h/Riscv.hpp **** }
 761              		.loc 2 108 12 is_stmt 0
 762 0200 833484F4 		ld	s1,-184(s0)
 763              	.LVL42:
 764              	.LBE284:
 765              	.LBE283:
  94:src/Riscv.cpp ****             uint64 sstatus = r_sstatus();
 766              		.loc 1 94 38
 767 0204 93844400 		addi	s1,s1,4
 768              	.LVL43:
  95:src/Riscv.cpp **** 
 769              		.loc 1 95 13 is_stmt 1
 770              	.LBB285:
 771              	.LBB286:
 176:src/../h/Riscv.hpp ****     __asm__ volatile ("csrr %[sstatus], sstatus" : [sstatus] "=r"(sstatus));
 772              		.loc 2 176 5
 177:src/../h/Riscv.hpp ****     return sstatus;
 773              		.loc 2 177 5
 177:src/../h/Riscv.hpp ****     return sstatus;
 774              		.loc 2 177 76 is_stmt 0
GAS LISTING /tmp/ccjUSfAh.s 			page 25


 775              	#APP
 776              	# 177 "src/../h/Riscv.hpp" 1
 777              		csrr a5, sstatus
 778              	# 0 "" 2
 779              	#NO_APP
 780 020c 2330F4F4 		sd	a5,-192(s0)
 178:src/../h/Riscv.hpp **** }
 781              		.loc 2 178 5 is_stmt 1
 178:src/../h/Riscv.hpp **** }
 782              		.loc 2 178 12 is_stmt 0
 783 0210 033904F4 		ld	s2,-192(s0)
 784              	.LVL44:
 785              	.LBE286:
 786              	.LBE285:
  97:src/Riscv.cpp ****             _thread::dispatch();
 787              		.loc 1 97 13 is_stmt 1
  97:src/Riscv.cpp ****             _thread::dispatch();
 788              		.loc 1 97 31 is_stmt 0
 789 0214 97070000 		la	a5,_ZN7_thread7runningE
 789      83B70700 
 790 021c 83B70700 		ld	a5,0(a5)
  97:src/Riscv.cpp ****             _thread::dispatch();
 791              		.loc 1 97 39
 792 0220 13071000 		li	a4,1
 793 0224 2384E702 		sb	a4,40(a5)
  98:src/Riscv.cpp **** 
 794              		.loc 1 98 13 is_stmt 1
  98:src/Riscv.cpp **** 
 795              		.loc 1 98 30 is_stmt 0
 796 0228 97000000 		call	_ZN7_thread8dispatchEv@plt
 796      E7800000 
 797              	.LVL45:
 100:src/Riscv.cpp ****             w_sepc(sepc);
 798              		.loc 1 100 13 is_stmt 1
 799              	.LBB287:
 800              	.LBB288:
 183:src/../h/Riscv.hpp **** }
 801              		.loc 2 183 5
 183:src/../h/Riscv.hpp **** }
 802              		.loc 2 183 77 is_stmt 0
 803              	#APP
 804              	# 183 "src/../h/Riscv.hpp" 1
 805              		csrw sstatus, s2
 806              	# 0 "" 2
 807              	.LVL46:
 808              	#NO_APP
 809              	.LBE288:
 810              	.LBE287:
 101:src/Riscv.cpp **** 
 811              		.loc 1 101 13 is_stmt 1
 812              	.LBB289:
 813              	.LBB290:
 113:src/../h/Riscv.hpp **** }
 814              		.loc 2 113 5
 113:src/../h/Riscv.hpp **** }
 815              		.loc 2 113 65 is_stmt 0
 816              	#APP
GAS LISTING /tmp/ccjUSfAh.s 			page 26


 817              	# 113 "src/../h/Riscv.hpp" 1
 114:src/../h/Riscv.hpp **** 
 818              		csrw sepc, s1
 819              	# 0 "" 2
 820              		.loc 2 114 1
 821              	#NO_APP
 822 0238 6FF09FE2 		j	.L3
 823              	.LVL47:
 824              	.L30:
 825              	.LBE290:
 826              	.LBE289:
 827              	.LBE282:
 828              	.LBB291:
 829              	.LBB265:
 106:src/Riscv.cpp ****             uint64 sstatus = r_sstatus();
 830              		.loc 1 106 13 is_stmt 1
 831              	.LBB266:
 832              	.LBB267:
 106:src/../h/Riscv.hpp ****     __asm__ volatile ("csrr %[sepc], sepc" : [sepc] "=r"(sepc));
 833              		.loc 2 106 5
 107:src/../h/Riscv.hpp ****     return sepc;
 834              		.loc 2 107 5
 107:src/../h/Riscv.hpp ****     return sepc;
 835              		.loc 2 107 64 is_stmt 0
 836              	#APP
 837              	# 107 "src/../h/Riscv.hpp" 1
 838              		csrr a5, sepc
 839              	# 0 "" 2
 840              	#NO_APP
 841 0240 233CF4F4 		sd	a5,-168(s0)
 108:src/../h/Riscv.hpp **** }
 842              		.loc 2 108 5 is_stmt 1
 108:src/../h/Riscv.hpp **** }
 843              		.loc 2 108 12 is_stmt 0
 844 0244 833484F5 		ld	s1,-168(s0)
 845              	.LVL48:
 846              	.LBE267:
 847              	.LBE266:
 106:src/Riscv.cpp ****             uint64 sstatus = r_sstatus();
 848              		.loc 1 106 38
 849 0248 93844400 		addi	s1,s1,4
 850              	.LVL49:
 107:src/Riscv.cpp **** 
 851              		.loc 1 107 13 is_stmt 1
 852              	.LBB268:
 853              	.LBB269:
 176:src/../h/Riscv.hpp ****     __asm__ volatile ("csrr %[sstatus], sstatus" : [sstatus] "=r"(sstatus));
 854              		.loc 2 176 5
 177:src/../h/Riscv.hpp ****     return sstatus;
 855              		.loc 2 177 5
 177:src/../h/Riscv.hpp ****     return sstatus;
 856              		.loc 2 177 76 is_stmt 0
 857              	#APP
 858              	# 177 "src/../h/Riscv.hpp" 1
 859              		csrr a5, sstatus
 860              	# 0 "" 2
 861              	#NO_APP
GAS LISTING /tmp/ccjUSfAh.s 			page 27


 862 0250 2338F4F4 		sd	a5,-176(s0)
 178:src/../h/Riscv.hpp **** }
 863              		.loc 2 178 5 is_stmt 1
 178:src/../h/Riscv.hpp **** }
 864              		.loc 2 178 12 is_stmt 0
 865 0254 033904F5 		ld	s2,-176(s0)
 866              	.LVL50:
 867              	.LBE269:
 868              	.LBE268:
 110:src/Riscv.cpp **** 
 869              		.loc 1 110 13 is_stmt 1
 110:src/Riscv.cpp **** 
 870              		.loc 1 110 30 is_stmt 0
 871 0258 97000000 		call	_ZN7_thread8dispatchEv@plt
 871      E7800000 
 872              	.LVL51:
 112:src/Riscv.cpp ****             w_sepc(sepc);
 873              		.loc 1 112 13 is_stmt 1
 874              	.LBB270:
 875              	.LBB271:
 183:src/../h/Riscv.hpp **** }
 876              		.loc 2 183 5
 183:src/../h/Riscv.hpp **** }
 877              		.loc 2 183 77 is_stmt 0
 878              	#APP
 879              	# 183 "src/../h/Riscv.hpp" 1
 880              		csrw sstatus, s2
 881              	# 0 "" 2
 882              	.LVL52:
 883              	#NO_APP
 884              	.LBE271:
 885              	.LBE270:
 113:src/Riscv.cpp ****         }
 886              		.loc 1 113 13 is_stmt 1
 887              	.LBB272:
 888              	.LBB273:
 113:src/../h/Riscv.hpp **** }
 889              		.loc 2 113 5
 113:src/../h/Riscv.hpp **** }
 890              		.loc 2 113 65 is_stmt 0
 891              	#APP
 892              	# 113 "src/../h/Riscv.hpp" 1
 114:src/../h/Riscv.hpp **** 
 893              		csrw sepc, s1
 894              	# 0 "" 2
 895              		.loc 2 114 1
 896              	#NO_APP
 897 0268 6FF09FDF 		j	.L3
 898              	.LVL53:
 899              	.L31:
 900              	.LBE273:
 901              	.LBE272:
 902              	.LBE265:
 903              	.LBB274:
 904              	.LBB249:
 117:src/Riscv.cpp ****             uint64 sstatus = r_sstatus();
 905              		.loc 1 117 13 is_stmt 1
GAS LISTING /tmp/ccjUSfAh.s 			page 28


 906              	.LBB250:
 907              	.LBB251:
 106:src/../h/Riscv.hpp ****     __asm__ volatile ("csrr %[sepc], sepc" : [sepc] "=r"(sepc));
 908              		.loc 2 106 5
 107:src/../h/Riscv.hpp ****     return sepc;
 909              		.loc 2 107 5
 107:src/../h/Riscv.hpp ****     return sepc;
 910              		.loc 2 107 64 is_stmt 0
 911              	#APP
 912              	# 107 "src/../h/Riscv.hpp" 1
 913              		csrr a5, sepc
 914              	# 0 "" 2
 915              	#NO_APP
 916 0270 2334F4F6 		sd	a5,-152(s0)
 108:src/../h/Riscv.hpp **** }
 917              		.loc 2 108 5 is_stmt 1
 108:src/../h/Riscv.hpp **** }
 918              		.loc 2 108 12 is_stmt 0
 919 0274 833484F6 		ld	s1,-152(s0)
 920              	.LVL54:
 921              	.LBE251:
 922              	.LBE250:
 117:src/Riscv.cpp ****             uint64 sstatus = r_sstatus();
 923              		.loc 1 117 38
 924 0278 93844400 		addi	s1,s1,4
 925              	.LVL55:
 118:src/Riscv.cpp **** 
 926              		.loc 1 118 13 is_stmt 1
 927              	.LBB252:
 928              	.LBB253:
 176:src/../h/Riscv.hpp ****     __asm__ volatile ("csrr %[sstatus], sstatus" : [sstatus] "=r"(sstatus));
 929              		.loc 2 176 5
 177:src/../h/Riscv.hpp ****     return sstatus;
 930              		.loc 2 177 5
 177:src/../h/Riscv.hpp ****     return sstatus;
 931              		.loc 2 177 76 is_stmt 0
 932              	#APP
 933              	# 177 "src/../h/Riscv.hpp" 1
 934              		csrr a5, sstatus
 935              	# 0 "" 2
 936              	#NO_APP
 937 0280 2330F4F6 		sd	a5,-160(s0)
 178:src/../h/Riscv.hpp **** }
 938              		.loc 2 178 5 is_stmt 1
 178:src/../h/Riscv.hpp **** }
 939              		.loc 2 178 12 is_stmt 0
 940 0284 033904F6 		ld	s2,-160(s0)
 941              	.LVL56:
 942              	.LBE253:
 943              	.LBE252:
 120:src/Riscv.cpp ****             _thread::dispatch();
 944              		.loc 1 120 13 is_stmt 1
 120:src/Riscv.cpp ****             _thread::dispatch();
 945              		.loc 1 120 39 is_stmt 0
 946 0288 97070000 		la	a5,_ZN7_thread16timeSliceCounterE
 946      83B70700 
 947 0290 23B00700 		sd	zero,0(a5)
GAS LISTING /tmp/ccjUSfAh.s 			page 29


 121:src/Riscv.cpp **** 
 948              		.loc 1 121 13 is_stmt 1
 121:src/Riscv.cpp **** 
 949              		.loc 1 121 30 is_stmt 0
 950 0294 97000000 		call	_ZN7_thread8dispatchEv@plt
 950      E7800000 
 951              	.LVL57:
 123:src/Riscv.cpp ****             w_sepc(sepc);
 952              		.loc 1 123 13 is_stmt 1
 953              	.LBB254:
 954              	.LBB255:
 183:src/../h/Riscv.hpp **** }
 955              		.loc 2 183 5
 183:src/../h/Riscv.hpp **** }
 956              		.loc 2 183 77 is_stmt 0
 957              	#APP
 958              	# 183 "src/../h/Riscv.hpp" 1
 959              		csrw sstatus, s2
 960              	# 0 "" 2
 961              	.LVL58:
 962              	#NO_APP
 963              	.LBE255:
 964              	.LBE254:
 124:src/Riscv.cpp ****         }
 965              		.loc 1 124 13 is_stmt 1
 966              	.LBB256:
 967              	.LBB257:
 113:src/../h/Riscv.hpp **** }
 968              		.loc 2 113 5
 113:src/../h/Riscv.hpp **** }
 969              		.loc 2 113 65 is_stmt 0
 970              	#APP
 971              	# 113 "src/../h/Riscv.hpp" 1
 114:src/../h/Riscv.hpp **** 
 972              		csrw sepc, s1
 973              	# 0 "" 2
 974              		.loc 2 114 1
 975              	#NO_APP
 976 02a4 6FF0DFDB 		j	.L3
 977              	.LVL59:
 978              	.L32:
 979              	.LBE257:
 980              	.LBE256:
 981              	.LBE249:
 982              	.LBB258:
 983              	.LBB230:
 127:src/Riscv.cpp ****             uint64 sstatus = r_sstatus();
 984              		.loc 1 127 13 is_stmt 1
 985              	.LBB231:
 986              	.LBB232:
 106:src/../h/Riscv.hpp ****     __asm__ volatile ("csrr %[sepc], sepc" : [sepc] "=r"(sepc));
 987              		.loc 2 106 5
 107:src/../h/Riscv.hpp ****     return sepc;
 988              		.loc 2 107 5
 107:src/../h/Riscv.hpp ****     return sepc;
 989              		.loc 2 107 64 is_stmt 0
 990              	#APP
GAS LISTING /tmp/ccjUSfAh.s 			page 30


 991              	# 107 "src/../h/Riscv.hpp" 1
 992              		csrr a5, sepc
 993              	# 0 "" 2
 994              	#NO_APP
 995 02ac 233CF4F6 		sd	a5,-136(s0)
 108:src/../h/Riscv.hpp **** }
 996              		.loc 2 108 5 is_stmt 1
 108:src/../h/Riscv.hpp **** }
 997              		.loc 2 108 12 is_stmt 0
 998 02b0 833484F7 		ld	s1,-136(s0)
 999              	.LVL60:
 1000              	.LBE232:
 1001              	.LBE231:
 127:src/Riscv.cpp ****             uint64 sstatus = r_sstatus();
 1002              		.loc 1 127 38
 1003 02b4 93844400 		addi	s1,s1,4
 1004              	.LVL61:
 128:src/Riscv.cpp **** 
 1005              		.loc 1 128 13 is_stmt 1
 1006              	.LBB233:
 1007              	.LBB234:
 176:src/../h/Riscv.hpp ****     __asm__ volatile ("csrr %[sstatus], sstatus" : [sstatus] "=r"(sstatus));
 1008              		.loc 2 176 5
 177:src/../h/Riscv.hpp ****     return sstatus;
 1009              		.loc 2 177 5
 177:src/../h/Riscv.hpp ****     return sstatus;
 1010              		.loc 2 177 76 is_stmt 0
 1011              	#APP
 1012              	# 177 "src/../h/Riscv.hpp" 1
 1013              		csrr a5, sstatus
 1014              	# 0 "" 2
 1015              	#NO_APP
 1016 02bc 2338F4F6 		sd	a5,-144(s0)
 178:src/../h/Riscv.hpp **** }
 1017              		.loc 2 178 5 is_stmt 1
 178:src/../h/Riscv.hpp **** }
 1018              		.loc 2 178 12 is_stmt 0
 1019 02c0 033904F7 		ld	s2,-144(s0)
 1020              	.LVL62:
 1021              	.LBE234:
 1022              	.LBE233:
 130:src/Riscv.cpp ****            uint64 arg2;
 1023              		.loc 1 130 12 is_stmt 1
 131:src/Riscv.cpp **** 
 1024              		.loc 1 131 12
 133:src/Riscv.cpp ****             __asm__ volatile("ld a2, 12*8(fp)"); //a2
 1025              		.loc 1 133 13
 133:src/Riscv.cpp ****             __asm__ volatile("ld a2, 12*8(fp)"); //a2
 1026              		.loc 1 133 48 is_stmt 0
 1027              	#APP
 1028              	# 133 "src/Riscv.cpp" 1
 134:src/Riscv.cpp **** 
 1029              		ld a1, 11*8(fp)
 1030              	# 0 "" 2
 1031              		.loc 1 134 13 is_stmt 1
 134:src/Riscv.cpp **** 
 1032              		.loc 1 134 48 is_stmt 0
GAS LISTING /tmp/ccjUSfAh.s 			page 31


 1033              	# 134 "src/Riscv.cpp" 1
 136:src/Riscv.cpp ****             __asm__ volatile("mv %0, a2" : "=r" (arg2));    //init val
 1034              		ld a2, 12*8(fp)
 1035              	# 0 "" 2
 1036              		.loc 1 136 13 is_stmt 1
 136:src/Riscv.cpp ****             __asm__ volatile("mv %0, a2" : "=r" (arg2));    //init val
 1037              		.loc 1 136 56 is_stmt 0
 1038              	# 136 "src/Riscv.cpp" 1
 1039              		mv s3, a1
 1040              	# 0 "" 2
 1041              	.LVL63:
 137:src/Riscv.cpp **** 
 1042              		.loc 1 137 13 is_stmt 1
 137:src/Riscv.cpp **** 
 1043              		.loc 1 137 56 is_stmt 0
 1044              	# 137 "src/Riscv.cpp" 1
 1045              		mv s4, a2
 1046              	# 0 "" 2
 1047              	.LVL64:
 139:src/Riscv.cpp ****             *arg1=sem;
 1048              		.loc 1 139 13 is_stmt 1
 139:src/Riscv.cpp ****             *arg1=sem;
 1049              		.loc 1 139 50 is_stmt 0
 1050              	#NO_APP
 1051 02d4 13058001 		li	a0,24
 1052 02d8 97000000 		call	_ZN10KSemaphorenwEm@plt
 1052      E7800000 
 1053              	.LVL65:
 1054              	.LBB235:
 1055              	.LBB236:
 1056              		.file 3 "src/../h/KSemaphore.hpp"
   1:src/../h/KSemaphore.hpp **** //
   2:src/../h/KSemaphore.hpp **** // Created by os on 6/25/22.
   3:src/../h/KSemaphore.hpp **** //
   4:src/../h/KSemaphore.hpp **** 
   5:src/../h/KSemaphore.hpp **** #ifndef PROJECT_BASE_V1_1_KSEMAPHORE_HPP
   6:src/../h/KSemaphore.hpp **** #define PROJECT_BASE_V1_1_KSEMAPHORE_HPP
   7:src/../h/KSemaphore.hpp **** 
   8:src/../h/KSemaphore.hpp **** 
   9:src/../h/KSemaphore.hpp **** #include "_thread.hpp"
  10:src/../h/KSemaphore.hpp **** #include "List.hpp"
  11:src/../h/KSemaphore.hpp **** 
  12:src/../h/KSemaphore.hpp **** class KSemaphore {
  13:src/../h/KSemaphore.hpp **** public:
  14:src/../h/KSemaphore.hpp ****     KSemaphore(uint64 init=1): val(init){
 1057              		.loc 3 14 40
 1058 02e0 23204501 		sw	s4,0(a0)
 1059              	.LVL66:
 1060              	.LBB237:
 1061              	.LBB238:
 1062              		.file 4 "src/../h/List.hpp"
   1:src/../h/List.hpp **** //
   2:src/../h/List.hpp **** // Created by os on 6/17/22.
   3:src/../h/List.hpp **** //
   4:src/../h/List.hpp **** 
   5:src/../h/List.hpp **** #ifndef PROJECT_BASE_V1_1_LIST_HPP
   6:src/../h/List.hpp **** #define PROJECT_BASE_V1_1_LIST_HPP
GAS LISTING /tmp/ccjUSfAh.s 			page 32


   7:src/../h/List.hpp **** 
   8:src/../h/List.hpp **** #include "MemoryAllocator.hpp"
   9:src/../h/List.hpp **** 
  10:src/../h/List.hpp **** template<typename T>
  11:src/../h/List.hpp **** class List
  12:src/../h/List.hpp **** {
  13:src/../h/List.hpp **** private:
  14:src/../h/List.hpp ****     struct Elem
  15:src/../h/List.hpp ****     {
  16:src/../h/List.hpp ****         T *data;
  17:src/../h/List.hpp ****         Elem *next;
  18:src/../h/List.hpp **** 
  19:src/../h/List.hpp ****         Elem(T *data, Elem *next) : data(data), next(next) {}
  20:src/../h/List.hpp **** 
  21:src/../h/List.hpp ****     };
  22:src/../h/List.hpp **** 
  23:src/../h/List.hpp ****     Elem *head, *tail;
  24:src/../h/List.hpp **** 
  25:src/../h/List.hpp **** public:
  26:src/../h/List.hpp ****     List() : head(0), tail(0) {}
 1063              		.loc 4 26 29
 1064 02e4 23340500 		sd	zero,8(a0)
 1065 02e8 23380500 		sd	zero,16(a0)
 1066              	.LVL67:
 1067              	.LBE238:
 1068              	.LBE237:
 1069              	.LBE236:
 1070              	.LBE235:
 140:src/Riscv.cpp **** 
 1071              		.loc 1 140 13 is_stmt 1
 140:src/Riscv.cpp **** 
 1072              		.loc 1 140 18 is_stmt 0
 1073 02ec 23B0A900 		sd	a0,0(s3)
 142:src/Riscv.cpp ****             if(sem!= nullptr)ret=0;
 1074              		.loc 1 142 13 is_stmt 1
 1075              	.LVL68:
 143:src/Riscv.cpp ****             else ret=-1;
 1076              		.loc 1 143 13
 1077 02f0 630C0500 		beqz	a0,.L23
 143:src/Riscv.cpp ****             else ret=-1;
 1078              		.loc 1 143 33 is_stmt 0
 1079 02f4 93070000 		li	a5,0
 1080              	.L13:
 1081              	.LVL69:
 146:src/Riscv.cpp **** 
 1082              		.loc 1 146 13 is_stmt 1
 146:src/Riscv.cpp **** 
 1083              		.loc 1 146 56 is_stmt 0
 1084              	#APP
 1085              	# 146 "src/Riscv.cpp" 1
 148:src/Riscv.cpp ****             w_sepc(sepc);
 1086              		mv a0, a5
 1087              	# 0 "" 2
 1088              		.loc 1 148 13 is_stmt 1
 1089              	.LVL70:
 1090              	#NO_APP
 1091              	.LBB239:
GAS LISTING /tmp/ccjUSfAh.s 			page 33


 1092              	.LBB240:
 183:src/../h/Riscv.hpp **** }
 1093              		.loc 2 183 5
 183:src/../h/Riscv.hpp **** }
 1094              		.loc 2 183 77 is_stmt 0
 1095              	#APP
 1096              	# 183 "src/../h/Riscv.hpp" 1
 1097              		csrw sstatus, s2
 1098              	# 0 "" 2
 1099              	.LVL71:
 1100              	#NO_APP
 1101              	.LBE240:
 1102              	.LBE239:
 149:src/Riscv.cpp ****         }
 1103              		.loc 1 149 13 is_stmt 1
 1104              	.LBB241:
 1105              	.LBB242:
 113:src/../h/Riscv.hpp **** }
 1106              		.loc 2 113 5
 113:src/../h/Riscv.hpp **** }
 1107              		.loc 2 113 65 is_stmt 0
 1108              	#APP
 1109              	# 113 "src/../h/Riscv.hpp" 1
 114:src/../h/Riscv.hpp **** 
 1110              		csrw sepc, s1
 1111              	# 0 "" 2
 1112              		.loc 2 114 1
 1113              	#NO_APP
 1114 0304 6FF0DFD5 		j	.L3
 1115              	.LVL72:
 1116              	.L23:
 1117              	.LBE242:
 1118              	.LBE241:
 144:src/Riscv.cpp **** 
 1119              		.loc 1 144 21
 1120 0308 9307F0FF 		li	a5,-1
 1121 030c 6FF0DFFE 		j	.L13
 1122              	.LVL73:
 1123              	.L33:
 1124              	.LBE230:
 1125              	.LBB243:
 1126              	.LBB208:
 152:src/Riscv.cpp ****             uint64 sstatus = r_sstatus();
 1127              		.loc 1 152 13 is_stmt 1
 1128              	.LBB209:
 1129              	.LBB210:
 106:src/../h/Riscv.hpp ****     __asm__ volatile ("csrr %[sepc], sepc" : [sepc] "=r"(sepc));
 1130              		.loc 2 106 5
 107:src/../h/Riscv.hpp ****     return sepc;
 1131              		.loc 2 107 5
 107:src/../h/Riscv.hpp ****     return sepc;
 1132              		.loc 2 107 64 is_stmt 0
 1133              	#APP
 1134              	# 107 "src/../h/Riscv.hpp" 1
 1135              		csrr a5, sepc
 1136              	# 0 "" 2
 1137              	#NO_APP
GAS LISTING /tmp/ccjUSfAh.s 			page 34


 1138 0314 2334F4F8 		sd	a5,-120(s0)
 108:src/../h/Riscv.hpp **** }
 1139              		.loc 2 108 5 is_stmt 1
 108:src/../h/Riscv.hpp **** }
 1140              		.loc 2 108 12 is_stmt 0
 1141 0318 833984F8 		ld	s3,-120(s0)
 1142              	.LBE210:
 1143              	.LBE209:
 152:src/Riscv.cpp ****             uint64 sstatus = r_sstatus();
 1144              		.loc 1 152 38
 1145 031c 93894900 		addi	s3,s3,4
 1146              	.LVL74:
 153:src/Riscv.cpp **** 
 1147              		.loc 1 153 13 is_stmt 1
 1148              	.LBB211:
 1149              	.LBB212:
 176:src/../h/Riscv.hpp ****     __asm__ volatile ("csrr %[sstatus], sstatus" : [sstatus] "=r"(sstatus));
 1150              		.loc 2 176 5
 177:src/../h/Riscv.hpp ****     return sstatus;
 1151              		.loc 2 177 5
 177:src/../h/Riscv.hpp ****     return sstatus;
 1152              		.loc 2 177 76 is_stmt 0
 1153              	#APP
 1154              	# 177 "src/../h/Riscv.hpp" 1
 1155              		csrr a5, sstatus
 1156              	# 0 "" 2
 1157              	#NO_APP
 1158 0324 2330F4F8 		sd	a5,-128(s0)
 178:src/../h/Riscv.hpp **** }
 1159              		.loc 2 178 5 is_stmt 1
 178:src/../h/Riscv.hpp **** }
 1160              		.loc 2 178 12 is_stmt 0
 1161 0328 033A04F8 		ld	s4,-128(s0)
 1162              	.LVL75:
 1163              	.LBE212:
 1164              	.LBE211:
 155:src/Riscv.cpp **** 
 1165              		.loc 1 155 13 is_stmt 1
 158:src/Riscv.cpp **** 
 1166              		.loc 1 158 13
 158:src/Riscv.cpp **** 
 1167              		.loc 1 158 48 is_stmt 0
 1168              	#APP
 1169              	# 158 "src/Riscv.cpp" 1
 160:src/Riscv.cpp **** 
 1170              		ld a1, 11*8(fp)
 1171              	# 0 "" 2
 1172              		.loc 1 160 13 is_stmt 1
 160:src/Riscv.cpp **** 
 1173              		.loc 1 160 56 is_stmt 0
 1174              	# 160 "src/Riscv.cpp" 1
 1175              		mv s1, a1
 1176              	# 0 "" 2
 1177              	.LVL76:
 162:src/Riscv.cpp **** 
 1178              		.loc 1 162 13 is_stmt 1
 1179              	#NO_APP
GAS LISTING /tmp/ccjUSfAh.s 			page 35


 1180 0334 6F000003 		j	.L17
 1181              	.LVL77:
 1182              	.L16:
 1183              	.LBB213:
 1184              	.LBB214:
 1185              	.LBB215:
  27:src/../h/List.hpp **** 
  28:src/../h/List.hpp ****     List(const List<T> &) = delete;
  29:src/../h/List.hpp **** 
  30:src/../h/List.hpp ****     List<T> &operator=(const List<T> &) = delete;
  31:src/../h/List.hpp **** 
  32:src/../h/List.hpp ****     void* operator new(size_t n){
  33:src/../h/List.hpp ****         return MemoryAllocator::kmem_alloc(n);
  34:src/../h/List.hpp ****     }
  35:src/../h/List.hpp **** 
  36:src/../h/List.hpp ****     void operator delete(void* p){
  37:src/../h/List.hpp ****         MemoryAllocator::kmem_free(p);
  38:src/../h/List.hpp ****     }
  39:src/../h/List.hpp **** 
  40:src/../h/List.hpp ****     void addFirst(T *data)
  41:src/../h/List.hpp ****     {
  42:src/../h/List.hpp ****         Elem *elem = (Elem*)MemoryAllocator::kmem_alloc(sizeof (Elem));
  43:src/../h/List.hpp ****         elem->data=data;
  44:src/../h/List.hpp ****         elem->next=head;
  45:src/../h/List.hpp ****         head = elem;
  46:src/../h/List.hpp ****         if (!tail) { tail = head; }
  47:src/../h/List.hpp ****     }
  48:src/../h/List.hpp **** 
  49:src/../h/List.hpp ****     void addLast(T *data)
  50:src/../h/List.hpp ****     {
  51:src/../h/List.hpp ****         Elem *elem = (Elem*)MemoryAllocator::kmem_alloc(sizeof (Elem));
  52:src/../h/List.hpp ****         elem->data=data;
  53:src/../h/List.hpp ****         elem->next=0;
  54:src/../h/List.hpp ****         if (tail)
  55:src/../h/List.hpp ****         {
  56:src/../h/List.hpp ****             tail->next = elem;
  57:src/../h/List.hpp ****             tail = elem;
  58:src/../h/List.hpp ****         } else
  59:src/../h/List.hpp ****         {
  60:src/../h/List.hpp ****             head = tail = elem;
  61:src/../h/List.hpp ****         }
  62:src/../h/List.hpp ****     }
  63:src/../h/List.hpp **** 
  64:src/../h/List.hpp ****     T *removeFirst()
  65:src/../h/List.hpp ****     {
  66:src/../h/List.hpp ****         if (!head) { return 0; }
  67:src/../h/List.hpp **** 
  68:src/../h/List.hpp ****         Elem *elem = head;
  69:src/../h/List.hpp ****         head = head->next;
  70:src/../h/List.hpp ****         if (!head) { tail = 0; }
  71:src/../h/List.hpp **** 
  72:src/../h/List.hpp ****         T *ret = elem->data;
 1186              		.loc 4 72 12 is_stmt 0
 1187 0338 03390500 		ld	s2,0(a0)
 1188              	.LVL78:
  73:src/../h/List.hpp ****         MemoryAllocator::kmem_free(elem);
 1189              		.loc 4 73 35
GAS LISTING /tmp/ccjUSfAh.s 			page 36


 1190 033c 97000000 		call	_ZN15MemoryAllocator9kmem_freeEPv@plt
 1190      E7800000 
 1191              	.LVL79:
 1192              	.LBE215:
 1193              	.LBE214:
 167:src/Riscv.cpp ****                 sem->val++;
 1194              		.loc 1 167 17 is_stmt 1
 167:src/Riscv.cpp ****                 sem->val++;
 1195              		.loc 1 167 29 is_stmt 0
 1196 0344 93071000 		li	a5,1
 1197 0348 230CF902 		sb	a5,56(s2)
 168:src/Riscv.cpp ****                 Scheduler::put(t);
 1198              		.loc 1 168 17 is_stmt 1
 168:src/Riscv.cpp ****                 Scheduler::put(t);
 1199              		.loc 1 168 22 is_stmt 0
 1200 034c 83A70400 		lw	a5,0(s1)
 168:src/Riscv.cpp ****                 Scheduler::put(t);
 1201              		.loc 1 168 25
 1202 0350 9B871700 		addiw	a5,a5,1
 1203 0354 23A0F400 		sw	a5,0(s1)
 169:src/Riscv.cpp ****             }
 1204              		.loc 1 169 17 is_stmt 1
 169:src/Riscv.cpp ****             }
 1205              		.loc 1 169 31 is_stmt 0
 1206 0358 13050900 		mv	a0,s2
 1207 035c 97000000 		call	_ZN9Scheduler3putEP7_thread@plt
 1207      E7800000 
 1208              	.LVL80:
 1209              	.L17:
 1210              	.LBE213:
 165:src/Riscv.cpp ****                 _thread* t = sem->blocked.removeFirst();
 1211              		.loc 1 165 13 is_stmt 1
 165:src/Riscv.cpp ****                 _thread* t = sem->blocked.removeFirst();
 1212              		.loc 1 165 43
 1213              	.LBB218:
 1214              	.LBB219:
  74:src/../h/List.hpp ****         return ret;
  75:src/../h/List.hpp ****     }
  76:src/../h/List.hpp **** 
  77:src/../h/List.hpp ****     T *peekFirst()
  78:src/../h/List.hpp ****     {
  79:src/../h/List.hpp ****         if (!head) { return 0; }
 1215              		.loc 4 79 14 is_stmt 0
 1216 0364 03B58400 		ld	a0,8(s1)
 1217              		.loc 4 79 9
 1218 0368 63000502 		beqz	a0,.L15
  80:src/../h/List.hpp ****         return head->data;
 1219              		.loc 4 80 22
 1220 036c 83370500 		ld	a5,0(a0)
 1221              	.LVL81:
 1222              	.LBE219:
 1223              	.LBE218:
 165:src/Riscv.cpp ****                 _thread* t = sem->blocked.removeFirst();
 1224              		.loc 1 165 43
 1225 0370 638C0700 		beqz	a5,.L15
 1226              	.LBB220:
 166:src/Riscv.cpp ****                 t->deblocked=true;
GAS LISTING /tmp/ccjUSfAh.s 			page 37


 1227              		.loc 1 166 17 is_stmt 1
 1228              	.LVL82:
 1229              	.LBB217:
 1230              	.LBB216:
  69:src/../h/List.hpp ****         if (!head) { tail = 0; }
 1231              		.loc 4 69 22 is_stmt 0
 1232 0374 83378500 		ld	a5,8(a0)
  69:src/../h/List.hpp ****         if (!head) { tail = 0; }
 1233              		.loc 4 69 9
 1234 0378 23B4F400 		sd	a5,8(s1)
  70:src/../h/List.hpp **** 
 1235              		.loc 4 70 9
 1236 037c E39E07FA 		bnez	a5,.L16
  70:src/../h/List.hpp **** 
 1237              		.loc 4 70 22
 1238 0380 23B80400 		sd	zero,16(s1)
 1239 0384 6FF05FFB 		j	.L16
 1240              	.LVL83:
 1241              	.L15:
 1242              	.LBE216:
 1243              	.LBE217:
 1244              	.LBE220:
 172:src/Riscv.cpp **** 
 1245              		.loc 1 172 13 is_stmt 1
 172:src/Riscv.cpp **** 
 1246              		.loc 1 172 23 is_stmt 0
 1247 0388 63880400 		beqz	s1,.L18
 172:src/Riscv.cpp **** 
 1248              		.loc 1 172 20 discriminator 1
 1249 038c 13850400 		mv	a0,s1
 1250 0390 97000000 		call	_ZN10KSemaphoredlEPv@plt
 1250      E7800000 
 1251              	.LVL84:
 1252              	.L18:
 174:src/Riscv.cpp ****             w_sepc(sepc);
 1253              		.loc 1 174 13 is_stmt 1
 1254              	.LBB221:
 1255              	.LBB222:
 183:src/../h/Riscv.hpp **** }
 1256              		.loc 2 183 5
 183:src/../h/Riscv.hpp **** }
 1257              		.loc 2 183 77 is_stmt 0
 1258              	#APP
 1259              	# 183 "src/../h/Riscv.hpp" 1
 1260              		csrw sstatus, s4
 1261              	# 0 "" 2
 1262              	.LVL85:
 1263              	#NO_APP
 1264              	.LBE222:
 1265              	.LBE221:
 175:src/Riscv.cpp ****         }
 1266              		.loc 1 175 13 is_stmt 1
 1267              	.LBB223:
 1268              	.LBB224:
 113:src/../h/Riscv.hpp **** }
 1269              		.loc 2 113 5
 113:src/../h/Riscv.hpp **** }
GAS LISTING /tmp/ccjUSfAh.s 			page 38


 1270              		.loc 2 113 65 is_stmt 0
 1271              	#APP
 1272              	# 113 "src/../h/Riscv.hpp" 1
 114:src/../h/Riscv.hpp **** 
 1273              		csrw sepc, s3
 1274              	# 0 "" 2
 1275              		.loc 2 114 1
 1276              	#NO_APP
 1277 03a0 6FF01FCC 		j	.L3
 1278              	.LVL86:
 1279              	.L34:
 1280              	.LBE224:
 1281              	.LBE223:
 1282              	.LBE208:
 1283              	.LBB225:
 1284              	.LBB195:
 178:src/Riscv.cpp ****             uint64 sstatus = r_sstatus();
 1285              		.loc 1 178 13 is_stmt 1
 1286              	.LBB196:
 1287              	.LBB197:
 106:src/../h/Riscv.hpp ****     __asm__ volatile ("csrr %[sepc], sepc" : [sepc] "=r"(sepc));
 1288              		.loc 2 106 5
 107:src/../h/Riscv.hpp ****     return sepc;
 1289              		.loc 2 107 5
 107:src/../h/Riscv.hpp ****     return sepc;
 1290              		.loc 2 107 64 is_stmt 0
 1291              	#APP
 1292              	# 107 "src/../h/Riscv.hpp" 1
 1293              		csrr a5, sepc
 1294              	# 0 "" 2
 1295              	#NO_APP
 1296 03a8 233CF4F8 		sd	a5,-104(s0)
 108:src/../h/Riscv.hpp **** }
 1297              		.loc 2 108 5 is_stmt 1
 108:src/../h/Riscv.hpp **** }
 1298              		.loc 2 108 12 is_stmt 0
 1299 03ac 833484F9 		ld	s1,-104(s0)
 1300              	.LVL87:
 1301              	.LBE197:
 1302              	.LBE196:
 178:src/Riscv.cpp ****             uint64 sstatus = r_sstatus();
 1303              		.loc 1 178 38
 1304 03b0 93844400 		addi	s1,s1,4
 1305              	.LVL88:
 179:src/Riscv.cpp **** 
 1306              		.loc 1 179 13 is_stmt 1
 1307              	.LBB198:
 1308              	.LBB199:
 176:src/../h/Riscv.hpp ****     __asm__ volatile ("csrr %[sstatus], sstatus" : [sstatus] "=r"(sstatus));
 1309              		.loc 2 176 5
 177:src/../h/Riscv.hpp ****     return sstatus;
 1310              		.loc 2 177 5
 177:src/../h/Riscv.hpp ****     return sstatus;
 1311              		.loc 2 177 76 is_stmt 0
 1312              	#APP
 1313              	# 177 "src/../h/Riscv.hpp" 1
 1314              		csrr a5, sstatus
GAS LISTING /tmp/ccjUSfAh.s 			page 39


 1315              	# 0 "" 2
 1316              	#NO_APP
 1317 03b8 2338F4F8 		sd	a5,-112(s0)
 178:src/../h/Riscv.hpp **** }
 1318              		.loc 2 178 5 is_stmt 1
 178:src/../h/Riscv.hpp **** }
 1319              		.loc 2 178 12 is_stmt 0
 1320 03bc 033904F9 		ld	s2,-112(s0)
 1321              	.LVL89:
 1322              	.LBE199:
 1323              	.LBE198:
 181:src/Riscv.cpp **** 
 1324              		.loc 1 181 13 is_stmt 1
 183:src/Riscv.cpp **** 
 1325              		.loc 1 183 13
 183:src/Riscv.cpp **** 
 1326              		.loc 1 183 48 is_stmt 0
 1327              	#APP
 1328              	# 183 "src/Riscv.cpp" 1
 185:src/Riscv.cpp **** 
 1329              		ld a1, 11*8(fp)
 1330              	# 0 "" 2
 1331              		.loc 1 185 13 is_stmt 1
 185:src/Riscv.cpp **** 
 1332              		.loc 1 185 56 is_stmt 0
 1333              	# 185 "src/Riscv.cpp" 1
 1334              		mv a0, a1
 1335              	# 0 "" 2
 1336              	.LVL90:
 189:src/Riscv.cpp **** 
 1337              		.loc 1 189 13 is_stmt 1
 189:src/Riscv.cpp **** 
 1338              		.loc 1 189 36 is_stmt 0
 1339              	#NO_APP
 1340 03c8 97000000 		call	_ZN10KSemaphore4waitEv@plt
 1340      E7800000 
 1341              	.LVL91:
 191:src/Riscv.cpp **** 
 1342              		.loc 1 191 13 is_stmt 1
 191:src/Riscv.cpp **** 
 1343              		.loc 1 191 56 is_stmt 0
 1344              	#APP
 1345              	# 191 "src/Riscv.cpp" 1
 193:src/Riscv.cpp ****             w_sepc(sepc);
 1346              		mv a0, a0
 1347              	# 0 "" 2
 1348              		.loc 1 193 13 is_stmt 1
 1349              	.LVL92:
 1350              	#NO_APP
 1351              	.LBB200:
 1352              	.LBB201:
 183:src/../h/Riscv.hpp **** }
 1353              		.loc 2 183 5
 183:src/../h/Riscv.hpp **** }
 1354              		.loc 2 183 77 is_stmt 0
 1355              	#APP
 1356              	# 183 "src/../h/Riscv.hpp" 1
GAS LISTING /tmp/ccjUSfAh.s 			page 40


 1357              		csrw sstatus, s2
 1358              	# 0 "" 2
 1359              	.LVL93:
 1360              	#NO_APP
 1361              	.LBE201:
 1362              	.LBE200:
 194:src/Riscv.cpp ****         }
 1363              		.loc 1 194 13 is_stmt 1
 1364              	.LBB202:
 1365              	.LBB203:
 113:src/../h/Riscv.hpp **** }
 1366              		.loc 2 113 5
 113:src/../h/Riscv.hpp **** }
 1367              		.loc 2 113 65 is_stmt 0
 1368              	#APP
 1369              	# 113 "src/../h/Riscv.hpp" 1
 114:src/../h/Riscv.hpp **** 
 1370              		csrw sepc, s1
 1371              	# 0 "" 2
 1372              		.loc 2 114 1
 1373              	#NO_APP
 1374 03dc 6FF05FC8 		j	.L3
 1375              	.LVL94:
 1376              	.L35:
 1377              	.LBE203:
 1378              	.LBE202:
 1379              	.LBE195:
 1380              	.LBB204:
 1381              	.LBB183:
 197:src/Riscv.cpp ****             uint64 sstatus = r_sstatus();
 1382              		.loc 1 197 13 is_stmt 1
 1383              	.LBB184:
 1384              	.LBB185:
 106:src/../h/Riscv.hpp ****     __asm__ volatile ("csrr %[sepc], sepc" : [sepc] "=r"(sepc));
 1385              		.loc 2 106 5
 107:src/../h/Riscv.hpp ****     return sepc;
 1386              		.loc 2 107 5
 107:src/../h/Riscv.hpp ****     return sepc;
 1387              		.loc 2 107 64 is_stmt 0
 1388              	#APP
 1389              	# 107 "src/../h/Riscv.hpp" 1
 1390              		csrr a5, sepc
 1391              	# 0 "" 2
 1392              	#NO_APP
 1393 03e4 2334F4FA 		sd	a5,-88(s0)
 108:src/../h/Riscv.hpp **** }
 1394              		.loc 2 108 5 is_stmt 1
 108:src/../h/Riscv.hpp **** }
 1395              		.loc 2 108 12 is_stmt 0
 1396 03e8 833484FA 		ld	s1,-88(s0)
 1397              	.LVL95:
 1398              	.LBE185:
 1399              	.LBE184:
 197:src/Riscv.cpp ****             uint64 sstatus = r_sstatus();
 1400              		.loc 1 197 38
 1401 03ec 93844400 		addi	s1,s1,4
 1402              	.LVL96:
GAS LISTING /tmp/ccjUSfAh.s 			page 41


 198:src/Riscv.cpp **** 
 1403              		.loc 1 198 13 is_stmt 1
 1404              	.LBB186:
 1405              	.LBB187:
 176:src/../h/Riscv.hpp ****     __asm__ volatile ("csrr %[sstatus], sstatus" : [sstatus] "=r"(sstatus));
 1406              		.loc 2 176 5
 177:src/../h/Riscv.hpp ****     return sstatus;
 1407              		.loc 2 177 5
 177:src/../h/Riscv.hpp ****     return sstatus;
 1408              		.loc 2 177 76 is_stmt 0
 1409              	#APP
 1410              	# 177 "src/../h/Riscv.hpp" 1
 1411              		csrr a5, sstatus
 1412              	# 0 "" 2
 1413              	#NO_APP
 1414 03f4 2330F4FA 		sd	a5,-96(s0)
 178:src/../h/Riscv.hpp **** }
 1415              		.loc 2 178 5 is_stmt 1
 178:src/../h/Riscv.hpp **** }
 1416              		.loc 2 178 12 is_stmt 0
 1417 03f8 033904FA 		ld	s2,-96(s0)
 1418              	.LVL97:
 1419              	.LBE187:
 1420              	.LBE186:
 200:src/Riscv.cpp **** 
 1421              		.loc 1 200 13 is_stmt 1
 202:src/Riscv.cpp **** 
 1422              		.loc 1 202 13
 202:src/Riscv.cpp **** 
 1423              		.loc 1 202 48 is_stmt 0
 1424              	#APP
 1425              	# 202 "src/Riscv.cpp" 1
 204:src/Riscv.cpp **** 
 1426              		ld a1, 11*8(fp)
 1427              	# 0 "" 2
 1428              		.loc 1 204 13 is_stmt 1
 204:src/Riscv.cpp **** 
 1429              		.loc 1 204 56 is_stmt 0
 1430              	# 204 "src/Riscv.cpp" 1
 1431              		mv a0, a1
 1432              	# 0 "" 2
 1433              	.LVL98:
 207:src/Riscv.cpp **** 
 1434              		.loc 1 207 13 is_stmt 1
 207:src/Riscv.cpp **** 
 1435              		.loc 1 207 25 is_stmt 0
 1436              	#NO_APP
 1437 0404 97000000 		call	_ZN10KSemaphore6signalEv@plt
 1437      E7800000 
 1438              	.LVL99:
 209:src/Riscv.cpp **** 
 1439              		.loc 1 209 13 is_stmt 1
 211:src/Riscv.cpp **** 
 1440              		.loc 1 211 13
 211:src/Riscv.cpp **** 
 1441              		.loc 1 211 56 is_stmt 0
 1442 040c 93070000 		li	a5,0
GAS LISTING /tmp/ccjUSfAh.s 			page 42


 1443              	#APP
 1444              	# 211 "src/Riscv.cpp" 1
 213:src/Riscv.cpp ****             w_sepc(sepc);
 1445              		mv a0, a5
 1446              	# 0 "" 2
 1447              		.loc 1 213 13 is_stmt 1
 1448              	.LVL100:
 1449              	#NO_APP
 1450              	.LBB188:
 1451              	.LBB189:
 183:src/../h/Riscv.hpp **** }
 1452              		.loc 2 183 5
 183:src/../h/Riscv.hpp **** }
 1453              		.loc 2 183 77 is_stmt 0
 1454              	#APP
 1455              	# 183 "src/../h/Riscv.hpp" 1
 1456              		csrw sstatus, s2
 1457              	# 0 "" 2
 1458              	.LVL101:
 1459              	#NO_APP
 1460              	.LBE189:
 1461              	.LBE188:
 214:src/Riscv.cpp ****         }
 1462              		.loc 1 214 13 is_stmt 1
 1463              	.LBB190:
 1464              	.LBB191:
 113:src/../h/Riscv.hpp **** }
 1465              		.loc 2 113 5
 113:src/../h/Riscv.hpp **** }
 1466              		.loc 2 113 65 is_stmt 0
 1467              	#APP
 1468              	# 113 "src/../h/Riscv.hpp" 1
 114:src/../h/Riscv.hpp **** 
 1469              		csrw sepc, s1
 1470              	# 0 "" 2
 1471              		.loc 2 114 1
 1472              	#NO_APP
 1473 041c 6FF05FC4 		j	.L3
 1474              	.LVL102:
 1475              	.L36:
 1476              	.LBE191:
 1477              	.LBE190:
 1478              	.LBE183:
 1479              	.LBB192:
 1480              	.LBB173:
 217:src/Riscv.cpp ****             uint64 sstatus = r_sstatus();
 1481              		.loc 1 217 13 is_stmt 1
 1482              	.LBB174:
 1483              	.LBB175:
 106:src/../h/Riscv.hpp ****     __asm__ volatile ("csrr %[sepc], sepc" : [sepc] "=r"(sepc));
 1484              		.loc 2 106 5
 107:src/../h/Riscv.hpp ****     return sepc;
 1485              		.loc 2 107 5
 107:src/../h/Riscv.hpp ****     return sepc;
 1486              		.loc 2 107 64 is_stmt 0
 1487              	#APP
 1488              	# 107 "src/../h/Riscv.hpp" 1
GAS LISTING /tmp/ccjUSfAh.s 			page 43


 1489              		csrr a5, sepc
 1490              	# 0 "" 2
 1491              	#NO_APP
 1492 0424 233CF4FA 		sd	a5,-72(s0)
 108:src/../h/Riscv.hpp **** }
 1493              		.loc 2 108 5 is_stmt 1
 108:src/../h/Riscv.hpp **** }
 1494              		.loc 2 108 12 is_stmt 0
 1495 0428 833484FB 		ld	s1,-72(s0)
 1496              	.LVL103:
 1497              	.LBE175:
 1498              	.LBE174:
 217:src/Riscv.cpp ****             uint64 sstatus = r_sstatus();
 1499              		.loc 1 217 38
 1500 042c 93844400 		addi	s1,s1,4
 1501              	.LVL104:
 218:src/Riscv.cpp **** 
 1502              		.loc 1 218 13 is_stmt 1
 1503              	.LBB176:
 1504              	.LBB177:
 176:src/../h/Riscv.hpp ****     __asm__ volatile ("csrr %[sstatus], sstatus" : [sstatus] "=r"(sstatus));
 1505              		.loc 2 176 5
 177:src/../h/Riscv.hpp ****     return sstatus;
 1506              		.loc 2 177 5
 177:src/../h/Riscv.hpp ****     return sstatus;
 1507              		.loc 2 177 76 is_stmt 0
 1508              	#APP
 1509              	# 177 "src/../h/Riscv.hpp" 1
 1510              		csrr a5, sstatus
 1511              	# 0 "" 2
 1512              	#NO_APP
 1513 0434 2338F4FA 		sd	a5,-80(s0)
 178:src/../h/Riscv.hpp **** }
 1514              		.loc 2 178 5 is_stmt 1
 178:src/../h/Riscv.hpp **** }
 1515              		.loc 2 178 12 is_stmt 0
 1516 0438 033904FB 		ld	s2,-80(s0)
 1517              	.LVL105:
 1518              	.LBE177:
 1519              	.LBE176:
 221:src/Riscv.cpp **** 
 1520              		.loc 1 221 13 is_stmt 1
 221:src/Riscv.cpp **** 
 1521              		.loc 1 221 36 is_stmt 0
 1522 043c 97000000 		call	_ZN8KConsole4getcEv@plt
 1522      E7800000 
 1523              	.LVL106:
 223:src/Riscv.cpp **** 
 1524              		.loc 1 223 13 is_stmt 1
 223:src/Riscv.cpp **** 
 1525              		.loc 1 223 54 is_stmt 0
 1526              	#APP
 1527              	# 223 "src/Riscv.cpp" 1
 226:src/Riscv.cpp ****             w_sepc(sepc);
 1528              		mv a0, a0
 1529              	# 0 "" 2
 1530              		.loc 1 226 13 is_stmt 1
GAS LISTING /tmp/ccjUSfAh.s 			page 44


 1531              	.LVL107:
 1532              	#NO_APP
 1533              	.LBB178:
 1534              	.LBB179:
 183:src/../h/Riscv.hpp **** }
 1535              		.loc 2 183 5
 183:src/../h/Riscv.hpp **** }
 1536              		.loc 2 183 77 is_stmt 0
 1537              	#APP
 1538              	# 183 "src/../h/Riscv.hpp" 1
 1539              		csrw sstatus, s2
 1540              	# 0 "" 2
 1541              	.LVL108:
 1542              	#NO_APP
 1543              	.LBE179:
 1544              	.LBE178:
 227:src/Riscv.cpp ****         }
 1545              		.loc 1 227 13 is_stmt 1
 1546              	.LBB180:
 1547              	.LBB181:
 113:src/../h/Riscv.hpp **** }
 1548              		.loc 2 113 5
 113:src/../h/Riscv.hpp **** }
 1549              		.loc 2 113 65 is_stmt 0
 1550              	#APP
 1551              	# 113 "src/../h/Riscv.hpp" 1
 114:src/../h/Riscv.hpp **** 
 1552              		csrw sepc, s1
 1553              	# 0 "" 2
 1554              		.loc 2 114 1
 1555              	#NO_APP
 1556 0450 6FF01FC1 		j	.L3
 1557              	.LBE181:
 1558              	.LBE180:
 1559              	.LBE173:
 1560              	.LBE192:
 1561              	.LBE204:
 1562              	.LBE225:
 1563              	.LBE243:
 1564              	.LBE258:
 1565              	.LBE274:
 1566              	.LBE291:
 1567              	.LBE309:
 1568              	.LBE328:
 1569              	.LBE340:
 1570              	.LBE353:
 1571              		.cfi_endproc
 1572              	.LFE55:
 1574              	.Letext0:
 1575              		.file 5 "src/../h/../lib/hw.h"
 1576              		.file 6 "src/../h/DoublyLinkedList.hpp"
 1577              		.file 7 "src/../h/MemoryAllocator.hpp"
 1578              		.file 8 "src/../h/Scheduler.hpp"
 1579              		.file 9 "src/../h/_thread.hpp"
 1580              		.file 10 "src/../h/KConsole.hpp"
GAS LISTING /tmp/ccjUSfAh.s 			page 45


DEFINED SYMBOLS
                            *ABS*:0000000000000000 Riscv.cpp
     /tmp/ccjUSfAh.s:9      .text:0000000000000000 _ZN5Riscv10popSppSpieEv
     /tmp/ccjUSfAh.s:13     .text:0000000000000000 .L0 
     /tmp/ccjUSfAh.s:14     .text:0000000000000000 .L0 
     /tmp/ccjUSfAh.s:15     .text:0000000000000004 .L0 
     /tmp/ccjUSfAh.s:17     .text:0000000000000008 .L0 
     /tmp/ccjUSfAh.s:19     .text:000000000000000c .L0 
     /tmp/ccjUSfAh.s:21     .text:000000000000000c .L0 
       src/Riscv.cpp:16     .text:000000000000000c .L0 
     /tmp/ccjUSfAh.s:27     .text:0000000000000010 .L0 
       src/Riscv.cpp:17     .text:0000000000000010 .L0 
     /tmp/ccjUSfAh.s:33     .text:0000000000000014 .L0 
     /tmp/ccjUSfAh.s:34     .text:0000000000000018 .L0 
     /tmp/ccjUSfAh.s:35     .text:0000000000000018 .L0 
     /tmp/ccjUSfAh.s:37     .text:000000000000001c .L0 
     /tmp/ccjUSfAh.s:39     .text:0000000000000020 .L0 
     /tmp/ccjUSfAh.s:45     .text:0000000000000020 _ZN5Riscv20handleSupervisorTrapEv
     /tmp/ccjUSfAh.s:48     .text:0000000000000020 .L0 
     /tmp/ccjUSfAh.s:49     .text:0000000000000020 .L0 
     /tmp/ccjUSfAh.s:50     .text:0000000000000024 .L0 
     /tmp/ccjUSfAh.s:57     .text:000000000000003c .L0 
     /tmp/ccjUSfAh.s:58     .text:000000000000003c .L0 
     /tmp/ccjUSfAh.s:59     .text:000000000000003c .L0 
     /tmp/ccjUSfAh.s:60     .text:000000000000003c .L0 
     /tmp/ccjUSfAh.s:61     .text:000000000000003c .L0 
     /tmp/ccjUSfAh.s:62     .text:000000000000003c .L0 
     /tmp/ccjUSfAh.s:64     .text:0000000000000040 .L0 
     /tmp/ccjUSfAh.s:69     .text:0000000000000040 .L0 
     /tmp/ccjUSfAh.s:70     .text:0000000000000040 .L0 
     /tmp/ccjUSfAh.s:71     .text:0000000000000040 .L0 
  src/../h/Riscv.hpp:95     .text:0000000000000040 .L0 
     /tmp/ccjUSfAh.s:79     .text:0000000000000048 .L0 
     /tmp/ccjUSfAh.s:80     .text:0000000000000048 .L0 
     /tmp/ccjUSfAh.s:84     .text:000000000000004c .L0 
     /tmp/ccjUSfAh.s:87     .text:0000000000000050 .L0 
     /tmp/ccjUSfAh.s:88     .text:0000000000000050 .L0 
     /tmp/ccjUSfAh.s:89     .text:0000000000000050 .L0 
       src/Riscv.cpp:25     .text:0000000000000050 .L0 
     /tmp/ccjUSfAh.s:98     .text:0000000000000054 .L0 
     /tmp/ccjUSfAh.s:99     .text:0000000000000054 .L0 
     /tmp/ccjUSfAh.s:102    .text:0000000000000058 .L0 
     /tmp/ccjUSfAh.s:108    .text:0000000000000060 .L0 
     /tmp/ccjUSfAh.s:109    .text:0000000000000064 .L0 
     /tmp/ccjUSfAh.s:110    .text:0000000000000064 .L0 
     /tmp/ccjUSfAh.s:112    .text:0000000000000068 .L0 
     /tmp/ccjUSfAh.s:113    .text:0000000000000068 .L0 
     /tmp/ccjUSfAh.s:115    .text:000000000000006c .L0 
     /tmp/ccjUSfAh.s:117    .text:0000000000000070 .L0 
     /tmp/ccjUSfAh.s:119    .text:0000000000000074 .L0 
     /tmp/ccjUSfAh.s:121    .text:0000000000000078 .L0 
     /tmp/ccjUSfAh.s:123    .text:000000000000007c .L0 
     /tmp/ccjUSfAh.s:127    .text:0000000000000080 .L0 
     /tmp/ccjUSfAh.s:131    .text:0000000000000080 .L0 
     /tmp/ccjUSfAh.s:139    .text:0000000000000088 .L0 
     /tmp/ccjUSfAh.s:147    .text:0000000000000090 .L0 
     /tmp/ccjUSfAh.s:157    .text:0000000000000098 .L0 
GAS LISTING /tmp/ccjUSfAh.s 			page 46


     /tmp/ccjUSfAh.s:169    .text:00000000000000a0 .L0 
     /tmp/ccjUSfAh.s:183    .text:00000000000000a8 .L0 
     /tmp/ccjUSfAh.s:199    .text:00000000000000b0 .L0 
     /tmp/ccjUSfAh.s:217    .text:00000000000000b8 .L0 
     /tmp/ccjUSfAh.s:237    .text:00000000000000c0 .L0 
     /tmp/ccjUSfAh.s:259    .text:00000000000000c8 .L0 
     /tmp/ccjUSfAh.s:283    .text:00000000000000d0 .L0 
     /tmp/ccjUSfAh.s:309    .text:00000000000000d8 .L0 
     /tmp/ccjUSfAh.s:315    .text:00000000000000e0 .L0 
     /tmp/ccjUSfAh.s:316    .text:00000000000000e0 .L0 
     /tmp/ccjUSfAh.s:317    .text:00000000000000e0 .L0 
  src/../h/Riscv.hpp:107    .text:00000000000000e0 .L0 
     /tmp/ccjUSfAh.s:325    .text:00000000000000e8 .L0 
     /tmp/ccjUSfAh.s:326    .text:00000000000000e8 .L0 
     /tmp/ccjUSfAh.s:331    .text:00000000000000ec .L0 
     /tmp/ccjUSfAh.s:336    .text:00000000000000f0 .L0 
     /tmp/ccjUSfAh.s:337    .text:00000000000000f0 .L0 
     /tmp/ccjUSfAh.s:338    .text:00000000000000f0 .L0 
  src/../h/Riscv.hpp:177    .text:00000000000000f0 .L0 
     /tmp/ccjUSfAh.s:346    .text:00000000000000f8 .L0 
     /tmp/ccjUSfAh.s:347    .text:00000000000000f8 .L0 
     /tmp/ccjUSfAh.s:352    .text:00000000000000fc .L0 
     /tmp/ccjUSfAh.s:353    .text:00000000000000fc .L0 
       src/Riscv.cpp:234    .text:00000000000000fc .L0 
     /tmp/ccjUSfAh.s:359    .text:0000000000000100 .L0 
       src/Riscv.cpp:236    .text:0000000000000100 .L0 
     /tmp/ccjUSfAh.s:365    .text:0000000000000104 .L0 
     /tmp/ccjUSfAh.s:367    .text:0000000000000104 .L0 
     /tmp/ccjUSfAh.s:373    .text:0000000000000110 .L0 
     /tmp/ccjUSfAh.s:374    .text:0000000000000110 .L0 
  src/../h/Riscv.hpp:183    .text:0000000000000110 .L0 
     /tmp/ccjUSfAh.s:386    .text:0000000000000114 .L0 
     /tmp/ccjUSfAh.s:387    .text:0000000000000114 .L0 
  src/../h/Riscv.hpp:113    .text:0000000000000114 .L0 
     /tmp/ccjUSfAh.s:410    .text:0000000000000118 .L0 
     /tmp/ccjUSfAh.s:419    .text:000000000000011c .L0 
     /tmp/ccjUSfAh.s:420    .text:000000000000011c .L0 
     /tmp/ccjUSfAh.s:421    .text:000000000000011c .L0 
  src/../h/Riscv.hpp:107    .text:000000000000011c .L0 
     /tmp/ccjUSfAh.s:429    .text:0000000000000124 .L0 
     /tmp/ccjUSfAh.s:430    .text:0000000000000124 .L0 
     /tmp/ccjUSfAh.s:434    .text:0000000000000128 .L0 
     /tmp/ccjUSfAh.s:439    .text:000000000000012c .L0 
     /tmp/ccjUSfAh.s:440    .text:000000000000012c .L0 
     /tmp/ccjUSfAh.s:441    .text:000000000000012c .L0 
  src/../h/Riscv.hpp:177    .text:000000000000012c .L0 
     /tmp/ccjUSfAh.s:449    .text:0000000000000134 .L0 
     /tmp/ccjUSfAh.s:450    .text:0000000000000134 .L0 
     /tmp/ccjUSfAh.s:455    .text:0000000000000138 .L0 
     /tmp/ccjUSfAh.s:456    .text:0000000000000138 .L0 
     /tmp/ccjUSfAh.s:457    .text:0000000000000138 .L0 
     /tmp/ccjUSfAh.s:458    .text:0000000000000138 .L0 
     /tmp/ccjUSfAh.s:459    .text:0000000000000138 .L0 
       src/Riscv.cpp:42     .text:0000000000000138 .L0 
     /tmp/ccjUSfAh.s:465    .text:000000000000013c .L0 
       src/Riscv.cpp:43     .text:000000000000013c .L0 
     /tmp/ccjUSfAh.s:470    .text:0000000000000140 .L0 
GAS LISTING /tmp/ccjUSfAh.s 			page 47


       src/Riscv.cpp:44     .text:0000000000000140 .L0 
     /tmp/ccjUSfAh.s:475    .text:0000000000000144 .L0 
       src/Riscv.cpp:45     .text:0000000000000144 .L0 
     /tmp/ccjUSfAh.s:480    .text:0000000000000148 .L0 
       src/Riscv.cpp:48     .text:0000000000000148 .L0 
     /tmp/ccjUSfAh.s:486    .text:000000000000014c .L0 
       src/Riscv.cpp:49     .text:000000000000014c .L0 
     /tmp/ccjUSfAh.s:492    .text:0000000000000150 .L0 
       src/Riscv.cpp:50     .text:0000000000000150 .L0 
     /tmp/ccjUSfAh.s:498    .text:0000000000000154 .L0 
       src/Riscv.cpp:51     .text:0000000000000154 .L0 
     /tmp/ccjUSfAh.s:504    .text:0000000000000158 .L0 
     /tmp/ccjUSfAh.s:506    .text:0000000000000158 .L0 
     /tmp/ccjUSfAh.s:509    .text:0000000000000160 .L0 
     /tmp/ccjUSfAh.s:510    .text:0000000000000160 .L0 
     /tmp/ccjUSfAh.s:512    .text:0000000000000164 .L0 
     /tmp/ccjUSfAh.s:513    .text:0000000000000164 .L0 
     /tmp/ccjUSfAh.s:515    .text:0000000000000168 .L0 
     /tmp/ccjUSfAh.s:519    .text:000000000000016c .L0 
       src/Riscv.cpp:63     .text:000000000000016c .L0 
     /tmp/ccjUSfAh.s:529    .text:0000000000000170 .L0 
     /tmp/ccjUSfAh.s:530    .text:0000000000000170 .L0 
  src/../h/Riscv.hpp:183    .text:0000000000000170 .L0 
     /tmp/ccjUSfAh.s:542    .text:0000000000000174 .L0 
     /tmp/ccjUSfAh.s:543    .text:0000000000000174 .L0 
  src/../h/Riscv.hpp:113    .text:0000000000000174 .L0 
     /tmp/ccjUSfAh.s:550    .text:0000000000000178 .L0 
     /tmp/ccjUSfAh.s:556    .text:000000000000017c .L0 
     /tmp/ccjUSfAh.s:567    .text:0000000000000184 .L0 
     /tmp/ccjUSfAh.s:568    .text:0000000000000184 .L0 
     /tmp/ccjUSfAh.s:569    .text:0000000000000184 .L0 
  src/../h/Riscv.hpp:107    .text:0000000000000184 .L0 
     /tmp/ccjUSfAh.s:577    .text:000000000000018c .L0 
     /tmp/ccjUSfAh.s:578    .text:000000000000018c .L0 
     /tmp/ccjUSfAh.s:583    .text:0000000000000190 .L0 
     /tmp/ccjUSfAh.s:588    .text:0000000000000194 .L0 
     /tmp/ccjUSfAh.s:589    .text:0000000000000194 .L0 
     /tmp/ccjUSfAh.s:590    .text:0000000000000194 .L0 
  src/../h/Riscv.hpp:177    .text:0000000000000194 .L0 
     /tmp/ccjUSfAh.s:598    .text:000000000000019c .L0 
     /tmp/ccjUSfAh.s:599    .text:000000000000019c .L0 
     /tmp/ccjUSfAh.s:604    .text:00000000000001a0 .L0 
       src/Riscv.cpp:72     .text:00000000000001a0 .L0 
     /tmp/ccjUSfAh.s:611    .text:00000000000001a4 .L0 
     /tmp/ccjUSfAh.s:613    .text:00000000000001a4 .L0 
     /tmp/ccjUSfAh.s:618    .text:00000000000001b0 .L0 
       src/Riscv.cpp:76     .text:00000000000001b0 .L0 
     /tmp/ccjUSfAh.s:628    .text:00000000000001b4 .L0 
     /tmp/ccjUSfAh.s:629    .text:00000000000001b4 .L0 
  src/../h/Riscv.hpp:183    .text:00000000000001b4 .L0 
     /tmp/ccjUSfAh.s:641    .text:00000000000001b8 .L0 
     /tmp/ccjUSfAh.s:642    .text:00000000000001b8 .L0 
  src/../h/Riscv.hpp:113    .text:00000000000001b8 .L0 
     /tmp/ccjUSfAh.s:649    .text:00000000000001bc .L0 
     /tmp/ccjUSfAh.s:660    .text:00000000000001c0 .L0 
     /tmp/ccjUSfAh.s:661    .text:00000000000001c0 .L0 
     /tmp/ccjUSfAh.s:662    .text:00000000000001c0 .L0 
GAS LISTING /tmp/ccjUSfAh.s 			page 48


  src/../h/Riscv.hpp:107    .text:00000000000001c0 .L0 
     /tmp/ccjUSfAh.s:670    .text:00000000000001c8 .L0 
     /tmp/ccjUSfAh.s:671    .text:00000000000001c8 .L0 
     /tmp/ccjUSfAh.s:676    .text:00000000000001cc .L0 
     /tmp/ccjUSfAh.s:681    .text:00000000000001d0 .L0 
     /tmp/ccjUSfAh.s:682    .text:00000000000001d0 .L0 
     /tmp/ccjUSfAh.s:683    .text:00000000000001d0 .L0 
  src/../h/Riscv.hpp:177    .text:00000000000001d0 .L0 
     /tmp/ccjUSfAh.s:691    .text:00000000000001d8 .L0 
     /tmp/ccjUSfAh.s:692    .text:00000000000001d8 .L0 
     /tmp/ccjUSfAh.s:697    .text:00000000000001dc .L0 
       src/Riscv.cpp:85     .text:00000000000001dc .L0 
     /tmp/ccjUSfAh.s:704    .text:00000000000001e0 .L0 
     /tmp/ccjUSfAh.s:706    .text:00000000000001e0 .L0 
     /tmp/ccjUSfAh.s:709    .text:00000000000001e8 .L0 
       src/Riscv.cpp:87     .text:00000000000001e8 .L0 
     /tmp/ccjUSfAh.s:719    .text:00000000000001ec .L0 
     /tmp/ccjUSfAh.s:720    .text:00000000000001ec .L0 
  src/../h/Riscv.hpp:183    .text:00000000000001ec .L0 
     /tmp/ccjUSfAh.s:732    .text:00000000000001f0 .L0 
     /tmp/ccjUSfAh.s:733    .text:00000000000001f0 .L0 
  src/../h/Riscv.hpp:113    .text:00000000000001f0 .L0 
     /tmp/ccjUSfAh.s:740    .text:00000000000001f4 .L0 
     /tmp/ccjUSfAh.s:751    .text:00000000000001f8 .L0 
     /tmp/ccjUSfAh.s:752    .text:00000000000001f8 .L0 
     /tmp/ccjUSfAh.s:753    .text:00000000000001f8 .L0 
  src/../h/Riscv.hpp:107    .text:00000000000001f8 .L0 
     /tmp/ccjUSfAh.s:761    .text:0000000000000200 .L0 
     /tmp/ccjUSfAh.s:762    .text:0000000000000200 .L0 
     /tmp/ccjUSfAh.s:767    .text:0000000000000204 .L0 
     /tmp/ccjUSfAh.s:772    .text:0000000000000208 .L0 
     /tmp/ccjUSfAh.s:773    .text:0000000000000208 .L0 
     /tmp/ccjUSfAh.s:774    .text:0000000000000208 .L0 
  src/../h/Riscv.hpp:177    .text:0000000000000208 .L0 
     /tmp/ccjUSfAh.s:782    .text:0000000000000210 .L0 
     /tmp/ccjUSfAh.s:783    .text:0000000000000210 .L0 
     /tmp/ccjUSfAh.s:788    .text:0000000000000214 .L0 
     /tmp/ccjUSfAh.s:789    .text:0000000000000214 .L0 
     /tmp/ccjUSfAh.s:792    .text:0000000000000220 .L0 
     /tmp/ccjUSfAh.s:795    .text:0000000000000228 .L0 
     /tmp/ccjUSfAh.s:796    .text:0000000000000228 .L0 
     /tmp/ccjUSfAh.s:801    .text:0000000000000230 .L0 
     /tmp/ccjUSfAh.s:802    .text:0000000000000230 .L0 
  src/../h/Riscv.hpp:183    .text:0000000000000230 .L0 
     /tmp/ccjUSfAh.s:814    .text:0000000000000234 .L0 
     /tmp/ccjUSfAh.s:815    .text:0000000000000234 .L0 
  src/../h/Riscv.hpp:113    .text:0000000000000234 .L0 
     /tmp/ccjUSfAh.s:822    .text:0000000000000238 .L0 
     /tmp/ccjUSfAh.s:833    .text:000000000000023c .L0 
     /tmp/ccjUSfAh.s:834    .text:000000000000023c .L0 
     /tmp/ccjUSfAh.s:835    .text:000000000000023c .L0 
  src/../h/Riscv.hpp:107    .text:000000000000023c .L0 
     /tmp/ccjUSfAh.s:843    .text:0000000000000244 .L0 
     /tmp/ccjUSfAh.s:844    .text:0000000000000244 .L0 
     /tmp/ccjUSfAh.s:849    .text:0000000000000248 .L0 
     /tmp/ccjUSfAh.s:854    .text:000000000000024c .L0 
     /tmp/ccjUSfAh.s:855    .text:000000000000024c .L0 
GAS LISTING /tmp/ccjUSfAh.s 			page 49


     /tmp/ccjUSfAh.s:856    .text:000000000000024c .L0 
  src/../h/Riscv.hpp:177    .text:000000000000024c .L0 
     /tmp/ccjUSfAh.s:864    .text:0000000000000254 .L0 
     /tmp/ccjUSfAh.s:865    .text:0000000000000254 .L0 
     /tmp/ccjUSfAh.s:870    .text:0000000000000258 .L0 
     /tmp/ccjUSfAh.s:871    .text:0000000000000258 .L0 
     /tmp/ccjUSfAh.s:876    .text:0000000000000260 .L0 
     /tmp/ccjUSfAh.s:877    .text:0000000000000260 .L0 
  src/../h/Riscv.hpp:183    .text:0000000000000260 .L0 
     /tmp/ccjUSfAh.s:889    .text:0000000000000264 .L0 
     /tmp/ccjUSfAh.s:890    .text:0000000000000264 .L0 
  src/../h/Riscv.hpp:113    .text:0000000000000264 .L0 
     /tmp/ccjUSfAh.s:897    .text:0000000000000268 .L0 
     /tmp/ccjUSfAh.s:908    .text:000000000000026c .L0 
     /tmp/ccjUSfAh.s:909    .text:000000000000026c .L0 
     /tmp/ccjUSfAh.s:910    .text:000000000000026c .L0 
  src/../h/Riscv.hpp:107    .text:000000000000026c .L0 
     /tmp/ccjUSfAh.s:918    .text:0000000000000274 .L0 
     /tmp/ccjUSfAh.s:919    .text:0000000000000274 .L0 
     /tmp/ccjUSfAh.s:924    .text:0000000000000278 .L0 
     /tmp/ccjUSfAh.s:929    .text:000000000000027c .L0 
     /tmp/ccjUSfAh.s:930    .text:000000000000027c .L0 
     /tmp/ccjUSfAh.s:931    .text:000000000000027c .L0 
  src/../h/Riscv.hpp:177    .text:000000000000027c .L0 
     /tmp/ccjUSfAh.s:939    .text:0000000000000284 .L0 
     /tmp/ccjUSfAh.s:940    .text:0000000000000284 .L0 
     /tmp/ccjUSfAh.s:945    .text:0000000000000288 .L0 
     /tmp/ccjUSfAh.s:946    .text:0000000000000288 .L0 
     /tmp/ccjUSfAh.s:949    .text:0000000000000294 .L0 
     /tmp/ccjUSfAh.s:950    .text:0000000000000294 .L0 
     /tmp/ccjUSfAh.s:955    .text:000000000000029c .L0 
     /tmp/ccjUSfAh.s:956    .text:000000000000029c .L0 
  src/../h/Riscv.hpp:183    .text:000000000000029c .L0 
     /tmp/ccjUSfAh.s:968    .text:00000000000002a0 .L0 
     /tmp/ccjUSfAh.s:969    .text:00000000000002a0 .L0 
  src/../h/Riscv.hpp:113    .text:00000000000002a0 .L0 
     /tmp/ccjUSfAh.s:976    .text:00000000000002a4 .L0 
     /tmp/ccjUSfAh.s:987    .text:00000000000002a8 .L0 
     /tmp/ccjUSfAh.s:988    .text:00000000000002a8 .L0 
     /tmp/ccjUSfAh.s:989    .text:00000000000002a8 .L0 
  src/../h/Riscv.hpp:107    .text:00000000000002a8 .L0 
     /tmp/ccjUSfAh.s:997    .text:00000000000002b0 .L0 
     /tmp/ccjUSfAh.s:998    .text:00000000000002b0 .L0 
     /tmp/ccjUSfAh.s:1003   .text:00000000000002b4 .L0 
     /tmp/ccjUSfAh.s:1008   .text:00000000000002b8 .L0 
     /tmp/ccjUSfAh.s:1009   .text:00000000000002b8 .L0 
     /tmp/ccjUSfAh.s:1010   .text:00000000000002b8 .L0 
  src/../h/Riscv.hpp:177    .text:00000000000002b8 .L0 
     /tmp/ccjUSfAh.s:1018   .text:00000000000002c0 .L0 
     /tmp/ccjUSfAh.s:1019   .text:00000000000002c0 .L0 
     /tmp/ccjUSfAh.s:1024   .text:00000000000002c4 .L0 
     /tmp/ccjUSfAh.s:1025   .text:00000000000002c4 .L0 
     /tmp/ccjUSfAh.s:1026   .text:00000000000002c4 .L0 
       src/Riscv.cpp:133    .text:00000000000002c4 .L0 
     /tmp/ccjUSfAh.s:1032   .text:00000000000002c8 .L0 
       src/Riscv.cpp:134    .text:00000000000002c8 .L0 
     /tmp/ccjUSfAh.s:1037   .text:00000000000002cc .L0 
GAS LISTING /tmp/ccjUSfAh.s 			page 50


       src/Riscv.cpp:136    .text:00000000000002cc .L0 
     /tmp/ccjUSfAh.s:1043   .text:00000000000002d0 .L0 
       src/Riscv.cpp:137    .text:00000000000002d0 .L0 
     /tmp/ccjUSfAh.s:1049   .text:00000000000002d4 .L0 
     /tmp/ccjUSfAh.s:1051   .text:00000000000002d4 .L0 
     /tmp/ccjUSfAh.s:1058   .text:00000000000002e0 .L0 
     /tmp/ccjUSfAh.s:1064   .text:00000000000002e4 .L0 
     /tmp/ccjUSfAh.s:1072   .text:00000000000002ec .L0 
     /tmp/ccjUSfAh.s:1073   .text:00000000000002ec .L0 
     /tmp/ccjUSfAh.s:1076   .text:00000000000002f0 .L0 
     /tmp/ccjUSfAh.s:1077   .text:00000000000002f0 .L0 
     /tmp/ccjUSfAh.s:1079   .text:00000000000002f4 .L0 
     /tmp/ccjUSfAh.s:1083   .text:00000000000002f8 .L0 
       src/Riscv.cpp:146    .text:00000000000002f8 .L0 
     /tmp/ccjUSfAh.s:1093   .text:00000000000002fc .L0 
     /tmp/ccjUSfAh.s:1094   .text:00000000000002fc .L0 
  src/../h/Riscv.hpp:183    .text:00000000000002fc .L0 
     /tmp/ccjUSfAh.s:1106   .text:0000000000000300 .L0 
     /tmp/ccjUSfAh.s:1107   .text:0000000000000300 .L0 
  src/../h/Riscv.hpp:113    .text:0000000000000300 .L0 
     /tmp/ccjUSfAh.s:1114   .text:0000000000000304 .L0 
     /tmp/ccjUSfAh.s:1120   .text:0000000000000308 .L0 
     /tmp/ccjUSfAh.s:1130   .text:0000000000000310 .L0 
     /tmp/ccjUSfAh.s:1131   .text:0000000000000310 .L0 
     /tmp/ccjUSfAh.s:1132   .text:0000000000000310 .L0 
  src/../h/Riscv.hpp:107    .text:0000000000000310 .L0 
     /tmp/ccjUSfAh.s:1140   .text:0000000000000318 .L0 
     /tmp/ccjUSfAh.s:1141   .text:0000000000000318 .L0 
     /tmp/ccjUSfAh.s:1145   .text:000000000000031c .L0 
     /tmp/ccjUSfAh.s:1150   .text:0000000000000320 .L0 
     /tmp/ccjUSfAh.s:1151   .text:0000000000000320 .L0 
     /tmp/ccjUSfAh.s:1152   .text:0000000000000320 .L0 
  src/../h/Riscv.hpp:177    .text:0000000000000320 .L0 
     /tmp/ccjUSfAh.s:1160   .text:0000000000000328 .L0 
     /tmp/ccjUSfAh.s:1161   .text:0000000000000328 .L0 
     /tmp/ccjUSfAh.s:1166   .text:000000000000032c .L0 
     /tmp/ccjUSfAh.s:1167   .text:000000000000032c .L0 
       src/Riscv.cpp:158    .text:000000000000032c .L0 
     /tmp/ccjUSfAh.s:1173   .text:0000000000000330 .L0 
       src/Riscv.cpp:160    .text:0000000000000330 .L0 
     /tmp/ccjUSfAh.s:1180   .text:0000000000000334 .L0 
     /tmp/ccjUSfAh.s:1187   .text:0000000000000338 .L0 
     /tmp/ccjUSfAh.s:1190   .text:000000000000033c .L0 
     /tmp/ccjUSfAh.s:1195   .text:0000000000000344 .L0 
     /tmp/ccjUSfAh.s:1196   .text:0000000000000344 .L0 
     /tmp/ccjUSfAh.s:1199   .text:000000000000034c .L0 
     /tmp/ccjUSfAh.s:1200   .text:000000000000034c .L0 
     /tmp/ccjUSfAh.s:1202   .text:0000000000000350 .L0 
     /tmp/ccjUSfAh.s:1205   .text:0000000000000358 .L0 
     /tmp/ccjUSfAh.s:1206   .text:0000000000000358 .L0 
     /tmp/ccjUSfAh.s:1212   .text:0000000000000364 .L0 
     /tmp/ccjUSfAh.s:1215   .text:0000000000000364 .L0 
     /tmp/ccjUSfAh.s:1216   .text:0000000000000364 .L0 
     /tmp/ccjUSfAh.s:1218   .text:0000000000000368 .L0 
     /tmp/ccjUSfAh.s:1220   .text:000000000000036c .L0 
     /tmp/ccjUSfAh.s:1225   .text:0000000000000370 .L0 
     /tmp/ccjUSfAh.s:1231   .text:0000000000000374 .L0 
GAS LISTING /tmp/ccjUSfAh.s 			page 51


     /tmp/ccjUSfAh.s:1232   .text:0000000000000374 .L0 
     /tmp/ccjUSfAh.s:1234   .text:0000000000000378 .L0 
     /tmp/ccjUSfAh.s:1236   .text:000000000000037c .L0 
     /tmp/ccjUSfAh.s:1238   .text:0000000000000380 .L0 
     /tmp/ccjUSfAh.s:1246   .text:0000000000000388 .L0 
     /tmp/ccjUSfAh.s:1247   .text:0000000000000388 .L0 
     /tmp/ccjUSfAh.s:1249   .text:000000000000038c .L0 
     /tmp/ccjUSfAh.s:1256   .text:0000000000000398 .L0 
     /tmp/ccjUSfAh.s:1257   .text:0000000000000398 .L0 
  src/../h/Riscv.hpp:183    .text:0000000000000398 .L0 
     /tmp/ccjUSfAh.s:1269   .text:000000000000039c .L0 
     /tmp/ccjUSfAh.s:1270   .text:000000000000039c .L0 
  src/../h/Riscv.hpp:113    .text:000000000000039c .L0 
     /tmp/ccjUSfAh.s:1277   .text:00000000000003a0 .L0 
     /tmp/ccjUSfAh.s:1288   .text:00000000000003a4 .L0 
     /tmp/ccjUSfAh.s:1289   .text:00000000000003a4 .L0 
     /tmp/ccjUSfAh.s:1290   .text:00000000000003a4 .L0 
  src/../h/Riscv.hpp:107    .text:00000000000003a4 .L0 
     /tmp/ccjUSfAh.s:1298   .text:00000000000003ac .L0 
     /tmp/ccjUSfAh.s:1299   .text:00000000000003ac .L0 
     /tmp/ccjUSfAh.s:1304   .text:00000000000003b0 .L0 
     /tmp/ccjUSfAh.s:1309   .text:00000000000003b4 .L0 
     /tmp/ccjUSfAh.s:1310   .text:00000000000003b4 .L0 
     /tmp/ccjUSfAh.s:1311   .text:00000000000003b4 .L0 
  src/../h/Riscv.hpp:177    .text:00000000000003b4 .L0 
     /tmp/ccjUSfAh.s:1319   .text:00000000000003bc .L0 
     /tmp/ccjUSfAh.s:1320   .text:00000000000003bc .L0 
     /tmp/ccjUSfAh.s:1325   .text:00000000000003c0 .L0 
     /tmp/ccjUSfAh.s:1326   .text:00000000000003c0 .L0 
       src/Riscv.cpp:183    .text:00000000000003c0 .L0 
     /tmp/ccjUSfAh.s:1332   .text:00000000000003c4 .L0 
       src/Riscv.cpp:185    .text:00000000000003c4 .L0 
     /tmp/ccjUSfAh.s:1338   .text:00000000000003c8 .L0 
     /tmp/ccjUSfAh.s:1340   .text:00000000000003c8 .L0 
     /tmp/ccjUSfAh.s:1343   .text:00000000000003d0 .L0 
       src/Riscv.cpp:191    .text:00000000000003d0 .L0 
     /tmp/ccjUSfAh.s:1353   .text:00000000000003d4 .L0 
     /tmp/ccjUSfAh.s:1354   .text:00000000000003d4 .L0 
  src/../h/Riscv.hpp:183    .text:00000000000003d4 .L0 
     /tmp/ccjUSfAh.s:1366   .text:00000000000003d8 .L0 
     /tmp/ccjUSfAh.s:1367   .text:00000000000003d8 .L0 
  src/../h/Riscv.hpp:113    .text:00000000000003d8 .L0 
     /tmp/ccjUSfAh.s:1374   .text:00000000000003dc .L0 
     /tmp/ccjUSfAh.s:1385   .text:00000000000003e0 .L0 
     /tmp/ccjUSfAh.s:1386   .text:00000000000003e0 .L0 
     /tmp/ccjUSfAh.s:1387   .text:00000000000003e0 .L0 
  src/../h/Riscv.hpp:107    .text:00000000000003e0 .L0 
     /tmp/ccjUSfAh.s:1395   .text:00000000000003e8 .L0 
     /tmp/ccjUSfAh.s:1396   .text:00000000000003e8 .L0 
     /tmp/ccjUSfAh.s:1401   .text:00000000000003ec .L0 
     /tmp/ccjUSfAh.s:1406   .text:00000000000003f0 .L0 
     /tmp/ccjUSfAh.s:1407   .text:00000000000003f0 .L0 
     /tmp/ccjUSfAh.s:1408   .text:00000000000003f0 .L0 
  src/../h/Riscv.hpp:177    .text:00000000000003f0 .L0 
     /tmp/ccjUSfAh.s:1416   .text:00000000000003f8 .L0 
     /tmp/ccjUSfAh.s:1417   .text:00000000000003f8 .L0 
     /tmp/ccjUSfAh.s:1422   .text:00000000000003fc .L0 
GAS LISTING /tmp/ccjUSfAh.s 			page 52


     /tmp/ccjUSfAh.s:1423   .text:00000000000003fc .L0 
       src/Riscv.cpp:202    .text:00000000000003fc .L0 
     /tmp/ccjUSfAh.s:1429   .text:0000000000000400 .L0 
       src/Riscv.cpp:204    .text:0000000000000400 .L0 
     /tmp/ccjUSfAh.s:1435   .text:0000000000000404 .L0 
     /tmp/ccjUSfAh.s:1437   .text:0000000000000404 .L0 
     /tmp/ccjUSfAh.s:1440   .text:000000000000040c .L0 
     /tmp/ccjUSfAh.s:1441   .text:000000000000040c .L0 
     /tmp/ccjUSfAh.s:1442   .text:000000000000040c .L0 
     /tmp/ccjUSfAh.s:1452   .text:0000000000000414 .L0 
     /tmp/ccjUSfAh.s:1453   .text:0000000000000414 .L0 
  src/../h/Riscv.hpp:183    .text:0000000000000414 .L0 
     /tmp/ccjUSfAh.s:1465   .text:0000000000000418 .L0 
     /tmp/ccjUSfAh.s:1466   .text:0000000000000418 .L0 
  src/../h/Riscv.hpp:113    .text:0000000000000418 .L0 
     /tmp/ccjUSfAh.s:1473   .text:000000000000041c .L0 
     /tmp/ccjUSfAh.s:1484   .text:0000000000000420 .L0 
     /tmp/ccjUSfAh.s:1485   .text:0000000000000420 .L0 
     /tmp/ccjUSfAh.s:1486   .text:0000000000000420 .L0 
  src/../h/Riscv.hpp:107    .text:0000000000000420 .L0 
     /tmp/ccjUSfAh.s:1494   .text:0000000000000428 .L0 
     /tmp/ccjUSfAh.s:1495   .text:0000000000000428 .L0 
     /tmp/ccjUSfAh.s:1500   .text:000000000000042c .L0 
     /tmp/ccjUSfAh.s:1505   .text:0000000000000430 .L0 
     /tmp/ccjUSfAh.s:1506   .text:0000000000000430 .L0 
     /tmp/ccjUSfAh.s:1507   .text:0000000000000430 .L0 
  src/../h/Riscv.hpp:177    .text:0000000000000430 .L0 
     /tmp/ccjUSfAh.s:1515   .text:0000000000000438 .L0 
     /tmp/ccjUSfAh.s:1516   .text:0000000000000438 .L0 
     /tmp/ccjUSfAh.s:1521   .text:000000000000043c .L0 
     /tmp/ccjUSfAh.s:1522   .text:000000000000043c .L0 
     /tmp/ccjUSfAh.s:1525   .text:0000000000000444 .L0 
       src/Riscv.cpp:223    .text:0000000000000444 .L0 
     /tmp/ccjUSfAh.s:1535   .text:0000000000000448 .L0 
     /tmp/ccjUSfAh.s:1536   .text:0000000000000448 .L0 
  src/../h/Riscv.hpp:183    .text:0000000000000448 .L0 
     /tmp/ccjUSfAh.s:1548   .text:000000000000044c .L0 
     /tmp/ccjUSfAh.s:1549   .text:000000000000044c .L0 
  src/../h/Riscv.hpp:113    .text:000000000000044c .L0 
     /tmp/ccjUSfAh.s:1556   .text:0000000000000450 .L0 
     /tmp/ccjUSfAh.s:1571   .text:0000000000000454 .L0 
     /tmp/ccjUSfAh.s:1581   .text:0000000000000454 .L0 
     /tmp/ccjUSfAh.s:789    .text:0000000000000214 .L0 
     /tmp/ccjUSfAh.s:946    .text:0000000000000288 .L0 
     /tmp/ccjUSfAh.s:126    .text:0000000000000080 .L25
     /tmp/ccjUSfAh.s:412    .text:000000000000011c .L26
     /tmp/ccjUSfAh.s:559    .text:0000000000000184 .L27
     /tmp/ccjUSfAh.s:651    .text:00000000000001c0 .L28
     /tmp/ccjUSfAh.s:742    .text:00000000000001f8 .L29
     /tmp/ccjUSfAh.s:824    .text:000000000000023c .L30
     /tmp/ccjUSfAh.s:899    .text:000000000000026c .L31
     /tmp/ccjUSfAh.s:978    .text:00000000000002a8 .L32
     /tmp/ccjUSfAh.s:1123   .text:0000000000000310 .L33
     /tmp/ccjUSfAh.s:1279   .text:00000000000003a4 .L34
     /tmp/ccjUSfAh.s:1376   .text:00000000000003e0 .L35
     /tmp/ccjUSfAh.s:1475   .text:0000000000000420 .L36
     /tmp/ccjUSfAh.s:105    .text:0000000000000060 .L3
GAS LISTING /tmp/ccjUSfAh.s 			page 53


     /tmp/ccjUSfAh.s:552    .text:000000000000017c .L22
     /tmp/ccjUSfAh.s:133    .text:0000000000000088 .L5
     /tmp/ccjUSfAh.s:516    .text:000000000000016c .L6
     /tmp/ccjUSfAh.s:1116   .text:0000000000000308 .L23
     /tmp/ccjUSfAh.s:1080   .text:00000000000002f8 .L13
     /tmp/ccjUSfAh.s:1209   .text:0000000000000364 .L17
     /tmp/ccjUSfAh.s:1241   .text:0000000000000388 .L15
     /tmp/ccjUSfAh.s:1182   .text:0000000000000338 .L16
     /tmp/ccjUSfAh.s:1252   .text:0000000000000398 .L18
     /tmp/ccjUSfAh.s:4489   .debug_abbrev:0000000000000000 .Ldebug_abbrev0
     /tmp/ccjUSfAh.s:6601   .debug_str:0000000000000b21 .LASF213
     /tmp/ccjUSfAh.s:6327   .debug_str:00000000000001b8 .LASF214
     /tmp/ccjUSfAh.s:6461   .debug_str:0000000000000668 .LASF215
     /tmp/ccjUSfAh.s:5      .text:0000000000000000 .Ltext0
     /tmp/ccjUSfAh.s:1574   .text:0000000000000454 .Letext0
     /tmp/ccjUSfAh.s:6263   .debug_line:0000000000000000 .Ldebug_line0
     /tmp/ccjUSfAh.s:6521   .debug_str:00000000000008bc .LASF3
     /tmp/ccjUSfAh.s:6397   .debug_str:000000000000042d .LASF0
     /tmp/ccjUSfAh.s:6439   .debug_str:00000000000005d3 .LASF1
     /tmp/ccjUSfAh.s:6537   .debug_str:0000000000000936 .LASF2
     /tmp/ccjUSfAh.s:6549   .debug_str:00000000000009ad .LASF4
     /tmp/ccjUSfAh.s:6413   .debug_str:00000000000004a4 .LASF5
     /tmp/ccjUSfAh.s:6277   .debug_str:0000000000000057 .LASF6
     /tmp/ccjUSfAh.s:6493   .debug_str:0000000000000782 .LASF7
     /tmp/ccjUSfAh.s:6427   .debug_str:0000000000000571 .LASF8
     /tmp/ccjUSfAh.s:6371   .debug_str:0000000000000347 .LASF9
     /tmp/ccjUSfAh.s:6377   .debug_str:0000000000000379 .LASF10
     /tmp/ccjUSfAh.s:6313   .debug_str:0000000000000151 .LASF11
     /tmp/ccjUSfAh.s:6359   .debug_str:00000000000002d5 .LASF12
     /tmp/ccjUSfAh.s:6329   .debug_str:00000000000001c6 .LASF13
     /tmp/ccjUSfAh.s:6311   .debug_str:0000000000000141 .LASF14
     /tmp/ccjUSfAh.s:6575   .debug_str:0000000000000a80 .LASF15
     /tmp/ccjUSfAh.s:6345   .debug_str:000000000000023e .LASF16
     /tmp/ccjUSfAh.s:6565   .debug_str:0000000000000a4a .LASF17
     /tmp/ccjUSfAh.s:6659   .debug_str:0000000000000d83 .LASF54
     /tmp/ccjUSfAh.s:6389   .debug_str:00000000000003f2 .LASF50
     /tmp/ccjUSfAh.s:6395   .debug_str:0000000000000415 .LASF52
     /tmp/ccjUSfAh.s:6635   .debug_str:0000000000000ccb .LASF18
     /tmp/ccjUSfAh.s:6623   .debug_str:0000000000000c8b .LASF20
     /tmp/ccjUSfAh.s:6533   .debug_str:0000000000000922 .LASF22
     /tmp/ccjUSfAh.s:6483   .debug_str:000000000000072f .LASF24
     /tmp/ccjUSfAh.s:6509   .debug_str:0000000000000843 .LASF19
     /tmp/ccjUSfAh.s:6511   .debug_str:000000000000084a .LASF21
     /tmp/ccjUSfAh.s:6477   .debug_str:000000000000070c .LASF23
     /tmp/ccjUSfAh.s:6431   .debug_str:00000000000005a6 .LASF25
     /tmp/ccjUSfAh.s:6671   .debug_str:0000000000000dd5 .LASF26
     /tmp/ccjUSfAh.s:6607   .debug_str:0000000000000bff .LASF27
     /tmp/ccjUSfAh.s:6471   .debug_str:00000000000006eb .LASF28
     /tmp/ccjUSfAh.s:6481   .debug_str:000000000000071b .LASF29
     /tmp/ccjUSfAh.s:6445   .debug_str:00000000000005f9 .LASF30
     /tmp/ccjUSfAh.s:6515   .debug_str:0000000000000882 .LASF31
     /tmp/ccjUSfAh.s:6701   .debug_str:0000000000000ec8 .LASF32
     /tmp/ccjUSfAh.s:6403   .debug_str:0000000000000445 .LASF33
     /tmp/ccjUSfAh.s:6571   .debug_str:0000000000000a6c .LASF34
     /tmp/ccjUSfAh.s:6553   .debug_str:00000000000009da .LASF35
     /tmp/ccjUSfAh.s:6555   .debug_str:00000000000009ed .LASF36
     /tmp/ccjUSfAh.s:6317   .debug_str:0000000000000165 .LASF37
GAS LISTING /tmp/ccjUSfAh.s 			page 54


     /tmp/ccjUSfAh.s:6343   .debug_str:0000000000000238 .LASF38
     /tmp/ccjUSfAh.s:6393   .debug_str:0000000000000403 .LASF39
     /tmp/ccjUSfAh.s:6401   .debug_str:000000000000043f .LASF40
     /tmp/ccjUSfAh.s:6335   .debug_str:00000000000001fb .LASF41
     /tmp/ccjUSfAh.s:6279   .debug_str:000000000000005e .LASF42
     /tmp/ccjUSfAh.s:6543   .debug_str:0000000000000963 .LASF43
     /tmp/ccjUSfAh.s:6535   .debug_str:000000000000092b .LASF44
     /tmp/ccjUSfAh.s:6693   .debug_str:0000000000000e89 .LASF45
     /tmp/ccjUSfAh.s:6663   .debug_str:0000000000000d8e .LASF46
     /tmp/ccjUSfAh.s:6675   .debug_str:0000000000000de9 .LASF47
     /tmp/ccjUSfAh.s:6657   .debug_str:0000000000000d79 .LASF48
     /tmp/ccjUSfAh.s:6463   .debug_str:0000000000000698 .LASF49
     /tmp/ccjUSfAh.s:6669   .debug_str:0000000000000dc6 .LASF51
     /tmp/ccjUSfAh.s:6375   .debug_str:000000000000035d .LASF53
     /tmp/ccjUSfAh.s:6495   .debug_str:0000000000000795 .LASF161
     /tmp/ccjUSfAh.s:6423   .debug_str:0000000000000532 .LASF163
     /tmp/ccjUSfAh.s:6667   .debug_str:0000000000000da2 .LASF55
     /tmp/ccjUSfAh.s:6653   .debug_str:0000000000000d54 .LASF100
     /tmp/ccjUSfAh.s:6437   .debug_str:00000000000005ce .LASF56
     /tmp/ccjUSfAh.s:6479   .debug_str:0000000000000713 .LASF57
     /tmp/ccjUSfAh.s:6315   .debug_str:0000000000000160 .LASF58
     /tmp/ccjUSfAh.s:6283   .debug_str:0000000000000082 .LASF59
     /tmp/ccjUSfAh.s:6409   .debug_str:0000000000000469 .LASF102
     /tmp/ccjUSfAh.s:6569   .debug_str:0000000000000a67 .LASF60
     /tmp/ccjUSfAh.s:6473   .debug_str:00000000000006f3 .LASF61
     /tmp/ccjUSfAh.s:6697   .debug_str:0000000000000eae .LASF62
     /tmp/ccjUSfAh.s:6545   .debug_str:000000000000097b .LASF64
     /tmp/ccjUSfAh.s:6295   .debug_str:00000000000000b9 .LASF63
     /tmp/ccjUSfAh.s:6487   .debug_str:0000000000000749 .LASF65
     /tmp/ccjUSfAh.s:6321   .debug_str:0000000000000196 .LASF66
     /tmp/ccjUSfAh.s:6367   .debug_str:0000000000000315 .LASF67
     /tmp/ccjUSfAh.s:6683   .debug_str:0000000000000e3d .LASF68
     /tmp/ccjUSfAh.s:6561   .debug_str:0000000000000a10 .LASF69
     /tmp/ccjUSfAh.s:6615   .debug_str:0000000000000c3a .LASF70
     /tmp/ccjUSfAh.s:6513   .debug_str:000000000000085d .LASF71
     /tmp/ccjUSfAh.s:6649   .debug_str:0000000000000d45 .LASF72
     /tmp/ccjUSfAh.s:6619   .debug_str:0000000000000c60 .LASF73
     /tmp/ccjUSfAh.s:6357   .debug_str:00000000000002b4 .LASF74
     /tmp/ccjUSfAh.s:6541   .debug_str:0000000000000959 .LASF75
     /tmp/ccjUSfAh.s:6525   .debug_str:00000000000008c9 .LASF76
     /tmp/ccjUSfAh.s:6489   .debug_str:0000000000000766 .LASF77
     /tmp/ccjUSfAh.s:6673   .debug_str:0000000000000ddd .LASF78
     /tmp/ccjUSfAh.s:6465   .debug_str:00000000000006ae .LASF79
     /tmp/ccjUSfAh.s:6581   .debug_str:0000000000000a9c .LASF80
     /tmp/ccjUSfAh.s:6305   .debug_str:0000000000000103 .LASF81
     /tmp/ccjUSfAh.s:6637   .debug_str:0000000000000cd4 .LASF82
     /tmp/ccjUSfAh.s:6347   .debug_str:0000000000000254 .LASF83
     /tmp/ccjUSfAh.s:6407   .debug_str:000000000000045f .LASF84
     /tmp/ccjUSfAh.s:6499   .debug_str:00000000000007c5 .LASF85
     /tmp/ccjUSfAh.s:6593   .debug_str:0000000000000add .LASF138
     /tmp/ccjUSfAh.s:6417   .debug_str:00000000000004e2 .LASF86
     /tmp/ccjUSfAh.s:6641   .debug_str:0000000000000ce3 .LASF87
     /tmp/ccjUSfAh.s:6281   .debug_str:0000000000000069 .LASF88
     /tmp/ccjUSfAh.s:6323   .debug_str:00000000000001a2 .LASF89
     /tmp/ccjUSfAh.s:6613   .debug_str:0000000000000c31 .LASF90
     /tmp/ccjUSfAh.s:6523   .debug_str:00000000000008c1 .LASF91
     /tmp/ccjUSfAh.s:6369   .debug_str:000000000000033d .LASF92
GAS LISTING /tmp/ccjUSfAh.s 			page 55


     /tmp/ccjUSfAh.s:6503   .debug_str:000000000000080a .LASF93
     /tmp/ccjUSfAh.s:6681   .debug_str:0000000000000e2b .LASF94
     /tmp/ccjUSfAh.s:6687   .debug_str:0000000000000e4e .LASF216
     /tmp/ccjUSfAh.s:6421   .debug_str:0000000000000516 .LASF217
     /tmp/ccjUSfAh.s:6425   .debug_str:0000000000000554 .LASF95
     /tmp/ccjUSfAh.s:6309   .debug_str:000000000000012c .LASF96
     /tmp/ccjUSfAh.s:6547   .debug_str:0000000000000998 .LASF97
     /tmp/ccjUSfAh.s:6703   .debug_str:0000000000000ed0 .LASF98
     /tmp/ccjUSfAh.s:6639   .debug_str:0000000000000cde .LASF101
     /tmp/ccjUSfAh.s:6435   .debug_str:00000000000005c9 .LASF99
     /tmp/ccjUSfAh.s:6599   .debug_str:0000000000000afe .LASF103
     /tmp/ccjUSfAh.s:6469   .debug_str:00000000000006e6 .LASF104
     /tmp/ccjUSfAh.s:6647   .debug_str:0000000000000d2e .LASF105
     /tmp/ccjUSfAh.s:6353   .debug_str:0000000000000282 .LASF106
     /tmp/ccjUSfAh.s:6387   .debug_str:00000000000003d7 .LASF218
     /tmp/ccjUSfAh.s:6695   .debug_str:0000000000000ea1 .LASF107
     /tmp/ccjUSfAh.s:6271   .debug_str:000000000000002b .LASF108
     /tmp/ccjUSfAh.s:6275   .debug_str:0000000000000047 .LASF109
     /tmp/ccjUSfAh.s:6419   .debug_str:00000000000004fe .LASF110
     /tmp/ccjUSfAh.s:6531   .debug_str:0000000000000919 .LASF111
     /tmp/ccjUSfAh.s:6691   .debug_str:0000000000000e68 .LASF112
     /tmp/ccjUSfAh.s:6449   .debug_str:0000000000000615 .LASF113
     /tmp/ccjUSfAh.s:6655   .debug_str:0000000000000d59 .LASF114
     /tmp/ccjUSfAh.s:6491   .debug_str:0000000000000776 .LASF115
     /tmp/ccjUSfAh.s:6429   .debug_str:0000000000000584 .LASF116
     /tmp/ccjUSfAh.s:6705   .debug_str:0000000000000ede .LASF117
     /tmp/ccjUSfAh.s:6529   .debug_str:00000000000008fa .LASF118
     /tmp/ccjUSfAh.s:6559   .debug_str:0000000000000a05 .LASF119
     /tmp/ccjUSfAh.s:6361   .debug_str:00000000000002e4 .LASF120
     /tmp/ccjUSfAh.s:6517   .debug_str:0000000000000896 .LASF121
     /tmp/ccjUSfAh.s:6319   .debug_str:0000000000000178 .LASF122
     /tmp/ccjUSfAh.s:6285   .debug_str:0000000000000087 .LASF123
     /tmp/ccjUSfAh.s:6351   .debug_str:000000000000027b .LASF219
     /tmp/ccjUSfAh.s:6307   .debug_str:0000000000000126 .LASF124
     /tmp/ccjUSfAh.s:6299   .debug_str:00000000000000dc .LASF125
     /tmp/ccjUSfAh.s:6455   .debug_str:0000000000000647 .LASF126
     /tmp/ccjUSfAh.s:6585   .debug_str:0000000000000ab0 .LASF127
     /tmp/ccjUSfAh.s:6577   .debug_str:0000000000000a8c .LASF128
     /tmp/ccjUSfAh.s:6433   .debug_str:00000000000005b9 .LASF129
     /tmp/ccjUSfAh.s:6587   .debug_str:0000000000000ab8 .LASF130
     /tmp/ccjUSfAh.s:6497   .debug_str:00000000000007aa .LASF131
     /tmp/ccjUSfAh.s:6291   .debug_str:00000000000000a8 .LASF132
     /tmp/ccjUSfAh.s:6645   .debug_str:0000000000000d13 .LASF133
     /tmp/ccjUSfAh.s:6443   .debug_str:00000000000005ec .LASF134
     /tmp/ccjUSfAh.s:6337   .debug_str:000000000000020d .LASF135
     /tmp/ccjUSfAh.s:6573   .debug_str:0000000000000a73 .LASF136
     /tmp/ccjUSfAh.s:6551   .debug_str:00000000000009b4 .LASF137
     /tmp/ccjUSfAh.s:6485   .debug_str:0000000000000744 .LASF139
     /tmp/ccjUSfAh.s:6441   .debug_str:00000000000005e6 .LASF140
     /tmp/ccjUSfAh.s:6267   .debug_str:0000000000000011 .LASF141
     /tmp/ccjUSfAh.s:6685   .debug_str:0000000000000e48 .LASF142
     /tmp/ccjUSfAh.s:6505   .debug_str:000000000000081b .LASF143
     /tmp/ccjUSfAh.s:6597   .debug_str:0000000000000af6 .LASF220
     /tmp/ccjUSfAh.s:6405   .debug_str:0000000000000459 .LASF144
     /tmp/ccjUSfAh.s:6643   .debug_str:0000000000000cff .LASF145
     /tmp/ccjUSfAh.s:6325   .debug_str:00000000000001ab .LASF146
     /tmp/ccjUSfAh.s:6617   .debug_str:0000000000000c44 .LASF147
GAS LISTING /tmp/ccjUSfAh.s 			page 56


     /tmp/ccjUSfAh.s:6527   .debug_str:00000000000008ea .LASF148
     /tmp/ccjUSfAh.s:6303   .debug_str:00000000000000f3 .LASF149
     /tmp/ccjUSfAh.s:6679   .debug_str:0000000000000e1b .LASF150
     /tmp/ccjUSfAh.s:6605   .debug_str:0000000000000bee .LASF151
     /tmp/ccjUSfAh.s:6563   .debug_str:0000000000000a37 .LASF152
     /tmp/ccjUSfAh.s:6265   .debug_str:0000000000000000 .LASF153
     /tmp/ccjUSfAh.s:6383   .debug_str:00000000000003b4 .LASF154
     /tmp/ccjUSfAh.s:6273   .debug_str:0000000000000042 .LASF155
     /tmp/ccjUSfAh.s:6689   .debug_str:0000000000000e62 .LASF156
     /tmp/ccjUSfAh.s:6621   .debug_str:0000000000000c83 .LASF157
     /tmp/ccjUSfAh.s:6611   .debug_str:0000000000000c27 .LASF158
     /tmp/ccjUSfAh.s:6583   .debug_str:0000000000000aa7 .LASF159
     /tmp/ccjUSfAh.s:6665   .debug_str:0000000000000d98 .LASF160
     /tmp/ccjUSfAh.s:6301   .debug_str:00000000000000e5 .LASF162
     /tmp/ccjUSfAh.s:6519   .debug_str:000000000000089f .LASF164
     /tmp/ccjUSfAh.s:6331   .debug_str:00000000000001d6 .LASF165
     /tmp/ccjUSfAh.s:6415   .debug_str:00000000000004b6 .LASF166
     /tmp/ccjUSfAh.s:6339   .debug_str:000000000000022a .LASF167
     /tmp/ccjUSfAh.s:6333   .debug_str:00000000000001e4 .LASF168
     /tmp/ccjUSfAh.s:6557   .debug_str:00000000000009f4 .LASF169
     /tmp/ccjUSfAh.s:6603   .debug_str:0000000000000be5 .LASF170
     /tmp/ccjUSfAh.s:6651   .debug_str:0000000000000d4d .LASF171
     /tmp/ccjUSfAh.s:6699   .debug_str:0000000000000ebf .LASF172
     /tmp/ccjUSfAh.s:6349   .debug_str:0000000000000276 .LASF173
     /tmp/ccjUSfAh.s:6365   .debug_str:000000000000030a .LASF174
     /tmp/ccjUSfAh.s:6379   .debug_str:0000000000000387 .LASF175
     /tmp/ccjUSfAh.s:6341   .debug_str:0000000000000233 .LASF176
     /tmp/ccjUSfAh.s:6625   .debug_str:0000000000000ca0 .LASF177
     /tmp/ccjUSfAh.s:6579   .debug_str:0000000000000a95 .LASF178
     /tmp/ccjUSfAh.s:6411   .debug_str:000000000000048b .LASF179
     /tmp/ccjUSfAh.s:6391   .debug_str:00000000000003fd .LASF180
     /tmp/ccjUSfAh.s:6381   .debug_str:000000000000039b .LASF181
     /tmp/ccjUSfAh.s:6457   .debug_str:000000000000064f .LASF182
     /tmp/ccjUSfAh.s:6447   .debug_str:0000000000000601 .LASF183
     /tmp/ccjUSfAh.s:6539   .debug_str:0000000000000944 .LASF184
     /tmp/ccjUSfAh.s:6589   .debug_str:0000000000000ac3 .LASF185
     /tmp/ccjUSfAh.s:6501   .debug_str:0000000000000802 .LASF186
     /tmp/ccjUSfAh.s:6373   .debug_str:0000000000000357 .LASF187
     /tmp/ccjUSfAh.s:6451   .debug_str:000000000000061d .LASF188
     /tmp/ccjUSfAh.s:6677   .debug_str:0000000000000dff .LASF189
     /tmp/ccjUSfAh.s:6459   .debug_str:0000000000000663 .LASF190
     /tmp/ccjUSfAh.s:6467   .debug_str:00000000000006d2 .LASF191
     /tmp/ccjUSfAh.s:6399   .debug_str:000000000000043a .LASF192
     /tmp/ccjUSfAh.s:6287   .debug_str:000000000000008f .LASF193
     /tmp/ccjUSfAh.s:6297   .debug_str:00000000000000cb .LASF194
     /tmp/ccjUSfAh.s:6453   .debug_str:0000000000000626 .LASF195
     /tmp/ccjUSfAh.s:6609   .debug_str:0000000000000c13 .LASF196
     /tmp/ccjUSfAh.s:6475   .debug_str:00000000000006f8 .LASF197
     /tmp/ccjUSfAh.s:6595   .debug_str:0000000000000ae5 .LASF198
     /tmp/ccjUSfAh.s:6591   .debug_str:0000000000000ad8 .LASF199
     /tmp/ccjUSfAh.s:6363   .debug_str:0000000000000305 .LASF201
     /tmp/ccjUSfAh.s:6293   .debug_str:00000000000000b4 .LASF200
     /tmp/ccjUSfAh.s:6355   .debug_str:000000000000029d .LASF210
     /tmp/ccjUSfAh.s:46     .text:0000000000000020 .LFB55
     /tmp/ccjUSfAh.s:1572   .text:0000000000000454 .LFE55
     /tmp/ccjUSfAh.s:6567   .debug_str:0000000000000a60 .LASF202
     /tmp/ccjUSfAh.s:5643   .debug_loc:0000000000000000 .LLST0
GAS LISTING /tmp/ccjUSfAh.s 			page 57


     /tmp/ccjUSfAh.s:6269   .debug_str:0000000000000025 .LASF203
     /tmp/ccjUSfAh.s:5650   .debug_loc:0000000000000023 .LLST1
     /tmp/ccjUSfAh.s:6627   .debug_str:0000000000000cb7 .LASF204
     /tmp/ccjUSfAh.s:5701   .debug_loc:0000000000000117 .LLST2
     /tmp/ccjUSfAh.s:415    .text:000000000000011c .LBB144
     /tmp/ccjUSfAh.s:560    .text:0000000000000184 .LBE144
     /tmp/ccjUSfAh.s:6661   .debug_str:0000000000000d89 .LASF205
     /tmp/ccjUSfAh.s:5712   .debug_loc:000000000000014d .LLST3
     /tmp/ccjUSfAh.s:6385   .debug_str:00000000000003cf .LASF206
     /tmp/ccjUSfAh.s:5719   .debug_loc:0000000000000170 .LLST4
     /tmp/ccjUSfAh.s:5726   .debug_loc:0000000000000193 .LLST5
     /tmp/ccjUSfAh.s:6629   .debug_str:0000000000000cbc .LASF207
     /tmp/ccjUSfAh.s:5733   .debug_loc:00000000000001b6 .LLST6
     /tmp/ccjUSfAh.s:6631   .debug_str:0000000000000cc1 .LASF208
     /tmp/ccjUSfAh.s:5740   .debug_loc:00000000000001d9 .LLST7
     /tmp/ccjUSfAh.s:6633   .debug_str:0000000000000cc6 .LASF209
     /tmp/ccjUSfAh.s:5747   .debug_loc:00000000000001fc .LLST8
     /tmp/ccjUSfAh.s:5754   .debug_loc:000000000000021f .LLST9
     /tmp/ccjUSfAh.s:5761   .debug_loc:0000000000000242 .LLST10
     /tmp/ccjUSfAh.s:417    .text:000000000000011c .LBB145
     /tmp/ccjUSfAh.s:432    .text:0000000000000128 .LBE145
     /tmp/ccjUSfAh.s:437    .text:000000000000012c .LBB147
     /tmp/ccjUSfAh.s:453    .text:0000000000000138 .LBE147
     /tmp/ccjUSfAh.s:527    .text:0000000000000170 .LBB149
     /tmp/ccjUSfAh.s:538    .text:0000000000000174 .LBE149
     /tmp/ccjUSfAh.s:5768   .debug_loc:0000000000000265 .LLST11
     /tmp/ccjUSfAh.s:540    .text:0000000000000174 .LBB151
     /tmp/ccjUSfAh.s:554    .text:000000000000017c .LBE151
     /tmp/ccjUSfAh.s:5775   .debug_loc:0000000000000288 .LLST12
     /tmp/ccjUSfAh.s:507    .text:0000000000000160 .LVL19
     /tmp/ccjUSfAh.s:563    .text:0000000000000184 .LBB319
     /tmp/ccjUSfAh.s:654    .text:00000000000001c0 .LBE319
     /tmp/ccjUSfAh.s:5782   .debug_loc:00000000000002ab .LLST70
     /tmp/ccjUSfAh.s:5789   .debug_loc:00000000000002ce .LLST71
     /tmp/ccjUSfAh.s:5796   .debug_loc:00000000000002f1 .LLST72
     /tmp/ccjUSfAh.s:565    .text:0000000000000184 .LBB320
     /tmp/ccjUSfAh.s:581    .text:0000000000000190 .LBE320
     /tmp/ccjUSfAh.s:586    .text:0000000000000194 .LBB322
     /tmp/ccjUSfAh.s:602    .text:00000000000001a0 .LBE322
     /tmp/ccjUSfAh.s:626    .text:00000000000001b4 .LBB324
     /tmp/ccjUSfAh.s:637    .text:00000000000001b8 .LBE324
     /tmp/ccjUSfAh.s:5803   .debug_loc:0000000000000314 .LLST73
     /tmp/ccjUSfAh.s:639    .text:00000000000001b8 .LBB326
     /tmp/ccjUSfAh.s:653    .text:00000000000001c0 .LBE326
     /tmp/ccjUSfAh.s:5810   .debug_loc:0000000000000337 .LLST74
     /tmp/ccjUSfAh.s:616    .text:00000000000001b0 .LVL30
     /tmp/ccjUSfAh.s:656    .text:00000000000001c0 .LBB300
     /tmp/ccjUSfAh.s:745    .text:00000000000001f8 .LBE300
     /tmp/ccjUSfAh.s:5817   .debug_loc:000000000000035a .LLST65
     /tmp/ccjUSfAh.s:5824   .debug_loc:000000000000037d .LLST66
     /tmp/ccjUSfAh.s:5831   .debug_loc:00000000000003a0 .LLST67
     /tmp/ccjUSfAh.s:658    .text:00000000000001c0 .LBB301
     /tmp/ccjUSfAh.s:674    .text:00000000000001cc .LBE301
     /tmp/ccjUSfAh.s:679    .text:00000000000001d0 .LBB303
     /tmp/ccjUSfAh.s:695    .text:00000000000001dc .LBE303
     /tmp/ccjUSfAh.s:717    .text:00000000000001ec .LBB305
     /tmp/ccjUSfAh.s:728    .text:00000000000001f0 .LBE305
GAS LISTING /tmp/ccjUSfAh.s 			page 58


     /tmp/ccjUSfAh.s:5838   .debug_loc:00000000000003c3 .LLST68
     /tmp/ccjUSfAh.s:730    .text:00000000000001f0 .LBB307
     /tmp/ccjUSfAh.s:744    .text:00000000000001f8 .LBE307
     /tmp/ccjUSfAh.s:5845   .debug_loc:00000000000003e6 .LLST69
     /tmp/ccjUSfAh.s:707    .text:00000000000001e8 .LVL38
     /tmp/ccjUSfAh.s:747    .text:00000000000001f8 .LBB282
     /tmp/ccjUSfAh.s:827    .text:000000000000023c .LBE282
     /tmp/ccjUSfAh.s:5852   .debug_loc:0000000000000409 .LLST61
     /tmp/ccjUSfAh.s:5859   .debug_loc:000000000000042c .LLST62
     /tmp/ccjUSfAh.s:749    .text:00000000000001f8 .LBB283
     /tmp/ccjUSfAh.s:765    .text:0000000000000204 .LBE283
     /tmp/ccjUSfAh.s:770    .text:0000000000000208 .LBB285
     /tmp/ccjUSfAh.s:786    .text:0000000000000214 .LBE285
     /tmp/ccjUSfAh.s:799    .text:0000000000000230 .LBB287
     /tmp/ccjUSfAh.s:810    .text:0000000000000234 .LBE287
     /tmp/ccjUSfAh.s:5866   .debug_loc:000000000000044f .LLST63
     /tmp/ccjUSfAh.s:812    .text:0000000000000234 .LBB289
     /tmp/ccjUSfAh.s:826    .text:000000000000023c .LBE289
     /tmp/ccjUSfAh.s:5873   .debug_loc:0000000000000472 .LLST64
     /tmp/ccjUSfAh.s:797    .text:0000000000000230 .LVL45
     /tmp/ccjUSfAh.s:829    .text:000000000000023c .LBB265
     /tmp/ccjUSfAh.s:902    .text:000000000000026c .LBE265
     /tmp/ccjUSfAh.s:5880   .debug_loc:0000000000000495 .LLST57
     /tmp/ccjUSfAh.s:5887   .debug_loc:00000000000004b8 .LLST58
     /tmp/ccjUSfAh.s:831    .text:000000000000023c .LBB266
     /tmp/ccjUSfAh.s:847    .text:0000000000000248 .LBE266
     /tmp/ccjUSfAh.s:852    .text:000000000000024c .LBB268
     /tmp/ccjUSfAh.s:868    .text:0000000000000258 .LBE268
     /tmp/ccjUSfAh.s:874    .text:0000000000000260 .LBB270
     /tmp/ccjUSfAh.s:885    .text:0000000000000264 .LBE270
     /tmp/ccjUSfAh.s:5894   .debug_loc:00000000000004db .LLST59
     /tmp/ccjUSfAh.s:887    .text:0000000000000264 .LBB272
     /tmp/ccjUSfAh.s:901    .text:000000000000026c .LBE272
     /tmp/ccjUSfAh.s:5901   .debug_loc:00000000000004fe .LLST60
     /tmp/ccjUSfAh.s:872    .text:0000000000000260 .LVL51
     /tmp/ccjUSfAh.s:904    .text:000000000000026c .LBB249
     /tmp/ccjUSfAh.s:981    .text:00000000000002a8 .LBE249
     /tmp/ccjUSfAh.s:5908   .debug_loc:0000000000000521 .LLST53
     /tmp/ccjUSfAh.s:5915   .debug_loc:0000000000000544 .LLST54
     /tmp/ccjUSfAh.s:906    .text:000000000000026c .LBB250
     /tmp/ccjUSfAh.s:922    .text:0000000000000278 .LBE250
     /tmp/ccjUSfAh.s:927    .text:000000000000027c .LBB252
     /tmp/ccjUSfAh.s:943    .text:0000000000000288 .LBE252
     /tmp/ccjUSfAh.s:953    .text:000000000000029c .LBB254
     /tmp/ccjUSfAh.s:964    .text:00000000000002a0 .LBE254
     /tmp/ccjUSfAh.s:5922   .debug_loc:0000000000000567 .LLST55
     /tmp/ccjUSfAh.s:966    .text:00000000000002a0 .LBB256
     /tmp/ccjUSfAh.s:980    .text:00000000000002a8 .LBE256
     /tmp/ccjUSfAh.s:5929   .debug_loc:000000000000058a .LLST56
     /tmp/ccjUSfAh.s:951    .text:000000000000029c .LVL57
     /tmp/ccjUSfAh.s:983    .text:00000000000002a8 .LBB230
     /tmp/ccjUSfAh.s:1124   .text:0000000000000310 .LBE230
     /tmp/ccjUSfAh.s:5936   .debug_loc:00000000000005ad .LLST42
     /tmp/ccjUSfAh.s:5943   .debug_loc:00000000000005d0 .LLST43
     /tmp/ccjUSfAh.s:5950   .debug_loc:00000000000005f3 .LLST44
     /tmp/ccjUSfAh.s:5957   .debug_loc:0000000000000616 .LLST45
     /tmp/ccjUSfAh.s:5964   .debug_loc:0000000000000639 .LLST46
GAS LISTING /tmp/ccjUSfAh.s 			page 59


     /tmp/ccjUSfAh.s:5971   .debug_loc:000000000000065c .LLST47
     /tmp/ccjUSfAh.s:985    .text:00000000000002a8 .LBB231
     /tmp/ccjUSfAh.s:1001   .text:00000000000002b4 .LBE231
     /tmp/ccjUSfAh.s:1006   .text:00000000000002b8 .LBB233
     /tmp/ccjUSfAh.s:1022   .text:00000000000002c4 .LBE233
     /tmp/ccjUSfAh.s:1054   .text:00000000000002e0 .LBB235
     /tmp/ccjUSfAh.s:1070   .text:00000000000002ec .LBE235
     /tmp/ccjUSfAh.s:5988   .debug_loc:00000000000006a7 .LLST48
     /tmp/ccjUSfAh.s:5995   .debug_loc:00000000000006ca .LLST49
     /tmp/ccjUSfAh.s:1060   .text:00000000000002e4 .LBB237
     /tmp/ccjUSfAh.s:1068   .text:00000000000002ec .LBE237
     /tmp/ccjUSfAh.s:6002   .debug_loc:00000000000006ed .LLST50
     /tmp/ccjUSfAh.s:1091   .text:00000000000002fc .LBB239
     /tmp/ccjUSfAh.s:1102   .text:0000000000000300 .LBE239
     /tmp/ccjUSfAh.s:6011   .debug_loc:0000000000000712 .LLST51
     /tmp/ccjUSfAh.s:1104   .text:0000000000000300 .LBB241
     /tmp/ccjUSfAh.s:1118   .text:0000000000000308 .LBE241
     /tmp/ccjUSfAh.s:6018   .debug_loc:0000000000000735 .LLST52
     /tmp/ccjUSfAh.s:1053   .text:00000000000002e0 .LVL65
     /tmp/ccjUSfAh.s:1126   .text:0000000000000310 .LBB208
     /tmp/ccjUSfAh.s:1282   .text:00000000000003a4 .LBE208
     /tmp/ccjUSfAh.s:6025   .debug_loc:0000000000000758 .LLST31
     /tmp/ccjUSfAh.s:6032   .debug_loc:000000000000077b .LLST32
     /tmp/ccjUSfAh.s:6039   .debug_loc:000000000000079e .LLST33
     /tmp/ccjUSfAh.s:6249   .debug_ranges:0000000000000000 .Ldebug_ranges0
     /tmp/ccjUSfAh.s:6046   .debug_loc:00000000000007c1 .LLST35
     /tmp/ccjUSfAh.s:1184   .text:0000000000000338 .LBB214
     /tmp/ccjUSfAh.s:6053   .debug_loc:00000000000007e4 .LLST36
     /tmp/ccjUSfAh.s:6068   .debug_loc:000000000000081e .LLST37
     /tmp/ccjUSfAh.s:6079   .debug_loc:0000000000000854 .LLST38
     /tmp/ccjUSfAh.s:1191   .text:0000000000000344 .LVL79
     /tmp/ccjUSfAh.s:1208   .text:0000000000000364 .LVL80
     /tmp/ccjUSfAh.s:1128   .text:0000000000000310 .LBB209
     /tmp/ccjUSfAh.s:1143   .text:000000000000031c .LBE209
     /tmp/ccjUSfAh.s:1148   .text:0000000000000320 .LBB211
     /tmp/ccjUSfAh.s:1164   .text:000000000000032c .LBE211
     /tmp/ccjUSfAh.s:1213   .text:0000000000000364 .LBB218
     /tmp/ccjUSfAh.s:1223   .text:0000000000000370 .LBE218
     /tmp/ccjUSfAh.s:6086   .debug_loc:0000000000000877 .LLST39
     /tmp/ccjUSfAh.s:1254   .text:0000000000000398 .LBB221
     /tmp/ccjUSfAh.s:1265   .text:000000000000039c .LBE221
     /tmp/ccjUSfAh.s:6095   .debug_loc:000000000000089c .LLST40
     /tmp/ccjUSfAh.s:1267   .text:000000000000039c .LBB223
     /tmp/ccjUSfAh.s:1281   .text:00000000000003a4 .LBE223
     /tmp/ccjUSfAh.s:6102   .debug_loc:00000000000008bf .LLST41
     /tmp/ccjUSfAh.s:1251   .text:0000000000000398 .LVL84
     /tmp/ccjUSfAh.s:1284   .text:00000000000003a4 .LBB195
     /tmp/ccjUSfAh.s:1379   .text:00000000000003e0 .LBE195
     /tmp/ccjUSfAh.s:6109   .debug_loc:00000000000008e2 .LLST25
     /tmp/ccjUSfAh.s:6116   .debug_loc:0000000000000905 .LLST26
     /tmp/ccjUSfAh.s:6123   .debug_loc:0000000000000928 .LLST27
     /tmp/ccjUSfAh.s:6130   .debug_loc:000000000000094b .LLST28
     /tmp/ccjUSfAh.s:1286   .text:00000000000003a4 .LBB196
     /tmp/ccjUSfAh.s:1302   .text:00000000000003b0 .LBE196
     /tmp/ccjUSfAh.s:1307   .text:00000000000003b4 .LBB198
     /tmp/ccjUSfAh.s:1323   .text:00000000000003c0 .LBE198
     /tmp/ccjUSfAh.s:1351   .text:00000000000003d4 .LBB200
GAS LISTING /tmp/ccjUSfAh.s 			page 60


     /tmp/ccjUSfAh.s:1362   .text:00000000000003d8 .LBE200
     /tmp/ccjUSfAh.s:6137   .debug_loc:000000000000096e .LLST29
     /tmp/ccjUSfAh.s:1364   .text:00000000000003d8 .LBB202
     /tmp/ccjUSfAh.s:1378   .text:00000000000003e0 .LBE202
     /tmp/ccjUSfAh.s:6144   .debug_loc:0000000000000991 .LLST30
     /tmp/ccjUSfAh.s:1341   .text:00000000000003d0 .LVL91
     /tmp/ccjUSfAh.s:1381   .text:00000000000003e0 .LBB183
     /tmp/ccjUSfAh.s:1478   .text:0000000000000420 .LBE183
     /tmp/ccjUSfAh.s:6151   .debug_loc:00000000000009b4 .LLST19
     /tmp/ccjUSfAh.s:6158   .debug_loc:00000000000009d7 .LLST20
     /tmp/ccjUSfAh.s:6165   .debug_loc:00000000000009fa .LLST21
     /tmp/ccjUSfAh.s:6172   .debug_loc:0000000000000a1d .LLST22
     /tmp/ccjUSfAh.s:1383   .text:00000000000003e0 .LBB184
     /tmp/ccjUSfAh.s:1399   .text:00000000000003ec .LBE184
     /tmp/ccjUSfAh.s:1404   .text:00000000000003f0 .LBB186
     /tmp/ccjUSfAh.s:1420   .text:00000000000003fc .LBE186
     /tmp/ccjUSfAh.s:1450   .text:0000000000000414 .LBB188
     /tmp/ccjUSfAh.s:1461   .text:0000000000000418 .LBE188
     /tmp/ccjUSfAh.s:6180   .debug_loc:0000000000000a41 .LLST23
     /tmp/ccjUSfAh.s:1463   .text:0000000000000418 .LBB190
     /tmp/ccjUSfAh.s:1477   .text:0000000000000420 .LBE190
     /tmp/ccjUSfAh.s:6187   .debug_loc:0000000000000a64 .LLST24
     /tmp/ccjUSfAh.s:1438   .text:000000000000040c .LVL99
     /tmp/ccjUSfAh.s:1480   .text:0000000000000420 .LBB173
     /tmp/ccjUSfAh.s:1559   .text:0000000000000454 .LBE173
     /tmp/ccjUSfAh.s:1482   .text:0000000000000420 .LBB174
     /tmp/ccjUSfAh.s:1498   .text:000000000000042c .LBE174
     /tmp/ccjUSfAh.s:1503   .text:0000000000000430 .LBB176
     /tmp/ccjUSfAh.s:1519   .text:000000000000043c .LBE176
     /tmp/ccjUSfAh.s:1533   .text:0000000000000448 .LBB178
     /tmp/ccjUSfAh.s:1544   .text:000000000000044c .LBE178
     /tmp/ccjUSfAh.s:6194   .debug_loc:0000000000000a87 .LLST18
     /tmp/ccjUSfAh.s:1546   .text:000000000000044c .LBB180
     /tmp/ccjUSfAh.s:1558   .text:0000000000000454 .LBE180
     /tmp/ccjUSfAh.s:1523   .text:0000000000000444 .LVL106
     /tmp/ccjUSfAh.s:311    .text:00000000000000e0 .LBB164
     /tmp/ccjUSfAh.s:396    .text:0000000000000118 .LBE164
     /tmp/ccjUSfAh.s:6201   .debug_loc:0000000000000aaa .LLST13
     /tmp/ccjUSfAh.s:6208   .debug_loc:0000000000000acd .LLST14
     /tmp/ccjUSfAh.s:6215   .debug_loc:0000000000000af0 .LLST15
     /tmp/ccjUSfAh.s:313    .text:00000000000000e0 .LBB165
     /tmp/ccjUSfAh.s:329    .text:00000000000000ec .LBE165
     /tmp/ccjUSfAh.s:334    .text:00000000000000f0 .LBB167
     /tmp/ccjUSfAh.s:350    .text:00000000000000fc .LBE167
     /tmp/ccjUSfAh.s:371    .text:0000000000000110 .LBB169
     /tmp/ccjUSfAh.s:382    .text:0000000000000114 .LBE169
     /tmp/ccjUSfAh.s:6222   .debug_loc:0000000000000b13 .LLST16
     /tmp/ccjUSfAh.s:384    .text:0000000000000114 .LBB171
     /tmp/ccjUSfAh.s:395    .text:0000000000000118 .LBE171
     /tmp/ccjUSfAh.s:6229   .debug_loc:0000000000000b36 .LLST17
     /tmp/ccjUSfAh.s:369    .text:0000000000000110 .LVL9
     /tmp/ccjUSfAh.s:66     .text:0000000000000040 .LBB140
     /tmp/ccjUSfAh.s:82     .text:000000000000004c .LBE140
     /tmp/ccjUSfAh.s:10     .text:0000000000000000 .LFB54
     /tmp/ccjUSfAh.s:40     .text:0000000000000020 .LFE54
     /tmp/ccjUSfAh.s:6289   .debug_str:00000000000000a3 .LASF212
     /tmp/ccjUSfAh.s:6507   .debug_str:000000000000082f .LASF211
GAS LISTING /tmp/ccjUSfAh.s 			page 61


     /tmp/ccjUSfAh.s:85     .text:0000000000000050 .LVL0
     /tmp/ccjUSfAh.s:100    .text:0000000000000058 .LVL2
     /tmp/ccjUSfAh.s:94     .text:0000000000000054 .LVL1
     /tmp/ccjUSfAh.s:104    .text:0000000000000060 .LVL3
     /tmp/ccjUSfAh.s:125    .text:0000000000000080 .LVL4
     /tmp/ccjUSfAh.s:327    .text:00000000000000ec .LVL5
     /tmp/ccjUSfAh.s:411    .text:000000000000011c .LVL12
     /tmp/ccjUSfAh.s:579    .text:0000000000000190 .LVL25
     /tmp/ccjUSfAh.s:650    .text:00000000000001c0 .LVL33
     /tmp/ccjUSfAh.s:672    .text:00000000000001cc .LVL34
     /tmp/ccjUSfAh.s:741    .text:00000000000001f8 .LVL41
     /tmp/ccjUSfAh.s:763    .text:0000000000000204 .LVL42
     /tmp/ccjUSfAh.s:823    .text:000000000000023c .LVL47
     /tmp/ccjUSfAh.s:845    .text:0000000000000248 .LVL48
     /tmp/ccjUSfAh.s:898    .text:000000000000026c .LVL53
     /tmp/ccjUSfAh.s:920    .text:0000000000000278 .LVL54
     /tmp/ccjUSfAh.s:977    .text:00000000000002a8 .LVL59
     /tmp/ccjUSfAh.s:999    .text:00000000000002b4 .LVL60
     /tmp/ccjUSfAh.s:1122   .text:0000000000000310 .LVL73
     /tmp/ccjUSfAh.s:1177   .text:0000000000000334 .LVL76
     /tmp/ccjUSfAh.s:1278   .text:00000000000003a4 .LVL86
     /tmp/ccjUSfAh.s:1300   .text:00000000000003b0 .LVL87
     /tmp/ccjUSfAh.s:1375   .text:00000000000003e0 .LVL94
     /tmp/ccjUSfAh.s:1397   .text:00000000000003ec .LVL95
     /tmp/ccjUSfAh.s:1474   .text:0000000000000420 .LVL102
     /tmp/ccjUSfAh.s:1496   .text:000000000000042c .LVL103
     /tmp/ccjUSfAh.s:609    .text:00000000000001a4 .LVL28
     /tmp/ccjUSfAh.s:614    .text:00000000000001a8 .LVL29
     /tmp/ccjUSfAh.s:702    .text:00000000000001e0 .LVL37
     /tmp/ccjUSfAh.s:435    .text:000000000000012c .LVL13
     /tmp/ccjUSfAh.s:558    .text:0000000000000184 .LVL24
     /tmp/ccjUSfAh.s:451    .text:0000000000000138 .LVL14
     /tmp/ccjUSfAh.s:484    .text:000000000000014c .LVL15
     /tmp/ccjUSfAh.s:490    .text:0000000000000150 .LVL16
     /tmp/ccjUSfAh.s:496    .text:0000000000000154 .LVL17
     /tmp/ccjUSfAh.s:502    .text:0000000000000158 .LVL18
     /tmp/ccjUSfAh.s:517    .text:000000000000016c .LVL20
     /tmp/ccjUSfAh.s:551    .text:000000000000017c .LVL23
     /tmp/ccjUSfAh.s:525    .text:0000000000000170 .LVL21
     /tmp/ccjUSfAh.s:535    .text:0000000000000174 .LVL22
     /tmp/ccjUSfAh.s:584    .text:0000000000000194 .LVL26
     /tmp/ccjUSfAh.s:600    .text:00000000000001a0 .LVL27
     /tmp/ccjUSfAh.s:624    .text:00000000000001b4 .LVL31
     /tmp/ccjUSfAh.s:634    .text:00000000000001b8 .LVL32
     /tmp/ccjUSfAh.s:677    .text:00000000000001d0 .LVL35
     /tmp/ccjUSfAh.s:693    .text:00000000000001dc .LVL36
     /tmp/ccjUSfAh.s:715    .text:00000000000001ec .LVL39
     /tmp/ccjUSfAh.s:725    .text:00000000000001f0 .LVL40
     /tmp/ccjUSfAh.s:768    .text:0000000000000208 .LVL43
     /tmp/ccjUSfAh.s:784    .text:0000000000000214 .LVL44
     /tmp/ccjUSfAh.s:807    .text:0000000000000234 .LVL46
     /tmp/ccjUSfAh.s:850    .text:000000000000024c .LVL49
     /tmp/ccjUSfAh.s:866    .text:0000000000000258 .LVL50
     /tmp/ccjUSfAh.s:882    .text:0000000000000264 .LVL52
     /tmp/ccjUSfAh.s:925    .text:000000000000027c .LVL55
     /tmp/ccjUSfAh.s:941    .text:0000000000000288 .LVL56
     /tmp/ccjUSfAh.s:961    .text:00000000000002a0 .LVL58
GAS LISTING /tmp/ccjUSfAh.s 			page 62


     /tmp/ccjUSfAh.s:1004   .text:00000000000002b8 .LVL61
     /tmp/ccjUSfAh.s:1020   .text:00000000000002c4 .LVL62
     /tmp/ccjUSfAh.s:1041   .text:00000000000002d0 .LVL63
     /tmp/ccjUSfAh.s:1047   .text:00000000000002d4 .LVL64
     /tmp/ccjUSfAh.s:1066   .text:00000000000002ec .LVL67
     /tmp/ccjUSfAh.s:1075   .text:00000000000002f0 .LVL68
     /tmp/ccjUSfAh.s:1081   .text:00000000000002f8 .LVL69
     /tmp/ccjUSfAh.s:1115   .text:0000000000000308 .LVL72
     /tmp/ccjUSfAh.s:1059   .text:00000000000002e4 .LVL66
     /tmp/ccjUSfAh.s:1089   .text:00000000000002fc .LVL70
     /tmp/ccjUSfAh.s:1099   .text:0000000000000300 .LVL71
     /tmp/ccjUSfAh.s:1146   .text:0000000000000320 .LVL74
     /tmp/ccjUSfAh.s:1162   .text:000000000000032c .LVL75
     /tmp/ccjUSfAh.s:1181   .text:0000000000000338 .LVL77
     /tmp/ccjUSfAh.s:1228   .text:0000000000000374 .LVL82
     /tmp/ccjUSfAh.s:1240   .text:0000000000000388 .LVL83
     /tmp/ccjUSfAh.s:1188   .text:000000000000033c .LVL78
     /tmp/ccjUSfAh.s:1221   .text:0000000000000370 .LVL81
     /tmp/ccjUSfAh.s:1262   .text:000000000000039c .LVL85
     /tmp/ccjUSfAh.s:1305   .text:00000000000003b4 .LVL88
     /tmp/ccjUSfAh.s:1321   .text:00000000000003c0 .LVL89
     /tmp/ccjUSfAh.s:1336   .text:00000000000003c8 .LVL90
     /tmp/ccjUSfAh.s:1349   .text:00000000000003d4 .LVL92
     /tmp/ccjUSfAh.s:1359   .text:00000000000003d8 .LVL93
     /tmp/ccjUSfAh.s:1402   .text:00000000000003f0 .LVL96
     /tmp/ccjUSfAh.s:1418   .text:00000000000003fc .LVL97
     /tmp/ccjUSfAh.s:1433   .text:0000000000000404 .LVL98
     /tmp/ccjUSfAh.s:1448   .text:0000000000000414 .LVL100
     /tmp/ccjUSfAh.s:1458   .text:0000000000000418 .LVL101
     /tmp/ccjUSfAh.s:1531   .text:0000000000000448 .LVL107
     /tmp/ccjUSfAh.s:1541   .text:000000000000044c .LVL108
     /tmp/ccjUSfAh.s:332    .text:00000000000000f0 .LVL6
     /tmp/ccjUSfAh.s:348    .text:00000000000000fc .LVL7
     /tmp/ccjUSfAh.s:363    .text:0000000000000104 .LVL8
     /tmp/ccjUSfAh.s:379    .text:0000000000000114 .LVL10
     /tmp/ccjUSfAh.s:392    .text:0000000000000118 .LVL11
     /tmp/ccjUSfAh.s:1582   .debug_info:0000000000000000 .Ldebug_info0
     /tmp/ccjUSfAh.s:1183   .text:0000000000000338 .LBB213
     /tmp/ccjUSfAh.s:1210   .text:0000000000000364 .LBE213
     /tmp/ccjUSfAh.s:1226   .text:0000000000000374 .LBB220
     /tmp/ccjUSfAh.s:1244   .text:0000000000000388 .LBE220
     /tmp/ccjUSfAh.s:1193   .text:0000000000000344 .LBE214
     /tmp/ccjUSfAh.s:1229   .text:0000000000000374 .LBB217
     /tmp/ccjUSfAh.s:1243   .text:0000000000000388 .LBE217

UNDEFINED SYMBOLS
_ZN8KConsole4putcEc
_ZN7_thread12createThreadEPFvPvES0_Pm
_ZN15MemoryAllocator10kmem_allocEm
_ZN15MemoryAllocator9kmem_freeEPv
_ZN7_thread7runningE
_ZN7_thread8dispatchEv
_ZN7_thread16timeSliceCounterE
_ZN10KSemaphorenwEm
_ZN9Scheduler3putEP7_thread
_ZN10KSemaphoredlEPv
_ZN10KSemaphore4waitEv
GAS LISTING /tmp/ccjUSfAh.s 			page 63


_ZN10KSemaphore6signalEv
_ZN8KConsole4getcEv
