GAS LISTING /tmp/ccpWTA4I.s 			page 1


   1              		.file	"Riscv.cpp"
   2              		.option pic
   3              		.option norelax
   4              		.text
   5              	.Ltext0:
   6              		.align	2
   7              		.globl	_ZN5Riscv10popSppSpieEv
   9              	_ZN5Riscv10popSppSpieEv:
  10              	.LFB52:
  11              		.file 1 "src/Riscv.cpp"
   1:src/Riscv.cpp **** //
   2:src/Riscv.cpp **** // Created by os on 6/17/22.
   3:src/Riscv.cpp **** //
   4:src/Riscv.cpp **** 
   5:src/Riscv.cpp **** #include "../h/Riscv.hpp"
   6:src/Riscv.cpp **** #include "../h/MemoryAllocator.hpp"
   7:src/Riscv.cpp **** #include "../h/_thread.hpp"
   8:src/Riscv.cpp **** #include "../h/KSemaphore.hpp"
   9:src/Riscv.cpp **** #include "../h/KConsole.hpp"
  10:src/Riscv.cpp **** 
  11:src/Riscv.cpp **** 
  12:src/Riscv.cpp **** 
  13:src/Riscv.cpp **** 
  14:src/Riscv.cpp **** void Riscv::popSppSpie()    //pop supervisor previous privilege, supervisor previous interrupt enab
  15:src/Riscv.cpp **** {
  12              		.loc 1 15 1
  13              		.cfi_startproc
  14 0000 130101FF 		addi	sp,sp,-16
  15              		.cfi_def_cfa_offset 16
  16 0004 23348100 		sd	s0,8(sp)
  17              		.cfi_offset 8, -8
  18 0008 13040101 		addi	s0,sp,16
  19              		.cfi_def_cfa 8, 0
  16:src/Riscv.cpp ****     __asm__ volatile ("csrw sepc, ra");
  20              		.loc 1 16 5
  21              		.loc 1 16 39 is_stmt 0
  22              	#APP
  23              	# 16 "src/Riscv.cpp" 1
  17              	    mc_sstatus(SSTATUS_SPP);
  24              		csrw sepc, ra
  25              	# 0 "" 2
  26              		.loc 1 17 5 is_stmt 1
  27              	.LVL0:
  28              	#NO_APP
  29              	.LBB170:
  30              	.LBB171:
  31              		.file 2 "src/../h/Riscv.hpp"
   1:src/../h/Riscv.hpp **** //
   2:src/../h/Riscv.hpp **** // Created by os on 6/17/22.
   3:src/../h/Riscv.hpp **** //
   4:src/../h/Riscv.hpp **** 
   5:src/../h/Riscv.hpp **** #ifndef PROJECT_BASE_V1_1_RISCV_HPP
   6:src/../h/Riscv.hpp **** #define PROJECT_BASE_V1_1_RISCV_HPP
   7:src/../h/Riscv.hpp **** 
   8:src/../h/Riscv.hpp **** #include "../lib/hw.h"
   9:src/../h/Riscv.hpp **** 
  10:src/../h/Riscv.hpp **** 
GAS LISTING /tmp/ccpWTA4I.s 			page 2


  11:src/../h/Riscv.hpp **** class Riscv
  12:src/../h/Riscv.hpp **** {
  13:src/../h/Riscv.hpp **** public:
  14:src/../h/Riscv.hpp **** 
  15:src/../h/Riscv.hpp ****     static bool privilege;
  16:src/../h/Riscv.hpp ****     static bool entered;
  17:src/../h/Riscv.hpp **** 
  18:src/../h/Riscv.hpp ****     // pop sstatus.spp and sstatus.spie bits (has to be a non inline function)
  19:src/../h/Riscv.hpp ****     static void popSppSpie();
  20:src/../h/Riscv.hpp **** 
  21:src/../h/Riscv.hpp ****     // read register scause
  22:src/../h/Riscv.hpp ****     static uint64 r_scause();
  23:src/../h/Riscv.hpp **** 
  24:src/../h/Riscv.hpp ****     // write register scause
  25:src/../h/Riscv.hpp ****     static void w_scause(uint64 scause);
  26:src/../h/Riscv.hpp **** 
  27:src/../h/Riscv.hpp ****     // read register sepc
  28:src/../h/Riscv.hpp ****     static uint64 r_sepc();
  29:src/../h/Riscv.hpp **** 
  30:src/../h/Riscv.hpp ****     // write register sepc
  31:src/../h/Riscv.hpp ****     static void w_sepc(uint64 sepc);
  32:src/../h/Riscv.hpp **** 
  33:src/../h/Riscv.hpp ****     // read register stvec
  34:src/../h/Riscv.hpp ****     static uint64 r_stvec();
  35:src/../h/Riscv.hpp **** 
  36:src/../h/Riscv.hpp ****     // write register stvec
  37:src/../h/Riscv.hpp ****     static void w_stvec(uint64 stvec);
  38:src/../h/Riscv.hpp **** 
  39:src/../h/Riscv.hpp ****     // read register stval
  40:src/../h/Riscv.hpp ****     static uint64 r_stval();
  41:src/../h/Riscv.hpp **** 
  42:src/../h/Riscv.hpp ****     // write register stval
  43:src/../h/Riscv.hpp ****     static void w_stval(uint64 stval);
  44:src/../h/Riscv.hpp **** 
  45:src/../h/Riscv.hpp ****     enum BitMaskSip
  46:src/../h/Riscv.hpp ****     {
  47:src/../h/Riscv.hpp ****         SIP_SSIP = (1 << 1),
  48:src/../h/Riscv.hpp ****         SIP_STIP = (1 << 5),
  49:src/../h/Riscv.hpp ****         SIP_SEIP = (1 << 9),
  50:src/../h/Riscv.hpp ****     };
  51:src/../h/Riscv.hpp **** 
  52:src/../h/Riscv.hpp ****     // mask set register sip
  53:src/../h/Riscv.hpp ****     static void ms_sip(uint64 mask);
  54:src/../h/Riscv.hpp **** 
  55:src/../h/Riscv.hpp ****     // mask clear register sip
  56:src/../h/Riscv.hpp ****     static void mc_sip(uint64 mask);
  57:src/../h/Riscv.hpp **** 
  58:src/../h/Riscv.hpp ****     // read register sip
  59:src/../h/Riscv.hpp ****     static uint64 r_sip();
  60:src/../h/Riscv.hpp **** 
  61:src/../h/Riscv.hpp ****     // write register sip
  62:src/../h/Riscv.hpp ****     static void w_sip(uint64 sip);
  63:src/../h/Riscv.hpp **** 
  64:src/../h/Riscv.hpp ****     enum BitMaskSstatus
  65:src/../h/Riscv.hpp ****     {
  66:src/../h/Riscv.hpp ****         SSTATUS_SIE = (1 << 1),
  67:src/../h/Riscv.hpp ****         SSTATUS_SPIE = (1 << 5),
GAS LISTING /tmp/ccpWTA4I.s 			page 3


  68:src/../h/Riscv.hpp ****         SSTATUS_SPP = (1 << 8),
  69:src/../h/Riscv.hpp ****     };
  70:src/../h/Riscv.hpp **** 
  71:src/../h/Riscv.hpp ****     // mask set register sstatus
  72:src/../h/Riscv.hpp ****     static void ms_sstatus(uint64 mask);
  73:src/../h/Riscv.hpp **** 
  74:src/../h/Riscv.hpp ****     // mask clear register sstatus
  75:src/../h/Riscv.hpp ****     static void mc_sstatus(uint64 mask);
  76:src/../h/Riscv.hpp **** 
  77:src/../h/Riscv.hpp ****     // read register sstatus
  78:src/../h/Riscv.hpp ****     static uint64 r_sstatus();
  79:src/../h/Riscv.hpp **** 
  80:src/../h/Riscv.hpp ****     // write register sstatus
  81:src/../h/Riscv.hpp ****     static void w_sstatus(uint64 sstatus);
  82:src/../h/Riscv.hpp **** 
  83:src/../h/Riscv.hpp ****     // supervisor trap
  84:src/../h/Riscv.hpp ****     static void supervisorTrap();
  85:src/../h/Riscv.hpp **** 
  86:src/../h/Riscv.hpp ****     static void TrapConsole();
  87:src/../h/Riscv.hpp **** 
  88:src/../h/Riscv.hpp ****     static void initKernel();
  89:src/../h/Riscv.hpp **** 
  90:src/../h/Riscv.hpp **** private:
  91:src/../h/Riscv.hpp **** 
  92:src/../h/Riscv.hpp ****     // supervisor trap handler
  93:src/../h/Riscv.hpp ****     static void handleSupervisorTrap();
  94:src/../h/Riscv.hpp **** 
  95:src/../h/Riscv.hpp ****     static void handleTrapConsole();
  96:src/../h/Riscv.hpp **** 
  97:src/../h/Riscv.hpp **** //    static void syscallHandler();
  98:src/../h/Riscv.hpp **** 
  99:src/../h/Riscv.hpp **** };
 100:src/../h/Riscv.hpp **** 
 101:src/../h/Riscv.hpp **** inline uint64 Riscv::r_scause()
 102:src/../h/Riscv.hpp **** {
 103:src/../h/Riscv.hpp ****     uint64 volatile scause;
 104:src/../h/Riscv.hpp ****     __asm__ volatile ("csrr %[scause], scause" : [scause] "=r"(scause));
 105:src/../h/Riscv.hpp ****     return scause;
 106:src/../h/Riscv.hpp **** }
 107:src/../h/Riscv.hpp **** 
 108:src/../h/Riscv.hpp **** inline void Riscv::w_scause(uint64 scause)
 109:src/../h/Riscv.hpp **** {
 110:src/../h/Riscv.hpp ****     __asm__ volatile ("csrw scause, %[scause]" : : [scause] "r"(scause));
 111:src/../h/Riscv.hpp **** }
 112:src/../h/Riscv.hpp **** 
 113:src/../h/Riscv.hpp **** inline uint64 Riscv::r_sepc()
 114:src/../h/Riscv.hpp **** {
 115:src/../h/Riscv.hpp ****     uint64 volatile sepc;
 116:src/../h/Riscv.hpp ****     __asm__ volatile ("csrr %[sepc], sepc" : [sepc] "=r"(sepc));
 117:src/../h/Riscv.hpp ****     return sepc;
 118:src/../h/Riscv.hpp **** }
 119:src/../h/Riscv.hpp **** 
 120:src/../h/Riscv.hpp **** inline void Riscv::w_sepc(uint64 sepc)
 121:src/../h/Riscv.hpp **** {
 122:src/../h/Riscv.hpp ****     __asm__ volatile ("csrw sepc, %[sepc]" : : [sepc] "r"(sepc));
 123:src/../h/Riscv.hpp **** }
 124:src/../h/Riscv.hpp **** 
GAS LISTING /tmp/ccpWTA4I.s 			page 4


 125:src/../h/Riscv.hpp **** inline uint64 Riscv::r_stvec()
 126:src/../h/Riscv.hpp **** {
 127:src/../h/Riscv.hpp ****     uint64 volatile stvec;
 128:src/../h/Riscv.hpp ****     __asm__ volatile ("csrr %[stvec], stvec" : [stvec] "=r"(stvec));
 129:src/../h/Riscv.hpp ****     return stvec;
 130:src/../h/Riscv.hpp **** }
 131:src/../h/Riscv.hpp **** 
 132:src/../h/Riscv.hpp **** inline void Riscv::w_stvec(uint64 stvec)
 133:src/../h/Riscv.hpp **** {
 134:src/../h/Riscv.hpp ****     __asm__ volatile ("csrw stvec, %[stvec]" : : [stvec] "r"(stvec));
 135:src/../h/Riscv.hpp **** }
 136:src/../h/Riscv.hpp **** 
 137:src/../h/Riscv.hpp **** inline uint64 Riscv::r_stval()
 138:src/../h/Riscv.hpp **** {
 139:src/../h/Riscv.hpp ****     uint64 volatile stval;
 140:src/../h/Riscv.hpp ****     __asm__ volatile ("csrr %[stval], stval" : [stval] "=r"(stval));
 141:src/../h/Riscv.hpp ****     return stval;
 142:src/../h/Riscv.hpp **** }
 143:src/../h/Riscv.hpp **** 
 144:src/../h/Riscv.hpp **** inline void Riscv::w_stval(uint64 stval)
 145:src/../h/Riscv.hpp **** {
 146:src/../h/Riscv.hpp ****     __asm__ volatile ("csrw stval, %[stval]" : : [stval] "r"(stval));
 147:src/../h/Riscv.hpp **** }
 148:src/../h/Riscv.hpp **** 
 149:src/../h/Riscv.hpp **** inline void Riscv::ms_sip(uint64 mask)
 150:src/../h/Riscv.hpp **** {
 151:src/../h/Riscv.hpp ****     __asm__ volatile ("csrs sip, %[mask]" : : [mask] "r"(mask));
 152:src/../h/Riscv.hpp **** }
 153:src/../h/Riscv.hpp **** 
 154:src/../h/Riscv.hpp **** inline void Riscv::mc_sip(uint64 mask)
 155:src/../h/Riscv.hpp **** {
 156:src/../h/Riscv.hpp ****     __asm__ volatile ("csrc sip, %[mask]" : : [mask] "r"(mask));
 157:src/../h/Riscv.hpp **** }
 158:src/../h/Riscv.hpp **** 
 159:src/../h/Riscv.hpp **** inline uint64 Riscv::r_sip()
 160:src/../h/Riscv.hpp **** {
 161:src/../h/Riscv.hpp ****     uint64 volatile sip;
 162:src/../h/Riscv.hpp ****     __asm__ volatile ("csrr %[sip], sip" : [sip] "=r"(sip));
 163:src/../h/Riscv.hpp ****     return sip;
 164:src/../h/Riscv.hpp **** }
 165:src/../h/Riscv.hpp **** 
 166:src/../h/Riscv.hpp **** inline void Riscv::w_sip(uint64 sip)
 167:src/../h/Riscv.hpp **** {
 168:src/../h/Riscv.hpp ****     __asm__ volatile ("csrw sip, %[sip]" : : [sip] "r"(sip));
 169:src/../h/Riscv.hpp **** }
 170:src/../h/Riscv.hpp **** 
 171:src/../h/Riscv.hpp **** //mask set
 172:src/../h/Riscv.hpp **** inline void Riscv::ms_sstatus(uint64 mask)
 173:src/../h/Riscv.hpp **** {
 174:src/../h/Riscv.hpp ****     __asm__ volatile ("csrs sstatus, %[mask]" : : [mask] "r"(mask));
 175:src/../h/Riscv.hpp **** }
 176:src/../h/Riscv.hpp **** 
 177:src/../h/Riscv.hpp **** //mask clear
 178:src/../h/Riscv.hpp **** inline void Riscv::mc_sstatus(uint64 mask)
 179:src/../h/Riscv.hpp **** {
 180:src/../h/Riscv.hpp ****     __asm__ volatile ("csrc sstatus, %[mask]" : : [mask] "r"(mask));
  32              		.loc 2 180 5
GAS LISTING /tmp/ccpWTA4I.s 			page 5


  33              		.loc 2 180 68 is_stmt 0
  34 0010 93070010 		li	a5,256
  35              	#APP
  36              	# 180 "src/../h/Riscv.hpp" 1
 181              	}
  37              		csrc sstatus, a5
  38              	# 0 "" 2
  39              	.LVL1:
  40              	#NO_APP
  41              	.LBE171:
  42              	.LBE170:
  18:src/Riscv.cpp ****     __asm__ volatile ("sret");  //exit privileged regime
  43              		.loc 1 18 5 is_stmt 1
  44              		.loc 1 18 30 is_stmt 0
  45              	#APP
  46              	# 18 "src/Riscv.cpp" 1
  19              	}
  47              		sret
  48              	# 0 "" 2
  49              		.loc 1 19 1
  50              	#NO_APP
  51 001c 03348100 		ld	s0,8(sp)
  52              		.cfi_restore 8
  53              		.cfi_def_cfa 2, 16
  54 0020 13010101 		addi	sp,sp,16
  55              		.cfi_def_cfa_offset 0
  56 0024 67800000 		jr	ra
  57              		.cfi_endproc
  58              	.LFE52:
  60              		.align	2
  61              		.globl	_ZN5Riscv20handleSupervisorTrapEv
  63              	_ZN5Riscv20handleSupervisorTrapEv:
  64              	.LFB53:
  20:src/Riscv.cpp **** 
  21:src/Riscv.cpp **** bool Riscv::privilege=false;
  22:src/Riscv.cpp **** bool Riscv::entered=false;
  23:src/Riscv.cpp **** 
  24:src/Riscv.cpp **** void Riscv::handleSupervisorTrap(){
  65              		.loc 1 24 35 is_stmt 1
  66              		.cfi_startproc
  67 0028 130101EF 		addi	sp,sp,-272
  68              		.cfi_def_cfa_offset 272
  69 002c 23341110 		sd	ra,264(sp)
  70 0030 23308110 		sd	s0,256(sp)
  71 0034 233C910E 		sd	s1,248(sp)
  72 0038 2338210F 		sd	s2,240(sp)
  73 003c 2334310F 		sd	s3,232(sp)
  74 0040 2330410F 		sd	s4,224(sp)
  75 0044 233C510D 		sd	s5,216(sp)
  76 0048 2338610D 		sd	s6,208(sp)
  77              		.cfi_offset 1, -8
  78              		.cfi_offset 8, -16
  79              		.cfi_offset 9, -24
  80              		.cfi_offset 18, -32
  81              		.cfi_offset 19, -40
  82              		.cfi_offset 20, -48
  83              		.cfi_offset 21, -56
GAS LISTING /tmp/ccpWTA4I.s 			page 6


  84              		.cfi_offset 22, -64
  85 004c 13040111 		addi	s0,sp,272
  86              		.cfi_def_cfa 8, 0
  25:src/Riscv.cpp ****     uint64 scause = r_scause();
  87              		.loc 1 25 5
  88              	.LBB172:
  89              	.LBB173:
 103:src/../h/Riscv.hpp ****     __asm__ volatile ("csrr %[scause], scause" : [scause] "=r"(scause));
  90              		.loc 2 103 5
 104:src/../h/Riscv.hpp ****     return scause;
  91              		.loc 2 104 5
 104:src/../h/Riscv.hpp ****     return scause;
  92              		.loc 2 104 72 is_stmt 0
  93              	#APP
  94              	# 104 "src/../h/Riscv.hpp" 1
  95              		csrr a5, scause
  96              	# 0 "" 2
  97              	#NO_APP
  98 0054 2338F4EE 		sd	a5,-272(s0)
 105:src/../h/Riscv.hpp **** }
  99              		.loc 2 105 5 is_stmt 1
 105:src/../h/Riscv.hpp **** }
 100              		.loc 2 105 12 is_stmt 0
 101 0058 033704EF 		ld	a4,-272(s0)
 102              	.LVL2:
 103              	.LBE173:
 104              	.LBE172:
  26:src/Riscv.cpp ****     uint64 a0reg;
 105              		.loc 1 26 5 is_stmt 1
  27:src/Riscv.cpp ****     uint64 arg1;
 106              		.loc 1 27 5
  28:src/Riscv.cpp ****     __asm__ volatile("mv %0, a0" : "=r" (a0reg));
 107              		.loc 1 28 5
 108              		.loc 1 28 49 is_stmt 0
 109              	#APP
 110              	# 28 "src/Riscv.cpp" 1
  29              	
 111              		mv s1, a0
 112              	# 0 "" 2
 113              	.LVL3:
  30:src/Riscv.cpp **** 
  31:src/Riscv.cpp ****     if(scause == 0x8000000000000001){
 114              		.loc 1 31 5 is_stmt 1
 115              	#NO_APP
 116              	.LBB174:
 117 0060 9307F0FF 		li	a5,-1
 118 0064 9397F703 		slli	a5,a5,63
 119 0068 93871700 		addi	a5,a5,1
 120 006c 6302F704 		beq	a4,a5,.L28
 121              	.LBE174:
  32:src/Riscv.cpp ****         mc_sip(SIP_SSIP);
  33:src/Riscv.cpp ****     }
  34:src/Riscv.cpp ****     else if(!privilege){
 122              		.loc 1 34 10
 123              	.LBB437:
 124              	.LBB175:
 125              		.loc 1 34 13 is_stmt 0
GAS LISTING /tmp/ccpWTA4I.s 			page 7


 126 0070 97070000 		lbu	a5,.LANCHOR0
 126      83C70700 
 127              		.loc 1 34 10
 128 0078 63940706 		bnez	a5,.L6
 129              	.LBB176:
  35:src/Riscv.cpp ****         uint64 sepc = r_sepc();
 130              		.loc 1 35 9 is_stmt 1
 131              	.LBB177:
 132              	.LBB178:
 115:src/../h/Riscv.hpp ****     __asm__ volatile ("csrr %[sepc], sepc" : [sepc] "=r"(sepc));
 133              		.loc 2 115 5
 116:src/../h/Riscv.hpp ****     return sepc;
 134              		.loc 2 116 5
 116:src/../h/Riscv.hpp ****     return sepc;
 135              		.loc 2 116 64 is_stmt 0
 136              	#APP
 137              	# 116 "src/../h/Riscv.hpp" 1
 138              		csrr a5, sepc
 139              	# 0 "" 2
 140              	#NO_APP
 141 0080 233CF4EE 		sd	a5,-264(s0)
 117:src/../h/Riscv.hpp **** }
 142              		.loc 2 117 5 is_stmt 1
 117:src/../h/Riscv.hpp **** }
 143              		.loc 2 117 12 is_stmt 0
 144 0084 833784EF 		ld	a5,-264(s0)
 145              	.LVL4:
 146              	.LBE178:
 147              	.LBE177:
  36:src/Riscv.cpp ****         mc_sstatus(SSTATUS_SPP);
 148              		.loc 1 36 9 is_stmt 1
 149              	.LBB179:
 150              	.LBB180:
 180:src/../h/Riscv.hpp **** }
 151              		.loc 2 180 5
 180:src/../h/Riscv.hpp **** }
 152              		.loc 2 180 68 is_stmt 0
 153 0088 13070010 		li	a4,256
 154              	.LVL5:
 155              	#APP
 156              	# 180 "src/../h/Riscv.hpp" 1
 157              		csrc sstatus, a4
 158              	# 0 "" 2
 159              	.LVL6:
 160              	#NO_APP
 161              	.LBE180:
 162              	.LBE179:
  37:src/Riscv.cpp ****         privilege=true;
 163              		.loc 1 37 9 is_stmt 1
 164              		.loc 1 37 18 is_stmt 0
 165 0090 17070000 		lla	a4,.LANCHOR0
 165      13070700 
 166 0098 93061000 		li	a3,1
 167 009c 2300D700 		sb	a3,0(a4)
  38:src/Riscv.cpp ****         entered=true;
 168              		.loc 1 38 9 is_stmt 1
 169              		.loc 1 38 16 is_stmt 0
GAS LISTING /tmp/ccpWTA4I.s 			page 8


 170 00a0 A300D700 		sb	a3,1(a4)
  39:src/Riscv.cpp ****         w_sepc(sepc + 4);
 171              		.loc 1 39 9 is_stmt 1
 172              		.loc 1 39 15 is_stmt 0
 173 00a4 93874700 		addi	a5,a5,4
 174              	.LVL7:
 175              	.LBB181:
 176              	.LBB182:
 122:src/../h/Riscv.hpp **** }
 177              		.loc 2 122 5 is_stmt 1
 122:src/../h/Riscv.hpp **** }
 178              		.loc 2 122 65 is_stmt 0
 179              	#APP
 180              	# 122 "src/../h/Riscv.hpp" 1
 123:src/../h/Riscv.hpp **** 
 181              		csrw sepc, a5
 182              	# 0 "" 2
 183              		.loc 2 123 1
 184              	#NO_APP
 185 00ac 6F00C000 		j	.L3
 186              	.LVL8:
 187              	.L28:
 188              	.LBE182:
 189              	.LBE181:
 190              	.LBE176:
 191              	.LBE175:
  32:src/Riscv.cpp ****     }
 192              		.loc 1 32 9 is_stmt 1
 193              	.LBB420:
 194              	.LBB421:
 156:src/../h/Riscv.hpp **** }
 195              		.loc 2 156 5
 156:src/../h/Riscv.hpp **** }
 196              		.loc 2 156 64 is_stmt 0
 197 00b0 93072000 		li	a5,2
 198              	#APP
 199              	# 156 "src/../h/Riscv.hpp" 1
 200              		csrc sip, a5
 201              	# 0 "" 2
 202              	.LVL9:
 203              	#NO_APP
 204              	.L3:
 205              	.LBE421:
 206              	.LBE420:
 207              	.LBE437:
  40:src/Riscv.cpp ****     }
  41:src/Riscv.cpp ****     else if (scause == 0x8000000000000009UL){
  42:src/Riscv.cpp ****         console_handler();
  43:src/Riscv.cpp ****     }
  44:src/Riscv.cpp ****     else if (scause == 0x0000000000000008UL || scause==0x0000000000000009UL){
  45:src/Riscv.cpp ****         // interrupt: no; cause code: environment call from U-mode(8) or S-mode(9)
  46:src/Riscv.cpp **** 
  47:src/Riscv.cpp **** 
  48:src/Riscv.cpp ****         if(a0reg==0x11){
  49:src/Riscv.cpp ****             uint64 sepc = r_sepc() + 4;
  50:src/Riscv.cpp ****             uint64 sstatus = r_sstatus();
  51:src/Riscv.cpp **** 
GAS LISTING /tmp/ccpWTA4I.s 			page 9


  52:src/Riscv.cpp **** 
  53:src/Riscv.cpp ****             _thread::thread_t *arg1;
  54:src/Riscv.cpp ****             _thread::Body arg2;
  55:src/Riscv.cpp ****             uint64 arg3;
  56:src/Riscv.cpp **** 
  57:src/Riscv.cpp **** 
  58:src/Riscv.cpp ****             __asm__ volatile("ld a1, 11*8(fp)"); //a1
  59:src/Riscv.cpp ****             __asm__ volatile("ld a2, 12*8(fp)"); //a2
  60:src/Riscv.cpp ****             __asm__ volatile("ld a3, 13*8(fp)"); //a3
  61:src/Riscv.cpp **** 
  62:src/Riscv.cpp **** 
  63:src/Riscv.cpp ****             __asm__ volatile("mv %0, a1" : "=r" (arg1));    //handle (thread_t*)
  64:src/Riscv.cpp ****             __asm__ volatile("mv %0, a2" : "=r" (arg2));    //start routine
  65:src/Riscv.cpp ****             __asm__ volatile("mv %0, a3" : "=r" (arg3));    //argument of start routine
  66:src/Riscv.cpp **** 
  67:src/Riscv.cpp ****             uint64* stack =(uint64*) MemoryAllocator::kmem_alloc(DEFAULT_STACK_SIZE* sizeof(uint64)
  68:src/Riscv.cpp **** 
  69:src/Riscv.cpp ****             //make new thread object using overloaded new operator for that function
  70:src/Riscv.cpp ****             _thread* t = _thread::createThread(arg2,  (void*)arg3, stack);    //t je thread_t
  71:src/Riscv.cpp ****             *arg1=t;
  72:src/Riscv.cpp **** 
  73:src/Riscv.cpp ****             uint64 ret;
  74:src/Riscv.cpp ****             if(t!= nullptr)ret=0;
  75:src/Riscv.cpp ****             else ret =-1;
  76:src/Riscv.cpp **** 
  77:src/Riscv.cpp ****             //return _thread* adress through a0
  78:src/Riscv.cpp ****             __asm__ volatile("mv a0, %0" : : "r" (ret));
  79:src/Riscv.cpp **** 
  80:src/Riscv.cpp ****             w_sstatus(sstatus);
  81:src/Riscv.cpp ****             w_sepc(sepc);
  82:src/Riscv.cpp ****         }
  83:src/Riscv.cpp ****         if(a0reg== 0x01 ){
  84:src/Riscv.cpp ****             uint64 sepc = r_sepc() + 4;
  85:src/Riscv.cpp ****             uint64 sstatus = r_sstatus();
  86:src/Riscv.cpp ****             //kmem_alloc
  87:src/Riscv.cpp ****             __asm__ volatile("ld a0, 11*8(fp)"); //a1
  88:src/Riscv.cpp **** 
  89:src/Riscv.cpp ****             __asm__ volatile("mv %0, a0" : "=r" (arg1));
  90:src/Riscv.cpp ****             uint64 ptr= (uint64) MemoryAllocator::kmem_alloc(arg1*MEM_BLOCK_SIZE);
  91:src/Riscv.cpp **** 
  92:src/Riscv.cpp ****             //write return value to a0 register
  93:src/Riscv.cpp ****             __asm__ volatile("mv a0, %0" : : "r" (ptr));
  94:src/Riscv.cpp **** 
  95:src/Riscv.cpp ****             w_sstatus(sstatus);
  96:src/Riscv.cpp ****             w_sepc(sepc);
  97:src/Riscv.cpp ****         }
  98:src/Riscv.cpp ****         else if(a0reg==0x02){
  99:src/Riscv.cpp ****             uint64 sepc = r_sepc() + 4;
 100:src/Riscv.cpp ****             uint64 sstatus = r_sstatus();
 101:src/Riscv.cpp **** 
 102:src/Riscv.cpp ****             __asm__ volatile("ld a0, 11*8(fp)"); //a1
 103:src/Riscv.cpp **** 
 104:src/Riscv.cpp ****             __asm__ volatile("mv %0, a0" : "=r" (arg1));
 105:src/Riscv.cpp ****             int ret = MemoryAllocator::kmem_free((void *) arg1);
 106:src/Riscv.cpp ****             __asm__ volatile("mv a0, %0" : : "r" (ret));
 107:src/Riscv.cpp **** 
 108:src/Riscv.cpp ****             w_sstatus(sstatus);
GAS LISTING /tmp/ccpWTA4I.s 			page 10


 109:src/Riscv.cpp ****             w_sepc(sepc);
 110:src/Riscv.cpp ****         }
 111:src/Riscv.cpp **** 
 112:src/Riscv.cpp ****         else if(a0reg==0x12){
 113:src/Riscv.cpp ****             uint64 sepc = r_sepc() + 4;
 114:src/Riscv.cpp ****             uint64 sstatus = r_sstatus();
 115:src/Riscv.cpp **** 
 116:src/Riscv.cpp ****             _thread::running->finished=true;
 117:src/Riscv.cpp ****             _thread::dispatch();
 118:src/Riscv.cpp **** 
 119:src/Riscv.cpp ****             w_sstatus(sstatus);
 120:src/Riscv.cpp ****             w_sepc(sepc);
 121:src/Riscv.cpp **** 
 122:src/Riscv.cpp **** 
 123:src/Riscv.cpp ****         }
 124:src/Riscv.cpp ****         else if(a0reg == 0x13){
 125:src/Riscv.cpp ****             //thread dispatch
 126:src/Riscv.cpp ****             uint64 sepc = r_sepc() + 4;
 127:src/Riscv.cpp ****             uint64 sstatus = r_sstatus();
 128:src/Riscv.cpp **** 
 129:src/Riscv.cpp **** 
 130:src/Riscv.cpp ****             _thread::dispatch();
 131:src/Riscv.cpp **** 
 132:src/Riscv.cpp ****             w_sstatus(sstatus);
 133:src/Riscv.cpp ****             w_sepc(sepc);
 134:src/Riscv.cpp ****         }
 135:src/Riscv.cpp **** 
 136:src/Riscv.cpp ****         else if(a0reg==0x04){
 137:src/Riscv.cpp ****             //call from yield
 138:src/Riscv.cpp ****             uint64 sepc = r_sepc() + 4;
 139:src/Riscv.cpp ****             uint64 sstatus = r_sstatus();
 140:src/Riscv.cpp **** 
 141:src/Riscv.cpp ****             _thread::timeSliceCounter = 0;
 142:src/Riscv.cpp ****             _thread::dispatch();
 143:src/Riscv.cpp **** 
 144:src/Riscv.cpp ****             w_sstatus(sstatus);
 145:src/Riscv.cpp ****             w_sepc(sepc);
 146:src/Riscv.cpp ****         }
 147:src/Riscv.cpp ****         else if(a0reg==0x21){
 148:src/Riscv.cpp ****             uint64 sepc = r_sepc() + 4;
 149:src/Riscv.cpp ****             uint64 sstatus = r_sstatus();
 150:src/Riscv.cpp **** 
 151:src/Riscv.cpp ****            KSemaphore::sem_t *arg1;
 152:src/Riscv.cpp ****            uint64 arg2;
 153:src/Riscv.cpp **** 
 154:src/Riscv.cpp ****             __asm__ volatile("ld a1, 11*8(fp)"); //a1
 155:src/Riscv.cpp ****             __asm__ volatile("ld a2, 12*8(fp)"); //a2
 156:src/Riscv.cpp **** 
 157:src/Riscv.cpp ****             __asm__ volatile("mv %0, a1" : "=r" (arg1));    //handle (sem_t*)
 158:src/Riscv.cpp ****             __asm__ volatile("mv %0, a2" : "=r" (arg2));    //init val
 159:src/Riscv.cpp **** 
 160:src/Riscv.cpp ****             KSemaphore* sem = new KSemaphore(arg2);
 161:src/Riscv.cpp ****             sem->opened=true;
 162:src/Riscv.cpp ****             *arg1=sem;
 163:src/Riscv.cpp **** 
 164:src/Riscv.cpp ****             uint64 ret=0;
 165:src/Riscv.cpp ****             if(sem!= nullptr)ret=0;
GAS LISTING /tmp/ccpWTA4I.s 			page 11


 166:src/Riscv.cpp ****             else ret=-1;
 167:src/Riscv.cpp **** 
 168:src/Riscv.cpp ****             __asm__ volatile("mv a0, %0" : : "r" (ret));
 169:src/Riscv.cpp **** 
 170:src/Riscv.cpp ****             w_sstatus(sstatus);
 171:src/Riscv.cpp ****             w_sepc(sepc);
 172:src/Riscv.cpp ****         }
 173:src/Riscv.cpp ****         else if(a0reg==0x22){
 174:src/Riscv.cpp ****             uint64 sepc = r_sepc() + 4;
 175:src/Riscv.cpp ****             uint64 sstatus = r_sstatus();
 176:src/Riscv.cpp **** 
 177:src/Riscv.cpp ****             KSemaphore::sem_t arg1; //handle
 178:src/Riscv.cpp **** 
 179:src/Riscv.cpp **** 
 180:src/Riscv.cpp ****             __asm__ volatile("ld a1, 11*8(fp)"); //a1
 181:src/Riscv.cpp **** 
 182:src/Riscv.cpp ****             __asm__ volatile("mv %0, a1" : "=r" (arg1));    //handle (sem_t*)
 183:src/Riscv.cpp **** 
 184:src/Riscv.cpp ****             KSemaphore* sem = arg1;
 185:src/Riscv.cpp ****             //deblock all blocked threads on this semaphore
 186:src/Riscv.cpp ****             while(sem->blocked.peekFirst()!=0){
 187:src/Riscv.cpp ****                 _thread* t = sem->blocked.removeFirst();
 188:src/Riscv.cpp ****                 t->setDeblocked();
 189:src/Riscv.cpp ****                 sem->val++;
 190:src/Riscv.cpp ****                 Scheduler::put(t);
 191:src/Riscv.cpp ****             }
 192:src/Riscv.cpp ****              sem->opened=false;
 193:src/Riscv.cpp **** 
 194:src/Riscv.cpp ****             delete sem;
 195:src/Riscv.cpp **** 
 196:src/Riscv.cpp ****             w_sstatus(sstatus);
 197:src/Riscv.cpp ****             w_sepc(sepc);
 198:src/Riscv.cpp ****         }
 199:src/Riscv.cpp ****         else if(a0reg==0x23){
 200:src/Riscv.cpp ****             uint64 sepc = r_sepc() + 4;
 201:src/Riscv.cpp ****             uint64 sstatus = r_sstatus();
 202:src/Riscv.cpp **** 
 203:src/Riscv.cpp ****             KSemaphore::sem_t arg1; //handle
 204:src/Riscv.cpp **** 
 205:src/Riscv.cpp ****             __asm__ volatile("ld a1, 11*8(fp)"); //a1
 206:src/Riscv.cpp **** 
 207:src/Riscv.cpp ****             __asm__ volatile("mv %0, a1" : "=r" (arg1));    //handle (sem_t*)
 208:src/Riscv.cpp **** 
 209:src/Riscv.cpp ****             uint64 ret;
 210:src/Riscv.cpp **** //            KSemaphore* sem = *arg1;
 211:src/Riscv.cpp **** 
 212:src/Riscv.cpp ****                  ret = arg1->wait();
 213:src/Riscv.cpp **** 
 214:src/Riscv.cpp ****             __asm__ volatile("mv a0, %0" : : "r" (ret));
 215:src/Riscv.cpp **** 
 216:src/Riscv.cpp ****             w_sstatus(sstatus);
 217:src/Riscv.cpp ****             w_sepc(sepc);
 218:src/Riscv.cpp ****         }
 219:src/Riscv.cpp ****         else if(a0reg==0x24){
 220:src/Riscv.cpp ****             uint64 sepc = r_sepc() + 4;
 221:src/Riscv.cpp ****             uint64 sstatus = r_sstatus();
 222:src/Riscv.cpp **** 
GAS LISTING /tmp/ccpWTA4I.s 			page 12


 223:src/Riscv.cpp ****             KSemaphore::sem_t arg1; //handle
 224:src/Riscv.cpp **** 
 225:src/Riscv.cpp ****             __asm__ volatile("ld a1, 11*8(fp)"); //a1
 226:src/Riscv.cpp **** 
 227:src/Riscv.cpp ****             __asm__ volatile("mv %0, a1" : "=r" (arg1));    //handle (sem_t*)
 228:src/Riscv.cpp **** 
 229:src/Riscv.cpp ****             uint64 ret;
 230:src/Riscv.cpp **** 
 231:src/Riscv.cpp ****                 arg1->signal();
 232:src/Riscv.cpp ****                 ret=0;
 233:src/Riscv.cpp **** 
 234:src/Riscv.cpp **** 
 235:src/Riscv.cpp ****             __asm__ volatile("mv a0, %0" : : "r" (ret));
 236:src/Riscv.cpp **** 
 237:src/Riscv.cpp ****             w_sstatus(sstatus);
 238:src/Riscv.cpp ****             w_sepc(sepc);
 239:src/Riscv.cpp ****         }
 240:src/Riscv.cpp ****         else if(a0reg==0x41){
 241:src/Riscv.cpp ****             uint64 sepc = r_sepc() + 4;
 242:src/Riscv.cpp ****             uint64 sstatus = r_sstatus();
 243:src/Riscv.cpp **** 
 244:src/Riscv.cpp ****             //call method from kernel Console class
 245:src/Riscv.cpp ****             Riscv::w_stvec((uint64)&Riscv::TrapConsole);
 246:src/Riscv.cpp ****             char c = __getc();
 247:src/Riscv.cpp ****             Riscv::w_stvec((uint64)&Riscv::supervisorTrap);
 248:src/Riscv.cpp **** 
 249:src/Riscv.cpp ****             __asm__ volatile("mv a0, %0" : : "r" (c));
 250:src/Riscv.cpp **** 
 251:src/Riscv.cpp **** 
 252:src/Riscv.cpp ****             w_sstatus(sstatus);
 253:src/Riscv.cpp ****             w_sepc(sepc);
 254:src/Riscv.cpp ****         }
 255:src/Riscv.cpp ****         else if(a0reg==0x42){
 256:src/Riscv.cpp ****             uint64 sepc = r_sepc() + 4;
 257:src/Riscv.cpp ****             uint64 sstatus = r_sstatus();
 258:src/Riscv.cpp **** 
 259:src/Riscv.cpp ****             char c;
 260:src/Riscv.cpp ****             __asm__ volatile("ld a1, 11*8(fp)"); //a1
 261:src/Riscv.cpp **** 
 262:src/Riscv.cpp ****             __asm__ volatile("mv %0, a1" : "=r" (c));
 263:src/Riscv.cpp **** 
 264:src/Riscv.cpp ****             Riscv::w_stvec((uint64)&Riscv::TrapConsole);
 265:src/Riscv.cpp ****             __putc(c);
 266:src/Riscv.cpp ****             Riscv::w_stvec((uint64)&Riscv::supervisorTrap);
 267:src/Riscv.cpp **** 
 268:src/Riscv.cpp ****             w_sstatus(sstatus);
 269:src/Riscv.cpp ****             w_sepc(sepc);
 270:src/Riscv.cpp ****         }
 271:src/Riscv.cpp ****         else{
 272:src/Riscv.cpp ****             // unexpected trap cause
 273:src/Riscv.cpp ****         }
 274:src/Riscv.cpp **** 
 275:src/Riscv.cpp ****     }
 276:src/Riscv.cpp **** 
 277:src/Riscv.cpp **** }
 208              		.loc 1 277 1
 209 00b8 83308110 		ld	ra,264(sp)
GAS LISTING /tmp/ccpWTA4I.s 			page 13


 210              		.cfi_remember_state
 211              		.cfi_restore 1
 212 00bc 03340110 		ld	s0,256(sp)
 213              		.cfi_restore 8
 214              		.cfi_def_cfa 2, 272
 215 00c0 8334810F 		ld	s1,248(sp)
 216              		.cfi_restore 9
 217 00c4 0339010F 		ld	s2,240(sp)
 218              		.cfi_restore 18
 219 00c8 8339810E 		ld	s3,232(sp)
 220              		.cfi_restore 19
 221 00cc 033A010E 		ld	s4,224(sp)
 222              		.cfi_restore 20
 223 00d0 833A810D 		ld	s5,216(sp)
 224              		.cfi_restore 21
 225 00d4 033B010D 		ld	s6,208(sp)
 226              		.cfi_restore 22
 227 00d8 13010111 		addi	sp,sp,272
 228              		.cfi_def_cfa_offset 0
 229 00dc 67800000 		jr	ra
 230              	.LVL10:
 231              	.L6:
 232              		.cfi_restore_state
  41:src/Riscv.cpp ****         console_handler();
 233              		.loc 1 41 10 is_stmt 1
 234              	.LBB438:
 235              	.LBB422:
 236              	.LBB183:
 237 00e0 9307F0FF 		li	a5,-1
 238 00e4 9397F703 		slli	a5,a5,63
 239 00e8 93879700 		addi	a5,a5,9
 240 00ec 6302F70C 		beq	a4,a5,.L29
 241              	.LBE183:
 242              	.LBE422:
 243              	.LBE438:
  44:src/Riscv.cpp ****         // interrupt: no; cause code: environment call from U-mode(8) or S-mode(9)
 244              		.loc 1 44 10
 245              	.LBB439:
 246              	.LBB423:
 247              	.LBB406:
 248              	.LBB184:
  44:src/Riscv.cpp ****         // interrupt: no; cause code: environment call from U-mode(8) or S-mode(9)
 249              		.loc 1 44 45 is_stmt 0
 250 00f0 130787FF 		addi	a4,a4,-8
 251              	.LVL11:
  44:src/Riscv.cpp ****         // interrupt: no; cause code: environment call from U-mode(8) or S-mode(9)
 252              		.loc 1 44 10
 253 00f4 93071000 		li	a5,1
 254 00f8 E3E0E7FC 		bgtu	a4,a5,.L3
 255              	.LBE184:
 256              	.LBE406:
 257              	.LBE423:
 258              	.LBE439:
  48:src/Riscv.cpp ****             uint64 sepc = r_sepc() + 4;
 259              		.loc 1 48 9 is_stmt 1
 260              	.LBB440:
 261              	.LBB424:
GAS LISTING /tmp/ccpWTA4I.s 			page 14


 262              	.LBB407:
 263              	.LBB393:
 264              	.LBB185:
 265 00fc 93071001 		li	a5,17
 266 0100 638EF40A 		beq	s1,a5,.L30
 267              	.LVL12:
 268              	.L8:
 269              	.LBE185:
 270              	.LBE393:
 271              	.LBE407:
 272              	.LBE424:
 273              	.LBE440:
  83:src/Riscv.cpp ****             uint64 sepc = r_sepc() + 4;
 274              		.loc 1 83 9
 275              	.LBB441:
 276              	.LBB425:
 277              	.LBB408:
 278              	.LBB394:
 279              	.LBB195:
 280 0104 93071000 		li	a5,1
 281 0108 6386F412 		beq	s1,a5,.L31
 282              	.LBE195:
 283              	.LBE394:
 284              	.LBE408:
 285              	.LBE425:
 286              	.LBE441:
  98:src/Riscv.cpp ****             uint64 sepc = r_sepc() + 4;
 287              		.loc 1 98 14
 288              	.LBB442:
 289              	.LBB426:
 290              	.LBB409:
 291              	.LBB395:
 292              	.LBB381:
 293              	.LBB196:
 294 010c 93072000 		li	a5,2
 295 0110 6382F416 		beq	s1,a5,.L32
 296              	.LBE196:
 297              	.LBE381:
 298              	.LBE395:
 299              	.LBE409:
 300              	.LBE426:
 301              	.LBE442:
 112:src/Riscv.cpp ****             uint64 sepc = r_sepc() + 4;
 302              		.loc 1 112 14
 303              	.LBB443:
 304              	.LBB427:
 305              	.LBB410:
 306              	.LBB396:
 307              	.LBB382:
 308              	.LBB362:
 309              	.LBB197:
 310 0114 93072001 		li	a5,18
 311 0118 638CF418 		beq	s1,a5,.L33
 312              	.LBE197:
 313              	.LBE362:
 314              	.LBE382:
 315              	.LBE396:
GAS LISTING /tmp/ccpWTA4I.s 			page 15


 316              	.LBE410:
 317              	.LBE427:
 318              	.LBE443:
 124:src/Riscv.cpp ****             //thread dispatch
 319              		.loc 1 124 14
 320              	.LBB444:
 321              	.LBB428:
 322              	.LBB411:
 323              	.LBB397:
 324              	.LBB383:
 325              	.LBB363:
 326              	.LBB344:
 327              	.LBB198:
 328 011c 93073001 		li	a5,19
 329 0120 638AF41C 		beq	s1,a5,.L34
 330              	.LBE198:
 331              	.LBE344:
 332              	.LBE363:
 333              	.LBE383:
 334              	.LBE397:
 335              	.LBE411:
 336              	.LBE428:
 337              	.LBE444:
 136:src/Riscv.cpp ****             //call from yield
 338              		.loc 1 136 14
 339              	.LBB445:
 340              	.LBB429:
 341              	.LBB412:
 342              	.LBB398:
 343              	.LBB384:
 344              	.LBB364:
 345              	.LBB345:
 346              	.LBB327:
 347              	.LBB199:
 348 0124 93074000 		li	a5,4
 349 0128 638EF41E 		beq	s1,a5,.L35
 350              	.LBE199:
 351              	.LBE327:
 352              	.LBE345:
 353              	.LBE364:
 354              	.LBE384:
 355              	.LBE398:
 356              	.LBE412:
 357              	.LBE429:
 358              	.LBE445:
 147:src/Riscv.cpp ****             uint64 sepc = r_sepc() + 4;
 359              		.loc 1 147 14
 360              	.LBB446:
 361              	.LBB430:
 362              	.LBB413:
 363              	.LBB399:
 364              	.LBB385:
 365              	.LBB365:
 366              	.LBB346:
 367              	.LBB328:
 368              	.LBB311:
 369              	.LBB200:
GAS LISTING /tmp/ccpWTA4I.s 			page 16


 370 012c 93071002 		li	a5,33
 371 0130 6388F422 		beq	s1,a5,.L36
 372              	.LBE200:
 373              	.LBE311:
 374              	.LBE328:
 375              	.LBE346:
 376              	.LBE365:
 377              	.LBE385:
 378              	.LBE399:
 379              	.LBE413:
 380              	.LBE430:
 381              	.LBE446:
 173:src/Riscv.cpp ****             uint64 sepc = r_sepc() + 4;
 382              		.loc 1 173 14
 383              	.LBB447:
 384              	.LBB431:
 385              	.LBB414:
 386              	.LBB400:
 387              	.LBB386:
 388              	.LBB366:
 389              	.LBB347:
 390              	.LBB329:
 391              	.LBB312:
 392              	.LBB296:
 393              	.LBB201:
 394 0134 93072002 		li	a5,34
 395 0138 638CF428 		beq	s1,a5,.L37
 396              	.LBE201:
 397              	.LBE296:
 398              	.LBE312:
 399              	.LBE329:
 400              	.LBE347:
 401              	.LBE366:
 402              	.LBE386:
 403              	.LBE400:
 404              	.LBE414:
 405              	.LBE431:
 406              	.LBE447:
 199:src/Riscv.cpp ****             uint64 sepc = r_sepc() + 4;
 407              		.loc 1 199 14
 408              	.LBB448:
 409              	.LBB432:
 410              	.LBB415:
 411              	.LBB401:
 412              	.LBB387:
 413              	.LBB367:
 414              	.LBB348:
 415              	.LBB330:
 416              	.LBB313:
 417              	.LBB297:
 418              	.LBB278:
 419              	.LBB202:
 420 013c 93073002 		li	a5,35
 421 0140 6384F432 		beq	s1,a5,.L38
 422              	.LBE202:
 423              	.LBE278:
 424              	.LBE297:
GAS LISTING /tmp/ccpWTA4I.s 			page 17


 425              	.LBE313:
 426              	.LBE330:
 427              	.LBE348:
 428              	.LBE367:
 429              	.LBE387:
 430              	.LBE401:
 431              	.LBE415:
 432              	.LBE432:
 433              	.LBE448:
 219:src/Riscv.cpp ****             uint64 sepc = r_sepc() + 4;
 434              		.loc 1 219 14
 435              	.LBB449:
 436              	.LBB433:
 437              	.LBB416:
 438              	.LBB402:
 439              	.LBB388:
 440              	.LBB368:
 441              	.LBB349:
 442              	.LBB331:
 443              	.LBB314:
 444              	.LBB298:
 445              	.LBB279:
 446              	.LBB255:
 447              	.LBB203:
 448 0144 93074002 		li	a5,36
 449 0148 638EF434 		beq	s1,a5,.L39
 450              	.LBE203:
 451              	.LBE255:
 452              	.LBE279:
 453              	.LBE298:
 454              	.LBE314:
 455              	.LBE331:
 456              	.LBE349:
 457              	.LBE368:
 458              	.LBE388:
 459              	.LBE402:
 460              	.LBE416:
 461              	.LBE433:
 462              	.LBE449:
 240:src/Riscv.cpp ****             uint64 sepc = r_sepc() + 4;
 463              		.loc 1 240 14
 464              	.LBB450:
 465              	.LBB434:
 466              	.LBB417:
 467              	.LBB403:
 468              	.LBB389:
 469              	.LBB369:
 470              	.LBB350:
 471              	.LBB332:
 472              	.LBB315:
 473              	.LBB299:
 474              	.LBB280:
 475              	.LBB256:
 476              	.LBB243:
 477              	.LBB204:
 478 014c 93071004 		li	a5,65
 479 0150 638AF438 		beq	s1,a5,.L40
GAS LISTING /tmp/ccpWTA4I.s 			page 18


 480              	.LBE204:
 481              	.LBE243:
 482              	.LBE256:
 483              	.LBE280:
 484              	.LBE299:
 485              	.LBE315:
 486              	.LBE332:
 487              	.LBE350:
 488              	.LBE369:
 489              	.LBE389:
 490              	.LBE403:
 491              	.LBE417:
 492              	.LBE434:
 493              	.LBE450:
 255:src/Riscv.cpp ****             uint64 sepc = r_sepc() + 4;
 494              		.loc 1 255 14
 495              	.LBB451:
 496              	.LBB435:
 497              	.LBB418:
 498              	.LBB404:
 499              	.LBB390:
 500              	.LBB370:
 501              	.LBB351:
 502              	.LBB333:
 503              	.LBB316:
 504              	.LBB300:
 505              	.LBB281:
 506              	.LBB257:
 507              	.LBB244:
 508              	.LBB232:
 509              	.LBB205:
 510 0154 93072004 		li	a5,66
 511 0158 E390F4F6 		bne	s1,a5,.L3
 512              	.LBB206:
 256:src/Riscv.cpp ****             uint64 sstatus = r_sstatus();
 513              		.loc 1 256 13
 514              	.LBB207:
 515              	.LBB208:
 115:src/../h/Riscv.hpp ****     __asm__ volatile ("csrr %[sepc], sepc" : [sepc] "=r"(sepc));
 516              		.loc 2 115 5
 116:src/../h/Riscv.hpp ****     return sepc;
 517              		.loc 2 116 5
 116:src/../h/Riscv.hpp ****     return sepc;
 518              		.loc 2 116 64 is_stmt 0
 519              	#APP
 520              	# 116 "src/../h/Riscv.hpp" 1
 521              		csrr a5, sepc
 522              	# 0 "" 2
 523              	#NO_APP
 524 0160 233CF4FA 		sd	a5,-72(s0)
 117:src/../h/Riscv.hpp **** }
 525              		.loc 2 117 5 is_stmt 1
 117:src/../h/Riscv.hpp **** }
 526              		.loc 2 117 12 is_stmt 0
 527 0164 833484FB 		ld	s1,-72(s0)
 528              	.LVL13:
 529              	.LBE208:
GAS LISTING /tmp/ccpWTA4I.s 			page 19


 530              	.LBE207:
 256:src/Riscv.cpp ****             uint64 sstatus = r_sstatus();
 531              		.loc 1 256 38
 532 0168 93844400 		addi	s1,s1,4
 533              	.LVL14:
 257:src/Riscv.cpp **** 
 534              		.loc 1 257 13 is_stmt 1
 535              	.LBB209:
 536              	.LBB210:
 182:src/../h/Riscv.hpp **** 
 183:src/../h/Riscv.hpp **** inline uint64 Riscv::r_sstatus()
 184:src/../h/Riscv.hpp **** {
 185:src/../h/Riscv.hpp ****     uint64 volatile sstatus;
 537              		.loc 2 185 5
 186:src/../h/Riscv.hpp ****     __asm__ volatile ("csrr %[sstatus], sstatus" : [sstatus] "=r"(sstatus));
 538              		.loc 2 186 5
 539              		.loc 2 186 76 is_stmt 0
 540              	#APP
 541              	# 186 "src/../h/Riscv.hpp" 1
 187              	    return sstatus;
 542              		csrr a5, sstatus
 543              	# 0 "" 2
 544              	#NO_APP
 545 0170 2338F4FA 		sd	a5,-80(s0)
 546              		.loc 2 187 5 is_stmt 1
 547              		.loc 2 187 12 is_stmt 0
 548 0174 033904FB 		ld	s2,-80(s0)
 549              	.LVL15:
 550              	.LBE210:
 551              	.LBE209:
 259:src/Riscv.cpp ****             __asm__ volatile("ld a1, 11*8(fp)"); //a1
 552              		.loc 1 259 13 is_stmt 1
 260:src/Riscv.cpp **** 
 553              		.loc 1 260 13
 260:src/Riscv.cpp **** 
 554              		.loc 1 260 48 is_stmt 0
 555              	#APP
 556              	# 260 "src/Riscv.cpp" 1
 262:src/Riscv.cpp **** 
 557              		ld a1, 11*8(fp)
 558              	# 0 "" 2
 559              		.loc 1 262 13 is_stmt 1
 262:src/Riscv.cpp **** 
 560              		.loc 1 262 53 is_stmt 0
 561              	# 262 "src/Riscv.cpp" 1
 562              		mv a0, a1
 563              	# 0 "" 2
 564              	#NO_APP
 565 0180 1375F50F 		andi	a0,a0,0xff
 566              	.LVL16:
 264:src/Riscv.cpp ****             __putc(c);
 567              		.loc 1 264 13 is_stmt 1
 264:src/Riscv.cpp ****             __putc(c);
 568              		.loc 1 264 27 is_stmt 0
 569 0184 97070000 		la	a5,_ZN5Riscv11TrapConsoleEv
 569      83B70700 
 570              	.LVL17:
GAS LISTING /tmp/ccpWTA4I.s 			page 20


 571              	.LBB211:
 572              	.LBB212:
 134:src/../h/Riscv.hpp **** }
 573              		.loc 2 134 5 is_stmt 1
 134:src/../h/Riscv.hpp **** }
 574              		.loc 2 134 69 is_stmt 0
 575              	#APP
 576              	# 134 "src/../h/Riscv.hpp" 1
 577              		csrw stvec, a5
 578              	# 0 "" 2
 579              	.LVL18:
 580              	#NO_APP
 581              	.LBE212:
 582              	.LBE211:
 265:src/Riscv.cpp ****             Riscv::w_stvec((uint64)&Riscv::supervisorTrap);
 583              		.loc 1 265 13 is_stmt 1
 265:src/Riscv.cpp ****             Riscv::w_stvec((uint64)&Riscv::supervisorTrap);
 584              		.loc 1 265 19 is_stmt 0
 585 0190 97000000 		call	__putc@plt
 585      E7800000 
 586              	.LVL19:
 266:src/Riscv.cpp **** 
 587              		.loc 1 266 13 is_stmt 1
 266:src/Riscv.cpp **** 
 588              		.loc 1 266 27 is_stmt 0
 589 0198 97070000 		la	a5,_ZN5Riscv14supervisorTrapEv
 589      83B70700 
 590              	.LVL20:
 591              	.LBB213:
 592              	.LBB214:
 134:src/../h/Riscv.hpp **** }
 593              		.loc 2 134 5 is_stmt 1
 134:src/../h/Riscv.hpp **** }
 594              		.loc 2 134 69 is_stmt 0
 595              	#APP
 596              	# 134 "src/../h/Riscv.hpp" 1
 597              		csrw stvec, a5
 598              	# 0 "" 2
 599              	.LVL21:
 600              	#NO_APP
 601              	.LBE214:
 602              	.LBE213:
 268:src/Riscv.cpp ****             w_sepc(sepc);
 603              		.loc 1 268 13 is_stmt 1
 604              	.LBB215:
 605              	.LBB216:
 188:src/../h/Riscv.hpp **** }
 189:src/../h/Riscv.hpp **** 
 190:src/../h/Riscv.hpp **** inline void Riscv::w_sstatus(uint64 sstatus)
 191:src/../h/Riscv.hpp **** {
 192:src/../h/Riscv.hpp ****     __asm__ volatile ("csrw sstatus, %[sstatus]" : : [sstatus] "r"(sstatus));
 606              		.loc 2 192 5
 607              		.loc 2 192 77 is_stmt 0
 608              	#APP
 609              	# 192 "src/../h/Riscv.hpp" 1
 193              	}
 610              		csrw sstatus, s2
GAS LISTING /tmp/ccpWTA4I.s 			page 21


 611              	# 0 "" 2
 612              	.LVL22:
 613              	#NO_APP
 614              	.LBE216:
 615              	.LBE215:
 269:src/Riscv.cpp ****         }
 616              		.loc 1 269 13 is_stmt 1
 617              	.LBB217:
 618              	.LBB218:
 122:src/../h/Riscv.hpp **** }
 619              		.loc 2 122 5
 122:src/../h/Riscv.hpp **** }
 620              		.loc 2 122 65 is_stmt 0
 621              	#APP
 622              	# 122 "src/../h/Riscv.hpp" 1
 623              		csrw sepc, s1
 624              	# 0 "" 2
 625              	.LVL23:
 626              	#NO_APP
 627              	.LBE218:
 628              	.LBE217:
 629              	.LBE206:
 630              	.LBE205:
 631              	.LBE232:
 632              	.LBE244:
 633              	.LBE257:
 634              	.LBE281:
 635              	.LBE300:
 636              	.LBE316:
 637              	.LBE333:
 638              	.LBE351:
 639              	.LBE370:
 640              	.LBE390:
 641              	.LBE404:
 642              	.LBE418:
 643              	.LBE435:
 644              	.LBE451:
 645              		.loc 1 277 1
 646 01ac 6FF0DFF0 		j	.L3
 647              	.LVL24:
 648              	.L29:
 649              	.LBB452:
 650              	.LBB436:
 651              	.LBB419:
  42:src/Riscv.cpp ****     }
 652              		.loc 1 42 9 is_stmt 1
  42:src/Riscv.cpp ****     }
 653              		.loc 1 42 24 is_stmt 0
 654 01b0 97000000 		call	console_handler@plt
 654      E7800000 
 655              	.LVL25:
 656 01b8 6FF01FF0 		j	.L3
 657              	.LVL26:
 658              	.L30:
 659              	.LBB405:
 660              	.LBB391:
 661              	.LBB186:
GAS LISTING /tmp/ccpWTA4I.s 			page 22


  49:src/Riscv.cpp ****             uint64 sstatus = r_sstatus();
 662              		.loc 1 49 13 is_stmt 1
 663              	.LBB187:
 664              	.LBB188:
 115:src/../h/Riscv.hpp ****     __asm__ volatile ("csrr %[sepc], sepc" : [sepc] "=r"(sepc));
 665              		.loc 2 115 5
 116:src/../h/Riscv.hpp ****     return sepc;
 666              		.loc 2 116 5
 116:src/../h/Riscv.hpp ****     return sepc;
 667              		.loc 2 116 64 is_stmt 0
 668              	#APP
 669              	# 116 "src/../h/Riscv.hpp" 1
 670              		csrr a5, sepc
 671              	# 0 "" 2
 672              	#NO_APP
 673 01c0 2334F4F0 		sd	a5,-248(s0)
 117:src/../h/Riscv.hpp **** }
 674              		.loc 2 117 5 is_stmt 1
 117:src/../h/Riscv.hpp **** }
 675              		.loc 2 117 12 is_stmt 0
 676 01c4 033984F0 		ld	s2,-248(s0)
 677              	.LBE188:
 678              	.LBE187:
  49:src/Riscv.cpp ****             uint64 sstatus = r_sstatus();
 679              		.loc 1 49 38
 680 01c8 13094900 		addi	s2,s2,4
 681              	.LVL27:
  50:src/Riscv.cpp **** 
 682              		.loc 1 50 13 is_stmt 1
 683              	.LBB189:
 684              	.LBB190:
 185:src/../h/Riscv.hpp ****     __asm__ volatile ("csrr %[sstatus], sstatus" : [sstatus] "=r"(sstatus));
 685              		.loc 2 185 5
 186:src/../h/Riscv.hpp ****     return sstatus;
 686              		.loc 2 186 5
 186:src/../h/Riscv.hpp ****     return sstatus;
 687              		.loc 2 186 76 is_stmt 0
 688              	#APP
 689              	# 186 "src/../h/Riscv.hpp" 1
 690              		csrr a5, sstatus
 691              	# 0 "" 2
 692              	#NO_APP
 693 01d0 2330F4F0 		sd	a5,-256(s0)
 187:src/../h/Riscv.hpp **** }
 694              		.loc 2 187 5 is_stmt 1
 187:src/../h/Riscv.hpp **** }
 695              		.loc 2 187 12 is_stmt 0
 696 01d4 833904F0 		ld	s3,-256(s0)
 697              	.LVL28:
 698              	.LBE190:
 699              	.LBE189:
  53:src/Riscv.cpp ****             _thread::Body arg2;
 700              		.loc 1 53 13 is_stmt 1
  54:src/Riscv.cpp ****             uint64 arg3;
 701              		.loc 1 54 13
  55:src/Riscv.cpp **** 
 702              		.loc 1 55 13
GAS LISTING /tmp/ccpWTA4I.s 			page 23


  58:src/Riscv.cpp ****             __asm__ volatile("ld a2, 12*8(fp)"); //a2
 703              		.loc 1 58 13
  58:src/Riscv.cpp ****             __asm__ volatile("ld a2, 12*8(fp)"); //a2
 704              		.loc 1 58 48 is_stmt 0
 705              	#APP
 706              	# 58 "src/Riscv.cpp" 1
  59:src/Riscv.cpp ****             __asm__ volatile("ld a3, 13*8(fp)"); //a3
 707              		ld a1, 11*8(fp)
 708              	# 0 "" 2
 709              		.loc 1 59 13 is_stmt 1
  59:src/Riscv.cpp ****             __asm__ volatile("ld a3, 13*8(fp)"); //a3
 710              		.loc 1 59 48 is_stmt 0
 711              	# 59 "src/Riscv.cpp" 1
  60:src/Riscv.cpp **** 
 712              		ld a2, 12*8(fp)
 713              	# 0 "" 2
 714              		.loc 1 60 13 is_stmt 1
  60:src/Riscv.cpp **** 
 715              		.loc 1 60 48 is_stmt 0
 716              	# 60 "src/Riscv.cpp" 1
  63:src/Riscv.cpp ****             __asm__ volatile("mv %0, a2" : "=r" (arg2));    //start routine
 717              		ld a3, 13*8(fp)
 718              	# 0 "" 2
 719              		.loc 1 63 13 is_stmt 1
  63:src/Riscv.cpp ****             __asm__ volatile("mv %0, a2" : "=r" (arg2));    //start routine
 720              		.loc 1 63 56 is_stmt 0
 721              	# 63 "src/Riscv.cpp" 1
 722              		mv s4, a1
 723              	# 0 "" 2
 724              	.LVL29:
  64:src/Riscv.cpp ****             __asm__ volatile("mv %0, a3" : "=r" (arg3));    //argument of start routine
 725              		.loc 1 64 13 is_stmt 1
  64:src/Riscv.cpp ****             __asm__ volatile("mv %0, a3" : "=r" (arg3));    //argument of start routine
 726              		.loc 1 64 56 is_stmt 0
 727              	# 64 "src/Riscv.cpp" 1
 728              		mv s5, a2
 729              	# 0 "" 2
 730              	.LVL30:
  65:src/Riscv.cpp **** 
 731              		.loc 1 65 13 is_stmt 1
  65:src/Riscv.cpp **** 
 732              		.loc 1 65 56 is_stmt 0
 733              	# 65 "src/Riscv.cpp" 1
 734              		mv s6, a3
 735              	# 0 "" 2
 736              	.LVL31:
  67:src/Riscv.cpp **** 
 737              		.loc 1 67 13 is_stmt 1
  67:src/Riscv.cpp **** 
 738              		.loc 1 67 65 is_stmt 0
 739              	#NO_APP
 740 01f0 37850000 		li	a0,32768
 741 01f4 97000000 		call	_ZN15MemoryAllocator10kmem_allocEm@plt
 741      E7800000 
 742              	.LVL32:
 743 01fc 13060500 		mv	a2,a0
 744              	.LVL33:
GAS LISTING /tmp/ccpWTA4I.s 			page 24


  70:src/Riscv.cpp ****             *arg1=t;
 745              		.loc 1 70 13 is_stmt 1
  70:src/Riscv.cpp ****             *arg1=t;
 746              		.loc 1 70 47 is_stmt 0
 747 0200 93050B00 		mv	a1,s6
 748 0204 13850A00 		mv	a0,s5
 749              	.LVL34:
 750 0208 97000000 		call	_ZN7_thread12createThreadEPFvPvES0_Pm@plt
 750      E7800000 
 751              	.LVL35:
  71:src/Riscv.cpp **** 
 752              		.loc 1 71 13 is_stmt 1
  71:src/Riscv.cpp **** 
 753              		.loc 1 71 18 is_stmt 0
 754 0210 2330AA00 		sd	a0,0(s4)
  73:src/Riscv.cpp ****             if(t!= nullptr)ret=0;
 755              		.loc 1 73 13 is_stmt 1
  74:src/Riscv.cpp ****             else ret =-1;
 756              		.loc 1 74 13
 757 0214 630C0500 		beqz	a0,.L25
  74:src/Riscv.cpp ****             else ret =-1;
 758              		.loc 1 74 31 is_stmt 0
 759 0218 93070000 		li	a5,0
 760              	.L9:
 761              	.LVL36:
  78:src/Riscv.cpp **** 
 762              		.loc 1 78 13 is_stmt 1
  78:src/Riscv.cpp **** 
 763              		.loc 1 78 56 is_stmt 0
 764              	#APP
 765              	# 78 "src/Riscv.cpp" 1
  80:src/Riscv.cpp ****             w_sepc(sepc);
 766              		mv a0, a5
 767              	# 0 "" 2
 768              		.loc 1 80 13 is_stmt 1
 769              	.LVL37:
 770              	#NO_APP
 771              	.LBB191:
 772              	.LBB192:
 192:src/../h/Riscv.hpp **** }
 773              		.loc 2 192 5
 192:src/../h/Riscv.hpp **** }
 774              		.loc 2 192 77 is_stmt 0
 775              	#APP
 776              	# 192 "src/../h/Riscv.hpp" 1
 777              		csrw sstatus, s3
 778              	# 0 "" 2
 779              	.LVL38:
 780              	#NO_APP
 781              	.LBE192:
 782              	.LBE191:
  81:src/Riscv.cpp ****         }
 783              		.loc 1 81 13 is_stmt 1
 784              	.LBB193:
 785              	.LBB194:
 122:src/../h/Riscv.hpp **** }
 786              		.loc 2 122 5
GAS LISTING /tmp/ccpWTA4I.s 			page 25


 122:src/../h/Riscv.hpp **** }
 787              		.loc 2 122 65 is_stmt 0
 788              	#APP
 789              	# 122 "src/../h/Riscv.hpp" 1
 123:src/../h/Riscv.hpp **** 
 790              		csrw sepc, s2
 791              	# 0 "" 2
 792              		.loc 2 123 1
 793              	#NO_APP
 794 0228 6FF0DFED 		j	.L8
 795              	.LVL39:
 796              	.L25:
 797              	.LBE194:
 798              	.LBE193:
  75:src/Riscv.cpp **** 
 799              		.loc 1 75 22
 800 022c 9307F0FF 		li	a5,-1
 801 0230 6FF0DFFE 		j	.L9
 802              	.LVL40:
 803              	.L31:
 804              	.LBE186:
 805              	.LBE391:
 806              	.LBB392:
 807              	.LBB371:
  84:src/Riscv.cpp ****             uint64 sstatus = r_sstatus();
 808              		.loc 1 84 13 is_stmt 1
 809              	.LBB372:
 810              	.LBB373:
 115:src/../h/Riscv.hpp ****     __asm__ volatile ("csrr %[sepc], sepc" : [sepc] "=r"(sepc));
 811              		.loc 2 115 5
 116:src/../h/Riscv.hpp ****     return sepc;
 812              		.loc 2 116 5
 116:src/../h/Riscv.hpp ****     return sepc;
 813              		.loc 2 116 64 is_stmt 0
 814              	#APP
 815              	# 116 "src/../h/Riscv.hpp" 1
 816              		csrr a5, sepc
 817              	# 0 "" 2
 818              	#NO_APP
 819 0238 233CF4F0 		sd	a5,-232(s0)
 117:src/../h/Riscv.hpp **** }
 820              		.loc 2 117 5 is_stmt 1
 117:src/../h/Riscv.hpp **** }
 821              		.loc 2 117 12 is_stmt 0
 822 023c 833484F1 		ld	s1,-232(s0)
 823              	.LVL41:
 824              	.LBE373:
 825              	.LBE372:
  84:src/Riscv.cpp ****             uint64 sstatus = r_sstatus();
 826              		.loc 1 84 38
 827 0240 93844400 		addi	s1,s1,4
 828              	.LVL42:
  85:src/Riscv.cpp ****             //kmem_alloc
 829              		.loc 1 85 13 is_stmt 1
 830              	.LBB374:
 831              	.LBB375:
 185:src/../h/Riscv.hpp ****     __asm__ volatile ("csrr %[sstatus], sstatus" : [sstatus] "=r"(sstatus));
GAS LISTING /tmp/ccpWTA4I.s 			page 26


 832              		.loc 2 185 5
 186:src/../h/Riscv.hpp ****     return sstatus;
 833              		.loc 2 186 5
 186:src/../h/Riscv.hpp ****     return sstatus;
 834              		.loc 2 186 76 is_stmt 0
 835              	#APP
 836              	# 186 "src/../h/Riscv.hpp" 1
 837              		csrr a5, sstatus
 838              	# 0 "" 2
 839              	#NO_APP
 840 0248 2338F4F0 		sd	a5,-240(s0)
 187:src/../h/Riscv.hpp **** }
 841              		.loc 2 187 5 is_stmt 1
 187:src/../h/Riscv.hpp **** }
 842              		.loc 2 187 12 is_stmt 0
 843 024c 033904F1 		ld	s2,-240(s0)
 844              	.LVL43:
 845              	.LBE375:
 846              	.LBE374:
  87:src/Riscv.cpp **** 
 847              		.loc 1 87 13 is_stmt 1
  87:src/Riscv.cpp **** 
 848              		.loc 1 87 48 is_stmt 0
 849              	#APP
 850              	# 87 "src/Riscv.cpp" 1
  89:src/Riscv.cpp ****             uint64 ptr= (uint64) MemoryAllocator::kmem_alloc(arg1*MEM_BLOCK_SIZE);
 851              		ld a0, 11*8(fp)
 852              	# 0 "" 2
 853              		.loc 1 89 13 is_stmt 1
  89:src/Riscv.cpp ****             uint64 ptr= (uint64) MemoryAllocator::kmem_alloc(arg1*MEM_BLOCK_SIZE);
 854              		.loc 1 89 56 is_stmt 0
 855              	# 89 "src/Riscv.cpp" 1
 856              		mv a0, a0
 857              	# 0 "" 2
 858              	.LVL44:
  90:src/Riscv.cpp **** 
 859              		.loc 1 90 13 is_stmt 1
  90:src/Riscv.cpp **** 
 860              		.loc 1 90 61 is_stmt 0
 861              	#NO_APP
 862 0258 13156500 		slli	a0,a0,6
 863              	.LVL45:
 864 025c 97000000 		call	_ZN15MemoryAllocator10kmem_allocEm@plt
 864      E7800000 
 865              	.LVL46:
  93:src/Riscv.cpp **** 
 866              		.loc 1 93 13 is_stmt 1
  93:src/Riscv.cpp **** 
 867              		.loc 1 93 56 is_stmt 0
 868              	#APP
 869              	# 93 "src/Riscv.cpp" 1
  95:src/Riscv.cpp ****             w_sepc(sepc);
 870              		mv a0, a0
 871              	# 0 "" 2
 872              		.loc 1 95 13 is_stmt 1
 873              	.LVL47:
 874              	#NO_APP
GAS LISTING /tmp/ccpWTA4I.s 			page 27


 875              	.LBB376:
 876              	.LBB377:
 192:src/../h/Riscv.hpp **** }
 877              		.loc 2 192 5
 192:src/../h/Riscv.hpp **** }
 878              		.loc 2 192 77 is_stmt 0
 879              	#APP
 880              	# 192 "src/../h/Riscv.hpp" 1
 881              		csrw sstatus, s2
 882              	# 0 "" 2
 883              	.LVL48:
 884              	#NO_APP
 885              	.LBE377:
 886              	.LBE376:
  96:src/Riscv.cpp ****         }
 887              		.loc 1 96 13 is_stmt 1
 888              	.LBB378:
 889              	.LBB379:
 122:src/../h/Riscv.hpp **** }
 890              		.loc 2 122 5
 122:src/../h/Riscv.hpp **** }
 891              		.loc 2 122 65 is_stmt 0
 892              	#APP
 893              	# 122 "src/../h/Riscv.hpp" 1
 123:src/../h/Riscv.hpp **** 
 894              		csrw sepc, s1
 895              	# 0 "" 2
 896              		.loc 2 123 1
 897              	#NO_APP
 898 0270 6FF09FE4 		j	.L3
 899              	.LVL49:
 900              	.L32:
 901              	.LBE379:
 902              	.LBE378:
 903              	.LBE371:
 904              	.LBB380:
 905              	.LBB352:
  99:src/Riscv.cpp ****             uint64 sstatus = r_sstatus();
 906              		.loc 1 99 13 is_stmt 1
 907              	.LBB353:
 908              	.LBB354:
 115:src/../h/Riscv.hpp ****     __asm__ volatile ("csrr %[sepc], sepc" : [sepc] "=r"(sepc));
 909              		.loc 2 115 5
 116:src/../h/Riscv.hpp ****     return sepc;
 910              		.loc 2 116 5
 116:src/../h/Riscv.hpp ****     return sepc;
 911              		.loc 2 116 64 is_stmt 0
 912              	#APP
 913              	# 116 "src/../h/Riscv.hpp" 1
 914              		csrr a5, sepc
 915              	# 0 "" 2
 916              	#NO_APP
 917 0278 2334F4F2 		sd	a5,-216(s0)
 117:src/../h/Riscv.hpp **** }
 918              		.loc 2 117 5 is_stmt 1
 117:src/../h/Riscv.hpp **** }
 919              		.loc 2 117 12 is_stmt 0
GAS LISTING /tmp/ccpWTA4I.s 			page 28


 920 027c 833484F2 		ld	s1,-216(s0)
 921              	.LVL50:
 922              	.LBE354:
 923              	.LBE353:
  99:src/Riscv.cpp ****             uint64 sstatus = r_sstatus();
 924              		.loc 1 99 38
 925 0280 93844400 		addi	s1,s1,4
 926              	.LVL51:
 100:src/Riscv.cpp **** 
 927              		.loc 1 100 13 is_stmt 1
 928              	.LBB355:
 929              	.LBB356:
 185:src/../h/Riscv.hpp ****     __asm__ volatile ("csrr %[sstatus], sstatus" : [sstatus] "=r"(sstatus));
 930              		.loc 2 185 5
 186:src/../h/Riscv.hpp ****     return sstatus;
 931              		.loc 2 186 5
 186:src/../h/Riscv.hpp ****     return sstatus;
 932              		.loc 2 186 76 is_stmt 0
 933              	#APP
 934              	# 186 "src/../h/Riscv.hpp" 1
 935              		csrr a5, sstatus
 936              	# 0 "" 2
 937              	#NO_APP
 938 0288 2330F4F2 		sd	a5,-224(s0)
 187:src/../h/Riscv.hpp **** }
 939              		.loc 2 187 5 is_stmt 1
 187:src/../h/Riscv.hpp **** }
 940              		.loc 2 187 12 is_stmt 0
 941 028c 033904F2 		ld	s2,-224(s0)
 942              	.LVL52:
 943              	.LBE356:
 944              	.LBE355:
 102:src/Riscv.cpp **** 
 945              		.loc 1 102 13 is_stmt 1
 102:src/Riscv.cpp **** 
 946              		.loc 1 102 48 is_stmt 0
 947              	#APP
 948              	# 102 "src/Riscv.cpp" 1
 104:src/Riscv.cpp ****             int ret = MemoryAllocator::kmem_free((void *) arg1);
 949              		ld a0, 11*8(fp)
 950              	# 0 "" 2
 951              		.loc 1 104 13 is_stmt 1
 104:src/Riscv.cpp ****             int ret = MemoryAllocator::kmem_free((void *) arg1);
 952              		.loc 1 104 56 is_stmt 0
 953              	# 104 "src/Riscv.cpp" 1
 954              		mv a0, a0
 955              	# 0 "" 2
 956              	.LVL53:
 105:src/Riscv.cpp ****             __asm__ volatile("mv a0, %0" : : "r" (ret));
 957              		.loc 1 105 13 is_stmt 1
 105:src/Riscv.cpp ****             __asm__ volatile("mv a0, %0" : : "r" (ret));
 958              		.loc 1 105 49 is_stmt 0
 959              	#NO_APP
 960 0298 97000000 		call	_ZN15MemoryAllocator9kmem_freeEPv@plt
 960      E7800000 
 961              	.LVL54:
 106:src/Riscv.cpp **** 
GAS LISTING /tmp/ccpWTA4I.s 			page 29


 962              		.loc 1 106 13 is_stmt 1
 106:src/Riscv.cpp **** 
 963              		.loc 1 106 56 is_stmt 0
 964              	#APP
 965              	# 106 "src/Riscv.cpp" 1
 108:src/Riscv.cpp ****             w_sepc(sepc);
 966              		mv a0, a0
 967              	# 0 "" 2
 968              		.loc 1 108 13 is_stmt 1
 969              	.LVL55:
 970              	#NO_APP
 971              	.LBB357:
 972              	.LBB358:
 192:src/../h/Riscv.hpp **** }
 973              		.loc 2 192 5
 192:src/../h/Riscv.hpp **** }
 974              		.loc 2 192 77 is_stmt 0
 975              	#APP
 976              	# 192 "src/../h/Riscv.hpp" 1
 977              		csrw sstatus, s2
 978              	# 0 "" 2
 979              	.LVL56:
 980              	#NO_APP
 981              	.LBE358:
 982              	.LBE357:
 109:src/Riscv.cpp ****         }
 983              		.loc 1 109 13 is_stmt 1
 984              	.LBB359:
 985              	.LBB360:
 122:src/../h/Riscv.hpp **** }
 986              		.loc 2 122 5
 122:src/../h/Riscv.hpp **** }
 987              		.loc 2 122 65 is_stmt 0
 988              	#APP
 989              	# 122 "src/../h/Riscv.hpp" 1
 123:src/../h/Riscv.hpp **** 
 990              		csrw sepc, s1
 991              	# 0 "" 2
 992              		.loc 2 123 1
 993              	#NO_APP
 994 02ac 6FF0DFE0 		j	.L3
 995              	.LVL57:
 996              	.L33:
 997              	.LBE360:
 998              	.LBE359:
 999              	.LBE352:
 1000              	.LBB361:
 1001              	.LBB334:
 113:src/Riscv.cpp ****             uint64 sstatus = r_sstatus();
 1002              		.loc 1 113 13 is_stmt 1
 1003              	.LBB335:
 1004              	.LBB336:
 115:src/../h/Riscv.hpp ****     __asm__ volatile ("csrr %[sepc], sepc" : [sepc] "=r"(sepc));
 1005              		.loc 2 115 5
 116:src/../h/Riscv.hpp ****     return sepc;
 1006              		.loc 2 116 5
 116:src/../h/Riscv.hpp ****     return sepc;
GAS LISTING /tmp/ccpWTA4I.s 			page 30


 1007              		.loc 2 116 64 is_stmt 0
 1008              	#APP
 1009              	# 116 "src/../h/Riscv.hpp" 1
 1010              		csrr a5, sepc
 1011              	# 0 "" 2
 1012              	#NO_APP
 1013 02b4 233CF4F2 		sd	a5,-200(s0)
 117:src/../h/Riscv.hpp **** }
 1014              		.loc 2 117 5 is_stmt 1
 117:src/../h/Riscv.hpp **** }
 1015              		.loc 2 117 12 is_stmt 0
 1016 02b8 833484F3 		ld	s1,-200(s0)
 1017              	.LVL58:
 1018              	.LBE336:
 1019              	.LBE335:
 113:src/Riscv.cpp ****             uint64 sstatus = r_sstatus();
 1020              		.loc 1 113 38
 1021 02bc 93844400 		addi	s1,s1,4
 1022              	.LVL59:
 114:src/Riscv.cpp **** 
 1023              		.loc 1 114 13 is_stmt 1
 1024              	.LBB337:
 1025              	.LBB338:
 185:src/../h/Riscv.hpp ****     __asm__ volatile ("csrr %[sstatus], sstatus" : [sstatus] "=r"(sstatus));
 1026              		.loc 2 185 5
 186:src/../h/Riscv.hpp ****     return sstatus;
 1027              		.loc 2 186 5
 186:src/../h/Riscv.hpp ****     return sstatus;
 1028              		.loc 2 186 76 is_stmt 0
 1029              	#APP
 1030              	# 186 "src/../h/Riscv.hpp" 1
 1031              		csrr a5, sstatus
 1032              	# 0 "" 2
 1033              	#NO_APP
 1034 02c4 2338F4F2 		sd	a5,-208(s0)
 187:src/../h/Riscv.hpp **** }
 1035              		.loc 2 187 5 is_stmt 1
 187:src/../h/Riscv.hpp **** }
 1036              		.loc 2 187 12 is_stmt 0
 1037 02c8 033904F3 		ld	s2,-208(s0)
 1038              	.LVL60:
 1039              	.LBE338:
 1040              	.LBE337:
 116:src/Riscv.cpp ****             _thread::dispatch();
 1041              		.loc 1 116 13 is_stmt 1
 116:src/Riscv.cpp ****             _thread::dispatch();
 1042              		.loc 1 116 31 is_stmt 0
 1043 02cc 97070000 		la	a5,_ZN7_thread7runningE
 1043      83B70700 
 1044 02d4 83B70700 		ld	a5,0(a5)
 116:src/Riscv.cpp ****             _thread::dispatch();
 1045              		.loc 1 116 39
 1046 02d8 13071000 		li	a4,1
 1047 02dc 2384E702 		sb	a4,40(a5)
 117:src/Riscv.cpp **** 
 1048              		.loc 1 117 13 is_stmt 1
 117:src/Riscv.cpp **** 
GAS LISTING /tmp/ccpWTA4I.s 			page 31


 1049              		.loc 1 117 30 is_stmt 0
 1050 02e0 97000000 		call	_ZN7_thread8dispatchEv@plt
 1050      E7800000 
 1051              	.LVL61:
 119:src/Riscv.cpp ****             w_sepc(sepc);
 1052              		.loc 1 119 13 is_stmt 1
 1053              	.LBB339:
 1054              	.LBB340:
 192:src/../h/Riscv.hpp **** }
 1055              		.loc 2 192 5
 192:src/../h/Riscv.hpp **** }
 1056              		.loc 2 192 77 is_stmt 0
 1057              	#APP
 1058              	# 192 "src/../h/Riscv.hpp" 1
 1059              		csrw sstatus, s2
 1060              	# 0 "" 2
 1061              	.LVL62:
 1062              	#NO_APP
 1063              	.LBE340:
 1064              	.LBE339:
 120:src/Riscv.cpp **** 
 1065              		.loc 1 120 13 is_stmt 1
 1066              	.LBB341:
 1067              	.LBB342:
 122:src/../h/Riscv.hpp **** }
 1068              		.loc 2 122 5
 122:src/../h/Riscv.hpp **** }
 1069              		.loc 2 122 65 is_stmt 0
 1070              	#APP
 1071              	# 122 "src/../h/Riscv.hpp" 1
 123:src/../h/Riscv.hpp **** 
 1072              		csrw sepc, s1
 1073              	# 0 "" 2
 1074              		.loc 2 123 1
 1075              	#NO_APP
 1076 02f0 6FF09FDC 		j	.L3
 1077              	.LVL63:
 1078              	.L34:
 1079              	.LBE342:
 1080              	.LBE341:
 1081              	.LBE334:
 1082              	.LBB343:
 1083              	.LBB317:
 126:src/Riscv.cpp ****             uint64 sstatus = r_sstatus();
 1084              		.loc 1 126 13 is_stmt 1
 1085              	.LBB318:
 1086              	.LBB319:
 115:src/../h/Riscv.hpp ****     __asm__ volatile ("csrr %[sepc], sepc" : [sepc] "=r"(sepc));
 1087              		.loc 2 115 5
 116:src/../h/Riscv.hpp ****     return sepc;
 1088              		.loc 2 116 5
 116:src/../h/Riscv.hpp ****     return sepc;
 1089              		.loc 2 116 64 is_stmt 0
 1090              	#APP
 1091              	# 116 "src/../h/Riscv.hpp" 1
 1092              		csrr a5, sepc
 1093              	# 0 "" 2
GAS LISTING /tmp/ccpWTA4I.s 			page 32


 1094              	#NO_APP
 1095 02f8 2334F4F4 		sd	a5,-184(s0)
 117:src/../h/Riscv.hpp **** }
 1096              		.loc 2 117 5 is_stmt 1
 117:src/../h/Riscv.hpp **** }
 1097              		.loc 2 117 12 is_stmt 0
 1098 02fc 833484F4 		ld	s1,-184(s0)
 1099              	.LVL64:
 1100              	.LBE319:
 1101              	.LBE318:
 126:src/Riscv.cpp ****             uint64 sstatus = r_sstatus();
 1102              		.loc 1 126 38
 1103 0300 93844400 		addi	s1,s1,4
 1104              	.LVL65:
 127:src/Riscv.cpp **** 
 1105              		.loc 1 127 13 is_stmt 1
 1106              	.LBB320:
 1107              	.LBB321:
 185:src/../h/Riscv.hpp ****     __asm__ volatile ("csrr %[sstatus], sstatus" : [sstatus] "=r"(sstatus));
 1108              		.loc 2 185 5
 186:src/../h/Riscv.hpp ****     return sstatus;
 1109              		.loc 2 186 5
 186:src/../h/Riscv.hpp ****     return sstatus;
 1110              		.loc 2 186 76 is_stmt 0
 1111              	#APP
 1112              	# 186 "src/../h/Riscv.hpp" 1
 1113              		csrr a5, sstatus
 1114              	# 0 "" 2
 1115              	#NO_APP
 1116 0308 2330F4F4 		sd	a5,-192(s0)
 187:src/../h/Riscv.hpp **** }
 1117              		.loc 2 187 5 is_stmt 1
 187:src/../h/Riscv.hpp **** }
 1118              		.loc 2 187 12 is_stmt 0
 1119 030c 033904F4 		ld	s2,-192(s0)
 1120              	.LVL66:
 1121              	.LBE321:
 1122              	.LBE320:
 130:src/Riscv.cpp **** 
 1123              		.loc 1 130 13 is_stmt 1
 130:src/Riscv.cpp **** 
 1124              		.loc 1 130 30 is_stmt 0
 1125 0310 97000000 		call	_ZN7_thread8dispatchEv@plt
 1125      E7800000 
 1126              	.LVL67:
 132:src/Riscv.cpp ****             w_sepc(sepc);
 1127              		.loc 1 132 13 is_stmt 1
 1128              	.LBB322:
 1129              	.LBB323:
 192:src/../h/Riscv.hpp **** }
 1130              		.loc 2 192 5
 192:src/../h/Riscv.hpp **** }
 1131              		.loc 2 192 77 is_stmt 0
 1132              	#APP
 1133              	# 192 "src/../h/Riscv.hpp" 1
 1134              		csrw sstatus, s2
 1135              	# 0 "" 2
GAS LISTING /tmp/ccpWTA4I.s 			page 33


 1136              	.LVL68:
 1137              	#NO_APP
 1138              	.LBE323:
 1139              	.LBE322:
 133:src/Riscv.cpp ****         }
 1140              		.loc 1 133 13 is_stmt 1
 1141              	.LBB324:
 1142              	.LBB325:
 122:src/../h/Riscv.hpp **** }
 1143              		.loc 2 122 5
 122:src/../h/Riscv.hpp **** }
 1144              		.loc 2 122 65 is_stmt 0
 1145              	#APP
 1146              	# 122 "src/../h/Riscv.hpp" 1
 123:src/../h/Riscv.hpp **** 
 1147              		csrw sepc, s1
 1148              	# 0 "" 2
 1149              		.loc 2 123 1
 1150              	#NO_APP
 1151 0320 6FF09FD9 		j	.L3
 1152              	.LVL69:
 1153              	.L35:
 1154              	.LBE325:
 1155              	.LBE324:
 1156              	.LBE317:
 1157              	.LBB326:
 1158              	.LBB301:
 138:src/Riscv.cpp ****             uint64 sstatus = r_sstatus();
 1159              		.loc 1 138 13 is_stmt 1
 1160              	.LBB302:
 1161              	.LBB303:
 115:src/../h/Riscv.hpp ****     __asm__ volatile ("csrr %[sepc], sepc" : [sepc] "=r"(sepc));
 1162              		.loc 2 115 5
 116:src/../h/Riscv.hpp ****     return sepc;
 1163              		.loc 2 116 5
 116:src/../h/Riscv.hpp ****     return sepc;
 1164              		.loc 2 116 64 is_stmt 0
 1165              	#APP
 1166              	# 116 "src/../h/Riscv.hpp" 1
 1167              		csrr a5, sepc
 1168              	# 0 "" 2
 1169              	#NO_APP
 1170 0328 233CF4F4 		sd	a5,-168(s0)
 117:src/../h/Riscv.hpp **** }
 1171              		.loc 2 117 5 is_stmt 1
 117:src/../h/Riscv.hpp **** }
 1172              		.loc 2 117 12 is_stmt 0
 1173 032c 833484F5 		ld	s1,-168(s0)
 1174              	.LVL70:
 1175              	.LBE303:
 1176              	.LBE302:
 138:src/Riscv.cpp ****             uint64 sstatus = r_sstatus();
 1177              		.loc 1 138 38
 1178 0330 93844400 		addi	s1,s1,4
 1179              	.LVL71:
 139:src/Riscv.cpp **** 
 1180              		.loc 1 139 13 is_stmt 1
GAS LISTING /tmp/ccpWTA4I.s 			page 34


 1181              	.LBB304:
 1182              	.LBB305:
 185:src/../h/Riscv.hpp ****     __asm__ volatile ("csrr %[sstatus], sstatus" : [sstatus] "=r"(sstatus));
 1183              		.loc 2 185 5
 186:src/../h/Riscv.hpp ****     return sstatus;
 1184              		.loc 2 186 5
 186:src/../h/Riscv.hpp ****     return sstatus;
 1185              		.loc 2 186 76 is_stmt 0
 1186              	#APP
 1187              	# 186 "src/../h/Riscv.hpp" 1
 1188              		csrr a5, sstatus
 1189              	# 0 "" 2
 1190              	#NO_APP
 1191 0338 2338F4F4 		sd	a5,-176(s0)
 187:src/../h/Riscv.hpp **** }
 1192              		.loc 2 187 5 is_stmt 1
 187:src/../h/Riscv.hpp **** }
 1193              		.loc 2 187 12 is_stmt 0
 1194 033c 033904F5 		ld	s2,-176(s0)
 1195              	.LVL72:
 1196              	.LBE305:
 1197              	.LBE304:
 141:src/Riscv.cpp ****             _thread::dispatch();
 1198              		.loc 1 141 13 is_stmt 1
 141:src/Riscv.cpp ****             _thread::dispatch();
 1199              		.loc 1 141 39 is_stmt 0
 1200 0340 97070000 		la	a5,_ZN7_thread16timeSliceCounterE
 1200      83B70700 
 1201 0348 23B00700 		sd	zero,0(a5)
 142:src/Riscv.cpp **** 
 1202              		.loc 1 142 13 is_stmt 1
 142:src/Riscv.cpp **** 
 1203              		.loc 1 142 30 is_stmt 0
 1204 034c 97000000 		call	_ZN7_thread8dispatchEv@plt
 1204      E7800000 
 1205              	.LVL73:
 144:src/Riscv.cpp ****             w_sepc(sepc);
 1206              		.loc 1 144 13 is_stmt 1
 1207              	.LBB306:
 1208              	.LBB307:
 192:src/../h/Riscv.hpp **** }
 1209              		.loc 2 192 5
 192:src/../h/Riscv.hpp **** }
 1210              		.loc 2 192 77 is_stmt 0
 1211              	#APP
 1212              	# 192 "src/../h/Riscv.hpp" 1
 1213              		csrw sstatus, s2
 1214              	# 0 "" 2
 1215              	.LVL74:
 1216              	#NO_APP
 1217              	.LBE307:
 1218              	.LBE306:
 145:src/Riscv.cpp ****         }
 1219              		.loc 1 145 13 is_stmt 1
 1220              	.LBB308:
 1221              	.LBB309:
 122:src/../h/Riscv.hpp **** }
GAS LISTING /tmp/ccpWTA4I.s 			page 35


 1222              		.loc 2 122 5
 122:src/../h/Riscv.hpp **** }
 1223              		.loc 2 122 65 is_stmt 0
 1224              	#APP
 1225              	# 122 "src/../h/Riscv.hpp" 1
 123:src/../h/Riscv.hpp **** 
 1226              		csrw sepc, s1
 1227              	# 0 "" 2
 1228              		.loc 2 123 1
 1229              	#NO_APP
 1230 035c 6FF0DFD5 		j	.L3
 1231              	.LVL75:
 1232              	.L36:
 1233              	.LBE309:
 1234              	.LBE308:
 1235              	.LBE301:
 1236              	.LBB310:
 1237              	.LBB282:
 148:src/Riscv.cpp ****             uint64 sstatus = r_sstatus();
 1238              		.loc 1 148 13 is_stmt 1
 1239              	.LBB283:
 1240              	.LBB284:
 115:src/../h/Riscv.hpp ****     __asm__ volatile ("csrr %[sepc], sepc" : [sepc] "=r"(sepc));
 1241              		.loc 2 115 5
 116:src/../h/Riscv.hpp ****     return sepc;
 1242              		.loc 2 116 5
 116:src/../h/Riscv.hpp ****     return sepc;
 1243              		.loc 2 116 64 is_stmt 0
 1244              	#APP
 1245              	# 116 "src/../h/Riscv.hpp" 1
 1246              		csrr a5, sepc
 1247              	# 0 "" 2
 1248              	#NO_APP
 1249 0364 2334F4F6 		sd	a5,-152(s0)
 117:src/../h/Riscv.hpp **** }
 1250              		.loc 2 117 5 is_stmt 1
 117:src/../h/Riscv.hpp **** }
 1251              		.loc 2 117 12 is_stmt 0
 1252 0368 833484F6 		ld	s1,-152(s0)
 1253              	.LVL76:
 1254              	.LBE284:
 1255              	.LBE283:
 148:src/Riscv.cpp ****             uint64 sstatus = r_sstatus();
 1256              		.loc 1 148 38
 1257 036c 93844400 		addi	s1,s1,4
 1258              	.LVL77:
 149:src/Riscv.cpp **** 
 1259              		.loc 1 149 13 is_stmt 1
 1260              	.LBB285:
 1261              	.LBB286:
 185:src/../h/Riscv.hpp ****     __asm__ volatile ("csrr %[sstatus], sstatus" : [sstatus] "=r"(sstatus));
 1262              		.loc 2 185 5
 186:src/../h/Riscv.hpp ****     return sstatus;
 1263              		.loc 2 186 5
 186:src/../h/Riscv.hpp ****     return sstatus;
 1264              		.loc 2 186 76 is_stmt 0
 1265              	#APP
GAS LISTING /tmp/ccpWTA4I.s 			page 36


 1266              	# 186 "src/../h/Riscv.hpp" 1
 1267              		csrr a5, sstatus
 1268              	# 0 "" 2
 1269              	#NO_APP
 1270 0374 2330F4F6 		sd	a5,-160(s0)
 187:src/../h/Riscv.hpp **** }
 1271              		.loc 2 187 5 is_stmt 1
 187:src/../h/Riscv.hpp **** }
 1272              		.loc 2 187 12 is_stmt 0
 1273 0378 033904F6 		ld	s2,-160(s0)
 1274              	.LVL78:
 1275              	.LBE286:
 1276              	.LBE285:
 151:src/Riscv.cpp ****            uint64 arg2;
 1277              		.loc 1 151 12 is_stmt 1
 152:src/Riscv.cpp **** 
 1278              		.loc 1 152 12
 154:src/Riscv.cpp ****             __asm__ volatile("ld a2, 12*8(fp)"); //a2
 1279              		.loc 1 154 13
 154:src/Riscv.cpp ****             __asm__ volatile("ld a2, 12*8(fp)"); //a2
 1280              		.loc 1 154 48 is_stmt 0
 1281              	#APP
 1282              	# 154 "src/Riscv.cpp" 1
 155:src/Riscv.cpp **** 
 1283              		ld a1, 11*8(fp)
 1284              	# 0 "" 2
 1285              		.loc 1 155 13 is_stmt 1
 155:src/Riscv.cpp **** 
 1286              		.loc 1 155 48 is_stmt 0
 1287              	# 155 "src/Riscv.cpp" 1
 157:src/Riscv.cpp ****             __asm__ volatile("mv %0, a2" : "=r" (arg2));    //init val
 1288              		ld a2, 12*8(fp)
 1289              	# 0 "" 2
 1290              		.loc 1 157 13 is_stmt 1
 157:src/Riscv.cpp ****             __asm__ volatile("mv %0, a2" : "=r" (arg2));    //init val
 1291              		.loc 1 157 56 is_stmt 0
 1292              	# 157 "src/Riscv.cpp" 1
 1293              		mv s3, a1
 1294              	# 0 "" 2
 1295              	.LVL79:
 158:src/Riscv.cpp **** 
 1296              		.loc 1 158 13 is_stmt 1
 158:src/Riscv.cpp **** 
 1297              		.loc 1 158 56 is_stmt 0
 1298              	# 158 "src/Riscv.cpp" 1
 1299              		mv s4, a2
 1300              	# 0 "" 2
 1301              	.LVL80:
 160:src/Riscv.cpp ****             sem->opened=true;
 1302              		.loc 1 160 13 is_stmt 1
 160:src/Riscv.cpp ****             sem->opened=true;
 1303              		.loc 1 160 50 is_stmt 0
 1304              	#NO_APP
 1305 038c 13058001 		li	a0,24
 1306 0390 97000000 		call	_ZN10KSemaphorenwEm@plt
 1306      E7800000 
 1307              	.LVL81:
GAS LISTING /tmp/ccpWTA4I.s 			page 37


 1308              	.LBB287:
 1309              	.LBB288:
 1310              		.file 3 "src/../h/KSemaphore.hpp"
   1:src/../h/KSemaphore.hpp **** //
   2:src/../h/KSemaphore.hpp **** // Created by os on 6/25/22.
   3:src/../h/KSemaphore.hpp **** //
   4:src/../h/KSemaphore.hpp **** 
   5:src/../h/KSemaphore.hpp **** #ifndef PROJECT_BASE_V1_1_KSEMAPHORE_HPP
   6:src/../h/KSemaphore.hpp **** #define PROJECT_BASE_V1_1_KSEMAPHORE_HPP
   7:src/../h/KSemaphore.hpp **** 
   8:src/../h/KSemaphore.hpp **** 
   9:src/../h/KSemaphore.hpp **** #include "_thread.hpp"
  10:src/../h/KSemaphore.hpp **** #include "List.hpp"
  11:src/../h/KSemaphore.hpp **** 
  12:src/../h/KSemaphore.hpp **** class KSemaphore {
  13:src/../h/KSemaphore.hpp **** public:
  14:src/../h/KSemaphore.hpp ****     KSemaphore(uint64 init=1): val(init){
 1311              		.loc 3 14 40
 1312 0398 23224501 		sw	s4,4(a0)
 1313              	.LVL82:
 1314              	.LBB289:
 1315              	.LBB290:
 1316              		.file 4 "src/../h/List.hpp"
   1:src/../h/List.hpp **** //
   2:src/../h/List.hpp **** // Created by os on 6/17/22.
   3:src/../h/List.hpp **** //
   4:src/../h/List.hpp **** 
   5:src/../h/List.hpp **** #ifndef PROJECT_BASE_V1_1_LIST_HPP
   6:src/../h/List.hpp **** #define PROJECT_BASE_V1_1_LIST_HPP
   7:src/../h/List.hpp **** 
   8:src/../h/List.hpp **** #include "MemoryAllocator.hpp"
   9:src/../h/List.hpp **** 
  10:src/../h/List.hpp **** template<typename T>
  11:src/../h/List.hpp **** class List
  12:src/../h/List.hpp **** {
  13:src/../h/List.hpp **** private:
  14:src/../h/List.hpp ****     struct Elem
  15:src/../h/List.hpp ****     {
  16:src/../h/List.hpp ****         T *data;
  17:src/../h/List.hpp ****         Elem *next;
  18:src/../h/List.hpp **** 
  19:src/../h/List.hpp ****         Elem(T *data, Elem *next) : data(data), next(next) {}
  20:src/../h/List.hpp **** 
  21:src/../h/List.hpp ****     };
  22:src/../h/List.hpp **** 
  23:src/../h/List.hpp ****     Elem *head, *tail;
  24:src/../h/List.hpp **** 
  25:src/../h/List.hpp **** public:
  26:src/../h/List.hpp ****     List() : head(0), tail(0) {}
 1317              		.loc 4 26 29
 1318 039c 23340500 		sd	zero,8(a0)
 1319 03a0 23380500 		sd	zero,16(a0)
 1320              	.LVL83:
 1321              	.LBE290:
 1322              	.LBE289:
 1323              	.LBE288:
 1324              	.LBE287:
GAS LISTING /tmp/ccpWTA4I.s 			page 38


 161:src/Riscv.cpp ****             *arg1=sem;
 1325              		.loc 1 161 13 is_stmt 1
 161:src/Riscv.cpp ****             *arg1=sem;
 1326              		.loc 1 161 24 is_stmt 0
 1327 03a4 93071000 		li	a5,1
 1328 03a8 2300F500 		sb	a5,0(a0)
 162:src/Riscv.cpp **** 
 1329              		.loc 1 162 13 is_stmt 1
 162:src/Riscv.cpp **** 
 1330              		.loc 1 162 18 is_stmt 0
 1331 03ac 23B0A900 		sd	a0,0(s3)
 164:src/Riscv.cpp ****             if(sem!= nullptr)ret=0;
 1332              		.loc 1 164 13 is_stmt 1
 1333              	.LVL84:
 165:src/Riscv.cpp ****             else ret=-1;
 1334              		.loc 1 165 13
 1335 03b0 630C0500 		beqz	a0,.L26
 165:src/Riscv.cpp ****             else ret=-1;
 1336              		.loc 1 165 33 is_stmt 0
 1337 03b4 93070000 		li	a5,0
 1338              	.L16:
 1339              	.LVL85:
 168:src/Riscv.cpp **** 
 1340              		.loc 1 168 13 is_stmt 1
 168:src/Riscv.cpp **** 
 1341              		.loc 1 168 56 is_stmt 0
 1342              	#APP
 1343              	# 168 "src/Riscv.cpp" 1
 170:src/Riscv.cpp ****             w_sepc(sepc);
 1344              		mv a0, a5
 1345              	# 0 "" 2
 1346              		.loc 1 170 13 is_stmt 1
 1347              	.LVL86:
 1348              	#NO_APP
 1349              	.LBB291:
 1350              	.LBB292:
 192:src/../h/Riscv.hpp **** }
 1351              		.loc 2 192 5
 192:src/../h/Riscv.hpp **** }
 1352              		.loc 2 192 77 is_stmt 0
 1353              	#APP
 1354              	# 192 "src/../h/Riscv.hpp" 1
 1355              		csrw sstatus, s2
 1356              	# 0 "" 2
 1357              	.LVL87:
 1358              	#NO_APP
 1359              	.LBE292:
 1360              	.LBE291:
 171:src/Riscv.cpp ****         }
 1361              		.loc 1 171 13 is_stmt 1
 1362              	.LBB293:
 1363              	.LBB294:
 122:src/../h/Riscv.hpp **** }
 1364              		.loc 2 122 5
 122:src/../h/Riscv.hpp **** }
 1365              		.loc 2 122 65 is_stmt 0
 1366              	#APP
GAS LISTING /tmp/ccpWTA4I.s 			page 39


 1367              	# 122 "src/../h/Riscv.hpp" 1
 123:src/../h/Riscv.hpp **** 
 1368              		csrw sepc, s1
 1369              	# 0 "" 2
 1370              		.loc 2 123 1
 1371              	#NO_APP
 1372 03c4 6FF05FCF 		j	.L3
 1373              	.LVL88:
 1374              	.L26:
 1375              	.LBE294:
 1376              	.LBE293:
 166:src/Riscv.cpp **** 
 1377              		.loc 1 166 21
 1378 03c8 9307F0FF 		li	a5,-1
 1379 03cc 6FF0DFFE 		j	.L16
 1380              	.LVL89:
 1381              	.L37:
 1382              	.LBE282:
 1383              	.LBB295:
 1384              	.LBB258:
 174:src/Riscv.cpp ****             uint64 sstatus = r_sstatus();
 1385              		.loc 1 174 13 is_stmt 1
 1386              	.LBB259:
 1387              	.LBB260:
 115:src/../h/Riscv.hpp ****     __asm__ volatile ("csrr %[sepc], sepc" : [sepc] "=r"(sepc));
 1388              		.loc 2 115 5
 116:src/../h/Riscv.hpp ****     return sepc;
 1389              		.loc 2 116 5
 116:src/../h/Riscv.hpp ****     return sepc;
 1390              		.loc 2 116 64 is_stmt 0
 1391              	#APP
 1392              	# 116 "src/../h/Riscv.hpp" 1
 1393              		csrr a5, sepc
 1394              	# 0 "" 2
 1395              	#NO_APP
 1396 03d4 233CF4F6 		sd	a5,-136(s0)
 117:src/../h/Riscv.hpp **** }
 1397              		.loc 2 117 5 is_stmt 1
 117:src/../h/Riscv.hpp **** }
 1398              		.loc 2 117 12 is_stmt 0
 1399 03d8 833984F7 		ld	s3,-136(s0)
 1400              	.LBE260:
 1401              	.LBE259:
 174:src/Riscv.cpp ****             uint64 sstatus = r_sstatus();
 1402              		.loc 1 174 38
 1403 03dc 93894900 		addi	s3,s3,4
 1404              	.LVL90:
 175:src/Riscv.cpp **** 
 1405              		.loc 1 175 13 is_stmt 1
 1406              	.LBB261:
 1407              	.LBB262:
 185:src/../h/Riscv.hpp ****     __asm__ volatile ("csrr %[sstatus], sstatus" : [sstatus] "=r"(sstatus));
 1408              		.loc 2 185 5
 186:src/../h/Riscv.hpp ****     return sstatus;
 1409              		.loc 2 186 5
 186:src/../h/Riscv.hpp ****     return sstatus;
 1410              		.loc 2 186 76 is_stmt 0
GAS LISTING /tmp/ccpWTA4I.s 			page 40


 1411              	#APP
 1412              	# 186 "src/../h/Riscv.hpp" 1
 1413              		csrr a5, sstatus
 1414              	# 0 "" 2
 1415              	#NO_APP
 1416 03e4 2338F4F6 		sd	a5,-144(s0)
 187:src/../h/Riscv.hpp **** }
 1417              		.loc 2 187 5 is_stmt 1
 187:src/../h/Riscv.hpp **** }
 1418              		.loc 2 187 12 is_stmt 0
 1419 03e8 033A04F7 		ld	s4,-144(s0)
 1420              	.LVL91:
 1421              	.LBE262:
 1422              	.LBE261:
 177:src/Riscv.cpp **** 
 1423              		.loc 1 177 13 is_stmt 1
 180:src/Riscv.cpp **** 
 1424              		.loc 1 180 13
 180:src/Riscv.cpp **** 
 1425              		.loc 1 180 48 is_stmt 0
 1426              	#APP
 1427              	# 180 "src/Riscv.cpp" 1
 182:src/Riscv.cpp **** 
 1428              		ld a1, 11*8(fp)
 1429              	# 0 "" 2
 1430              		.loc 1 182 13 is_stmt 1
 182:src/Riscv.cpp **** 
 1431              		.loc 1 182 56 is_stmt 0
 1432              	# 182 "src/Riscv.cpp" 1
 1433              		mv s1, a1
 1434              	# 0 "" 2
 1435              	.LVL92:
 184:src/Riscv.cpp ****             //deblock all blocked threads on this semaphore
 1436              		.loc 1 184 13 is_stmt 1
 1437              	#NO_APP
 1438 03f4 6F000003 		j	.L20
 1439              	.LVL93:
 1440              	.L19:
 1441              	.LBB263:
 1442              	.LBB264:
 1443              	.LBB265:
  27:src/../h/List.hpp **** 
  28:src/../h/List.hpp ****     List(const List<T> &) = delete;
  29:src/../h/List.hpp **** 
  30:src/../h/List.hpp ****     List<T> &operator=(const List<T> &) = delete;
  31:src/../h/List.hpp **** 
  32:src/../h/List.hpp ****     void* operator new(size_t n){
  33:src/../h/List.hpp ****         return MemoryAllocator::kmem_alloc(n);
  34:src/../h/List.hpp ****     }
  35:src/../h/List.hpp **** 
  36:src/../h/List.hpp ****     void operator delete(void* p){
  37:src/../h/List.hpp ****         MemoryAllocator::kmem_free(p);
  38:src/../h/List.hpp ****     }
  39:src/../h/List.hpp **** 
  40:src/../h/List.hpp ****     void addFirst(T *data)
  41:src/../h/List.hpp ****     {
  42:src/../h/List.hpp ****         Elem *elem = (Elem*)MemoryAllocator::kmem_alloc(sizeof (Elem));
GAS LISTING /tmp/ccpWTA4I.s 			page 41


  43:src/../h/List.hpp ****         elem->data=data;
  44:src/../h/List.hpp ****         elem->next=head;
  45:src/../h/List.hpp ****         head = elem;
  46:src/../h/List.hpp ****         if (!tail) { tail = head; }
  47:src/../h/List.hpp ****     }
  48:src/../h/List.hpp **** 
  49:src/../h/List.hpp ****     void addLast(T *data)
  50:src/../h/List.hpp ****     {
  51:src/../h/List.hpp ****         Elem *elem = (Elem*)MemoryAllocator::kmem_alloc(sizeof (Elem));
  52:src/../h/List.hpp ****         elem->data=data;
  53:src/../h/List.hpp ****         elem->next=0;
  54:src/../h/List.hpp ****         if (tail)
  55:src/../h/List.hpp ****         {
  56:src/../h/List.hpp ****             tail->next = elem;
  57:src/../h/List.hpp ****             tail = elem;
  58:src/../h/List.hpp ****         } else
  59:src/../h/List.hpp ****         {
  60:src/../h/List.hpp ****             head = tail = elem;
  61:src/../h/List.hpp ****         }
  62:src/../h/List.hpp ****     }
  63:src/../h/List.hpp **** 
  64:src/../h/List.hpp ****     T *removeFirst()
  65:src/../h/List.hpp ****     {
  66:src/../h/List.hpp ****         if (!head) { return 0; }
  67:src/../h/List.hpp **** 
  68:src/../h/List.hpp ****         Elem *elem = head;
  69:src/../h/List.hpp ****         head = head->next;
  70:src/../h/List.hpp ****         if (!head) { tail = 0; }
  71:src/../h/List.hpp **** 
  72:src/../h/List.hpp ****         T *ret = elem->data;
 1444              		.loc 4 72 12 is_stmt 0
 1445 03f8 03390500 		ld	s2,0(a0)
 1446              	.LVL94:
  73:src/../h/List.hpp ****         MemoryAllocator::kmem_free(elem);
 1447              		.loc 4 73 35
 1448 03fc 97000000 		call	_ZN15MemoryAllocator9kmem_freeEPv@plt
 1448      E7800000 
 1449              	.LVL95:
 1450              	.LBE265:
 1451              	.LBE264:
 188:src/Riscv.cpp ****                 sem->val++;
 1452              		.loc 1 188 17 is_stmt 1
 1453              	.LBB267:
 1454              	.LBB268:
 1455              		.file 5 "src/../h/_thread.hpp"
   1:src/../h/_thread.hpp **** //
   2:src/../h/_thread.hpp **** // Created by os on 6/20/22.
   3:src/../h/_thread.hpp **** //
   4:src/../h/_thread.hpp **** 
   5:src/../h/_thread.hpp **** #ifndef PROJECT_BASE_V1_1__THREAD_HPP
   6:src/../h/_thread.hpp **** #define PROJECT_BASE_V1_1__THREAD_HPP
   7:src/../h/_thread.hpp **** 
   8:src/../h/_thread.hpp **** #include "../lib/hw.h"
   9:src/../h/_thread.hpp **** #include "Scheduler.hpp"
  10:src/../h/_thread.hpp **** #include "MemoryAllocator.hpp"
  11:src/../h/_thread.hpp **** 
  12:src/../h/_thread.hpp **** class _thread {
GAS LISTING /tmp/ccpWTA4I.s 			page 42


  13:src/../h/_thread.hpp **** public:
  14:src/../h/_thread.hpp ****     ~_thread() {
  15:src/../h/_thread.hpp ****         MemoryAllocator::kmem_free(stack);
  16:src/../h/_thread.hpp ****     }
  17:src/../h/_thread.hpp **** 
  18:src/../h/_thread.hpp ****     bool isFinished() const { return finished; }
  19:src/../h/_thread.hpp **** 
  20:src/../h/_thread.hpp ****     void setFinished(bool value) { finished = value; }
  21:src/../h/_thread.hpp **** 
  22:src/../h/_thread.hpp ****     uint64 getTimeSlice() const { return timeSlice; }
  23:src/../h/_thread.hpp **** 
  24:src/../h/_thread.hpp ****     using Body = void (*)(void*);   //Body is a pointer to a funtion that takes one argument
  25:src/../h/_thread.hpp **** 
  26:src/../h/_thread.hpp ****     static _thread *createThread(Body body, void* arg, uint64* stek);
  27:src/../h/_thread.hpp **** 
  28:src/../h/_thread.hpp ****     static void yield();
  29:src/../h/_thread.hpp **** 
  30:src/../h/_thread.hpp ****     void setDeblocked(){
  31:src/../h/_thread.hpp ****         deblocked = true;
 1456              		.loc 5 31 9
 1457              		.loc 5 31 19 is_stmt 0
 1458 0404 93071000 		li	a5,1
 1459 0408 230CF902 		sb	a5,56(s2)
 1460              	.LVL96:
 1461              	.LBE268:
 1462              	.LBE267:
 189:src/Riscv.cpp ****                 Scheduler::put(t);
 1463              		.loc 1 189 17 is_stmt 1
 189:src/Riscv.cpp ****                 Scheduler::put(t);
 1464              		.loc 1 189 22 is_stmt 0
 1465 040c 83A74400 		lw	a5,4(s1)
 189:src/Riscv.cpp ****                 Scheduler::put(t);
 1466              		.loc 1 189 25
 1467 0410 9B871700 		addiw	a5,a5,1
 1468 0414 23A2F400 		sw	a5,4(s1)
 190:src/Riscv.cpp ****             }
 1469              		.loc 1 190 17 is_stmt 1
 190:src/Riscv.cpp ****             }
 1470              		.loc 1 190 31 is_stmt 0
 1471 0418 13050900 		mv	a0,s2
 1472 041c 97000000 		call	_ZN9Scheduler3putEP7_thread@plt
 1472      E7800000 
 1473              	.LVL97:
 1474              	.L20:
 1475              	.LBE263:
 186:src/Riscv.cpp ****                 _thread* t = sem->blocked.removeFirst();
 1476              		.loc 1 186 13 is_stmt 1
 186:src/Riscv.cpp ****                 _thread* t = sem->blocked.removeFirst();
 1477              		.loc 1 186 43
 1478              	.LBB270:
 1479              	.LBB271:
  74:src/../h/List.hpp ****         return ret;
  75:src/../h/List.hpp ****     }
  76:src/../h/List.hpp **** 
  77:src/../h/List.hpp ****     T *peekFirst()
  78:src/../h/List.hpp ****     {
  79:src/../h/List.hpp ****         if (!head) { return 0; }
GAS LISTING /tmp/ccpWTA4I.s 			page 43


 1480              		.loc 4 79 14 is_stmt 0
 1481 0424 03B58400 		ld	a0,8(s1)
 1482              		.loc 4 79 9
 1483 0428 63000502 		beqz	a0,.L18
  80:src/../h/List.hpp ****         return head->data;
 1484              		.loc 4 80 22
 1485 042c 83370500 		ld	a5,0(a0)
 1486              	.LVL98:
 1487              	.LBE271:
 1488              	.LBE270:
 186:src/Riscv.cpp ****                 _thread* t = sem->blocked.removeFirst();
 1489              		.loc 1 186 43
 1490 0430 638C0700 		beqz	a5,.L18
 1491              	.LBB272:
 187:src/Riscv.cpp ****                 t->setDeblocked();
 1492              		.loc 1 187 17 is_stmt 1
 1493              	.LVL99:
 1494              	.LBB269:
 1495              	.LBB266:
  69:src/../h/List.hpp ****         if (!head) { tail = 0; }
 1496              		.loc 4 69 22 is_stmt 0
 1497 0434 83378500 		ld	a5,8(a0)
  69:src/../h/List.hpp ****         if (!head) { tail = 0; }
 1498              		.loc 4 69 9
 1499 0438 23B4F400 		sd	a5,8(s1)
  70:src/../h/List.hpp **** 
 1500              		.loc 4 70 9
 1501 043c E39E07FA 		bnez	a5,.L19
  70:src/../h/List.hpp **** 
 1502              		.loc 4 70 22
 1503 0440 23B80400 		sd	zero,16(s1)
 1504 0444 6FF05FFB 		j	.L19
 1505              	.LVL100:
 1506              	.L18:
 1507              	.LBE266:
 1508              	.LBE269:
 1509              	.LBE272:
 192:src/Riscv.cpp **** 
 1510              		.loc 1 192 14 is_stmt 1
 192:src/Riscv.cpp **** 
 1511              		.loc 1 192 25 is_stmt 0
 1512 0448 23800400 		sb	zero,0(s1)
 194:src/Riscv.cpp **** 
 1513              		.loc 1 194 13 is_stmt 1
 194:src/Riscv.cpp **** 
 1514              		.loc 1 194 23 is_stmt 0
 1515 044c 63880400 		beqz	s1,.L21
 194:src/Riscv.cpp **** 
 1516              		.loc 1 194 20 discriminator 1
 1517 0450 13850400 		mv	a0,s1
 1518 0454 97000000 		call	_ZN10KSemaphoredlEPv@plt
 1518      E7800000 
 1519              	.LVL101:
 1520              	.L21:
 196:src/Riscv.cpp ****             w_sepc(sepc);
 1521              		.loc 1 196 13 is_stmt 1
 1522              	.LBB273:
GAS LISTING /tmp/ccpWTA4I.s 			page 44


 1523              	.LBB274:
 192:src/../h/Riscv.hpp **** }
 1524              		.loc 2 192 5
 192:src/../h/Riscv.hpp **** }
 1525              		.loc 2 192 77 is_stmt 0
 1526              	#APP
 1527              	# 192 "src/../h/Riscv.hpp" 1
 1528              		csrw sstatus, s4
 1529              	# 0 "" 2
 1530              	.LVL102:
 1531              	#NO_APP
 1532              	.LBE274:
 1533              	.LBE273:
 197:src/Riscv.cpp ****         }
 1534              		.loc 1 197 13 is_stmt 1
 1535              	.LBB275:
 1536              	.LBB276:
 122:src/../h/Riscv.hpp **** }
 1537              		.loc 2 122 5
 122:src/../h/Riscv.hpp **** }
 1538              		.loc 2 122 65 is_stmt 0
 1539              	#APP
 1540              	# 122 "src/../h/Riscv.hpp" 1
 123:src/../h/Riscv.hpp **** 
 1541              		csrw sepc, s3
 1542              	# 0 "" 2
 1543              		.loc 2 123 1
 1544              	#NO_APP
 1545 0464 6FF05FC5 		j	.L3
 1546              	.LVL103:
 1547              	.L38:
 1548              	.LBE276:
 1549              	.LBE275:
 1550              	.LBE258:
 1551              	.LBB277:
 1552              	.LBB245:
 200:src/Riscv.cpp ****             uint64 sstatus = r_sstatus();
 1553              		.loc 1 200 13 is_stmt 1
 1554              	.LBB246:
 1555              	.LBB247:
 115:src/../h/Riscv.hpp ****     __asm__ volatile ("csrr %[sepc], sepc" : [sepc] "=r"(sepc));
 1556              		.loc 2 115 5
 116:src/../h/Riscv.hpp ****     return sepc;
 1557              		.loc 2 116 5
 116:src/../h/Riscv.hpp ****     return sepc;
 1558              		.loc 2 116 64 is_stmt 0
 1559              	#APP
 1560              	# 116 "src/../h/Riscv.hpp" 1
 1561              		csrr a5, sepc
 1562              	# 0 "" 2
 1563              	#NO_APP
 1564 046c 2334F4F8 		sd	a5,-120(s0)
 117:src/../h/Riscv.hpp **** }
 1565              		.loc 2 117 5 is_stmt 1
 117:src/../h/Riscv.hpp **** }
 1566              		.loc 2 117 12 is_stmt 0
 1567 0470 833484F8 		ld	s1,-120(s0)
GAS LISTING /tmp/ccpWTA4I.s 			page 45


 1568              	.LVL104:
 1569              	.LBE247:
 1570              	.LBE246:
 200:src/Riscv.cpp ****             uint64 sstatus = r_sstatus();
 1571              		.loc 1 200 38
 1572 0474 93844400 		addi	s1,s1,4
 1573              	.LVL105:
 201:src/Riscv.cpp **** 
 1574              		.loc 1 201 13 is_stmt 1
 1575              	.LBB248:
 1576              	.LBB249:
 185:src/../h/Riscv.hpp ****     __asm__ volatile ("csrr %[sstatus], sstatus" : [sstatus] "=r"(sstatus));
 1577              		.loc 2 185 5
 186:src/../h/Riscv.hpp ****     return sstatus;
 1578              		.loc 2 186 5
 186:src/../h/Riscv.hpp ****     return sstatus;
 1579              		.loc 2 186 76 is_stmt 0
 1580              	#APP
 1581              	# 186 "src/../h/Riscv.hpp" 1
 1582              		csrr a5, sstatus
 1583              	# 0 "" 2
 1584              	#NO_APP
 1585 047c 2330F4F8 		sd	a5,-128(s0)
 187:src/../h/Riscv.hpp **** }
 1586              		.loc 2 187 5 is_stmt 1
 187:src/../h/Riscv.hpp **** }
 1587              		.loc 2 187 12 is_stmt 0
 1588 0480 033904F8 		ld	s2,-128(s0)
 1589              	.LVL106:
 1590              	.LBE249:
 1591              	.LBE248:
 203:src/Riscv.cpp **** 
 1592              		.loc 1 203 13 is_stmt 1
 205:src/Riscv.cpp **** 
 1593              		.loc 1 205 13
 205:src/Riscv.cpp **** 
 1594              		.loc 1 205 48 is_stmt 0
 1595              	#APP
 1596              	# 205 "src/Riscv.cpp" 1
 207:src/Riscv.cpp **** 
 1597              		ld a1, 11*8(fp)
 1598              	# 0 "" 2
 1599              		.loc 1 207 13 is_stmt 1
 207:src/Riscv.cpp **** 
 1600              		.loc 1 207 56 is_stmt 0
 1601              	# 207 "src/Riscv.cpp" 1
 1602              		mv a0, a1
 1603              	# 0 "" 2
 1604              	.LVL107:
 209:src/Riscv.cpp **** //            KSemaphore* sem = *arg1;
 1605              		.loc 1 209 13 is_stmt 1
 212:src/Riscv.cpp **** 
 1606              		.loc 1 212 18
 212:src/Riscv.cpp **** 
 1607              		.loc 1 212 34 is_stmt 0
 1608              	#NO_APP
 1609 048c 97000000 		call	_ZN10KSemaphore4waitEv@plt
GAS LISTING /tmp/ccpWTA4I.s 			page 46


 1609      E7800000 
 1610              	.LVL108:
 214:src/Riscv.cpp **** 
 1611              		.loc 1 214 13 is_stmt 1
 214:src/Riscv.cpp **** 
 1612              		.loc 1 214 56 is_stmt 0
 1613              	#APP
 1614              	# 214 "src/Riscv.cpp" 1
 216:src/Riscv.cpp ****             w_sepc(sepc);
 1615              		mv a0, a0
 1616              	# 0 "" 2
 1617              		.loc 1 216 13 is_stmt 1
 1618              	.LVL109:
 1619              	#NO_APP
 1620              	.LBB250:
 1621              	.LBB251:
 192:src/../h/Riscv.hpp **** }
 1622              		.loc 2 192 5
 192:src/../h/Riscv.hpp **** }
 1623              		.loc 2 192 77 is_stmt 0
 1624              	#APP
 1625              	# 192 "src/../h/Riscv.hpp" 1
 1626              		csrw sstatus, s2
 1627              	# 0 "" 2
 1628              	.LVL110:
 1629              	#NO_APP
 1630              	.LBE251:
 1631              	.LBE250:
 217:src/Riscv.cpp ****         }
 1632              		.loc 1 217 13 is_stmt 1
 1633              	.LBB252:
 1634              	.LBB253:
 122:src/../h/Riscv.hpp **** }
 1635              		.loc 2 122 5
 122:src/../h/Riscv.hpp **** }
 1636              		.loc 2 122 65 is_stmt 0
 1637              	#APP
 1638              	# 122 "src/../h/Riscv.hpp" 1
 123:src/../h/Riscv.hpp **** 
 1639              		csrw sepc, s1
 1640              	# 0 "" 2
 1641              		.loc 2 123 1
 1642              	#NO_APP
 1643 04a0 6FF09FC1 		j	.L3
 1644              	.LVL111:
 1645              	.L39:
 1646              	.LBE253:
 1647              	.LBE252:
 1648              	.LBE245:
 1649              	.LBB254:
 1650              	.LBB233:
 220:src/Riscv.cpp ****             uint64 sstatus = r_sstatus();
 1651              		.loc 1 220 13 is_stmt 1
 1652              	.LBB234:
 1653              	.LBB235:
 115:src/../h/Riscv.hpp ****     __asm__ volatile ("csrr %[sepc], sepc" : [sepc] "=r"(sepc));
 1654              		.loc 2 115 5
GAS LISTING /tmp/ccpWTA4I.s 			page 47


 116:src/../h/Riscv.hpp ****     return sepc;
 1655              		.loc 2 116 5
 116:src/../h/Riscv.hpp ****     return sepc;
 1656              		.loc 2 116 64 is_stmt 0
 1657              	#APP
 1658              	# 116 "src/../h/Riscv.hpp" 1
 1659              		csrr a5, sepc
 1660              	# 0 "" 2
 1661              	#NO_APP
 1662 04a8 233CF4F8 		sd	a5,-104(s0)
 117:src/../h/Riscv.hpp **** }
 1663              		.loc 2 117 5 is_stmt 1
 117:src/../h/Riscv.hpp **** }
 1664              		.loc 2 117 12 is_stmt 0
 1665 04ac 833484F9 		ld	s1,-104(s0)
 1666              	.LVL112:
 1667              	.LBE235:
 1668              	.LBE234:
 220:src/Riscv.cpp ****             uint64 sstatus = r_sstatus();
 1669              		.loc 1 220 38
 1670 04b0 93844400 		addi	s1,s1,4
 1671              	.LVL113:
 221:src/Riscv.cpp **** 
 1672              		.loc 1 221 13 is_stmt 1
 1673              	.LBB236:
 1674              	.LBB237:
 185:src/../h/Riscv.hpp ****     __asm__ volatile ("csrr %[sstatus], sstatus" : [sstatus] "=r"(sstatus));
 1675              		.loc 2 185 5
 186:src/../h/Riscv.hpp ****     return sstatus;
 1676              		.loc 2 186 5
 186:src/../h/Riscv.hpp ****     return sstatus;
 1677              		.loc 2 186 76 is_stmt 0
 1678              	#APP
 1679              	# 186 "src/../h/Riscv.hpp" 1
 1680              		csrr a5, sstatus
 1681              	# 0 "" 2
 1682              	#NO_APP
 1683 04b8 2338F4F8 		sd	a5,-112(s0)
 187:src/../h/Riscv.hpp **** }
 1684              		.loc 2 187 5 is_stmt 1
 187:src/../h/Riscv.hpp **** }
 1685              		.loc 2 187 12 is_stmt 0
 1686 04bc 033904F9 		ld	s2,-112(s0)
 1687              	.LVL114:
 1688              	.LBE237:
 1689              	.LBE236:
 223:src/Riscv.cpp **** 
 1690              		.loc 1 223 13 is_stmt 1
 225:src/Riscv.cpp **** 
 1691              		.loc 1 225 13
 225:src/Riscv.cpp **** 
 1692              		.loc 1 225 48 is_stmt 0
 1693              	#APP
 1694              	# 225 "src/Riscv.cpp" 1
 227:src/Riscv.cpp **** 
 1695              		ld a1, 11*8(fp)
 1696              	# 0 "" 2
GAS LISTING /tmp/ccpWTA4I.s 			page 48


 1697              		.loc 1 227 13 is_stmt 1
 227:src/Riscv.cpp **** 
 1698              		.loc 1 227 56 is_stmt 0
 1699              	# 227 "src/Riscv.cpp" 1
 1700              		mv a0, a1
 1701              	# 0 "" 2
 1702              	.LVL115:
 229:src/Riscv.cpp **** 
 1703              		.loc 1 229 13 is_stmt 1
 231:src/Riscv.cpp ****                 ret=0;
 1704              		.loc 1 231 17
 231:src/Riscv.cpp ****                 ret=0;
 1705              		.loc 1 231 29 is_stmt 0
 1706              	#NO_APP
 1707 04c8 97000000 		call	_ZN10KSemaphore6signalEv@plt
 1707      E7800000 
 1708              	.LVL116:
 232:src/Riscv.cpp **** 
 1709              		.loc 1 232 17 is_stmt 1
 235:src/Riscv.cpp **** 
 1710              		.loc 1 235 13
 235:src/Riscv.cpp **** 
 1711              		.loc 1 235 56 is_stmt 0
 1712 04d0 93070000 		li	a5,0
 1713              	#APP
 1714              	# 235 "src/Riscv.cpp" 1
 237:src/Riscv.cpp ****             w_sepc(sepc);
 1715              		mv a0, a5
 1716              	# 0 "" 2
 1717              		.loc 1 237 13 is_stmt 1
 1718              	.LVL117:
 1719              	#NO_APP
 1720              	.LBB238:
 1721              	.LBB239:
 192:src/../h/Riscv.hpp **** }
 1722              		.loc 2 192 5
 192:src/../h/Riscv.hpp **** }
 1723              		.loc 2 192 77 is_stmt 0
 1724              	#APP
 1725              	# 192 "src/../h/Riscv.hpp" 1
 1726              		csrw sstatus, s2
 1727              	# 0 "" 2
 1728              	.LVL118:
 1729              	#NO_APP
 1730              	.LBE239:
 1731              	.LBE238:
 238:src/Riscv.cpp ****         }
 1732              		.loc 1 238 13 is_stmt 1
 1733              	.LBB240:
 1734              	.LBB241:
 122:src/../h/Riscv.hpp **** }
 1735              		.loc 2 122 5
 122:src/../h/Riscv.hpp **** }
 1736              		.loc 2 122 65 is_stmt 0
 1737              	#APP
 1738              	# 122 "src/../h/Riscv.hpp" 1
 123:src/../h/Riscv.hpp **** 
GAS LISTING /tmp/ccpWTA4I.s 			page 49


 1739              		csrw sepc, s1
 1740              	# 0 "" 2
 1741              		.loc 2 123 1
 1742              	#NO_APP
 1743 04e0 6FF09FBD 		j	.L3
 1744              	.LVL119:
 1745              	.L40:
 1746              	.LBE241:
 1747              	.LBE240:
 1748              	.LBE233:
 1749              	.LBB242:
 1750              	.LBB219:
 241:src/Riscv.cpp ****             uint64 sstatus = r_sstatus();
 1751              		.loc 1 241 13 is_stmt 1
 1752              	.LBB220:
 1753              	.LBB221:
 115:src/../h/Riscv.hpp ****     __asm__ volatile ("csrr %[sepc], sepc" : [sepc] "=r"(sepc));
 1754              		.loc 2 115 5
 116:src/../h/Riscv.hpp ****     return sepc;
 1755              		.loc 2 116 5
 116:src/../h/Riscv.hpp ****     return sepc;
 1756              		.loc 2 116 64 is_stmt 0
 1757              	#APP
 1758              	# 116 "src/../h/Riscv.hpp" 1
 1759              		csrr a5, sepc
 1760              	# 0 "" 2
 1761              	#NO_APP
 1762 04e8 2334F4FA 		sd	a5,-88(s0)
 117:src/../h/Riscv.hpp **** }
 1763              		.loc 2 117 5 is_stmt 1
 117:src/../h/Riscv.hpp **** }
 1764              		.loc 2 117 12 is_stmt 0
 1765 04ec 833484FA 		ld	s1,-88(s0)
 1766              	.LVL120:
 1767              	.LBE221:
 1768              	.LBE220:
 241:src/Riscv.cpp ****             uint64 sstatus = r_sstatus();
 1769              		.loc 1 241 38
 1770 04f0 93844400 		addi	s1,s1,4
 1771              	.LVL121:
 242:src/Riscv.cpp **** 
 1772              		.loc 1 242 13 is_stmt 1
 1773              	.LBB222:
 1774              	.LBB223:
 185:src/../h/Riscv.hpp ****     __asm__ volatile ("csrr %[sstatus], sstatus" : [sstatus] "=r"(sstatus));
 1775              		.loc 2 185 5
 186:src/../h/Riscv.hpp ****     return sstatus;
 1776              		.loc 2 186 5
 186:src/../h/Riscv.hpp ****     return sstatus;
 1777              		.loc 2 186 76 is_stmt 0
 1778              	#APP
 1779              	# 186 "src/../h/Riscv.hpp" 1
 1780              		csrr a5, sstatus
 1781              	# 0 "" 2
 1782              	#NO_APP
 1783 04f8 2330F4FA 		sd	a5,-96(s0)
 187:src/../h/Riscv.hpp **** }
GAS LISTING /tmp/ccpWTA4I.s 			page 50


 1784              		.loc 2 187 5 is_stmt 1
 187:src/../h/Riscv.hpp **** }
 1785              		.loc 2 187 12 is_stmt 0
 1786 04fc 033904FA 		ld	s2,-96(s0)
 1787              	.LVL122:
 1788              	.LBE223:
 1789              	.LBE222:
 245:src/Riscv.cpp ****             char c = __getc();
 1790              		.loc 1 245 13 is_stmt 1
 245:src/Riscv.cpp ****             char c = __getc();
 1791              		.loc 1 245 27 is_stmt 0
 1792 0500 97070000 		la	a5,_ZN5Riscv11TrapConsoleEv
 1792      83B70700 
 1793              	.LVL123:
 1794              	.LBB224:
 1795              	.LBB225:
 134:src/../h/Riscv.hpp **** }
 1796              		.loc 2 134 5 is_stmt 1
 134:src/../h/Riscv.hpp **** }
 1797              		.loc 2 134 69 is_stmt 0
 1798              	#APP
 1799              	# 134 "src/../h/Riscv.hpp" 1
 1800              		csrw stvec, a5
 1801              	# 0 "" 2
 1802              	.LVL124:
 1803              	#NO_APP
 1804              	.LBE225:
 1805              	.LBE224:
 246:src/Riscv.cpp ****             Riscv::w_stvec((uint64)&Riscv::supervisorTrap);
 1806              		.loc 1 246 13 is_stmt 1
 246:src/Riscv.cpp ****             Riscv::w_stvec((uint64)&Riscv::supervisorTrap);
 1807              		.loc 1 246 28 is_stmt 0
 1808 050c 97000000 		call	__getc@plt
 1808      E7800000 
 1809              	.LVL125:
 247:src/Riscv.cpp **** 
 1810              		.loc 1 247 13 is_stmt 1
 247:src/Riscv.cpp **** 
 1811              		.loc 1 247 27 is_stmt 0
 1812 0514 97070000 		la	a5,_ZN5Riscv14supervisorTrapEv
 1812      83B70700 
 1813              	.LVL126:
 1814              	.LBB226:
 1815              	.LBB227:
 134:src/../h/Riscv.hpp **** }
 1816              		.loc 2 134 5 is_stmt 1
 134:src/../h/Riscv.hpp **** }
 1817              		.loc 2 134 69 is_stmt 0
 1818              	#APP
 1819              	# 134 "src/../h/Riscv.hpp" 1
 1820              		csrw stvec, a5
 1821              	# 0 "" 2
 1822              	.LVL127:
 1823              	#NO_APP
 1824              	.LBE227:
 1825              	.LBE226:
 249:src/Riscv.cpp **** 
GAS LISTING /tmp/ccpWTA4I.s 			page 51


 1826              		.loc 1 249 13 is_stmt 1
 249:src/Riscv.cpp **** 
 1827              		.loc 1 249 54 is_stmt 0
 1828              	#APP
 1829              	# 249 "src/Riscv.cpp" 1
 252:src/Riscv.cpp ****             w_sepc(sepc);
 1830              		mv a0, a0
 1831              	# 0 "" 2
 1832              		.loc 1 252 13 is_stmt 1
 1833              	.LVL128:
 1834              	#NO_APP
 1835              	.LBB228:
 1836              	.LBB229:
 192:src/../h/Riscv.hpp **** }
 1837              		.loc 2 192 5
 192:src/../h/Riscv.hpp **** }
 1838              		.loc 2 192 77 is_stmt 0
 1839              	#APP
 1840              	# 192 "src/../h/Riscv.hpp" 1
 1841              		csrw sstatus, s2
 1842              	# 0 "" 2
 1843              	.LVL129:
 1844              	#NO_APP
 1845              	.LBE229:
 1846              	.LBE228:
 253:src/Riscv.cpp ****         }
 1847              		.loc 1 253 13 is_stmt 1
 1848              	.LBB230:
 1849              	.LBB231:
 122:src/../h/Riscv.hpp **** }
 1850              		.loc 2 122 5
 122:src/../h/Riscv.hpp **** }
 1851              		.loc 2 122 65 is_stmt 0
 1852              	#APP
 1853              	# 122 "src/../h/Riscv.hpp" 1
 123:src/../h/Riscv.hpp **** 
 1854              		csrw sepc, s1
 1855              	# 0 "" 2
 1856              		.loc 2 123 1
 1857              	#NO_APP
 1858 052c 6FF0DFB8 		j	.L3
 1859              	.LBE231:
 1860              	.LBE230:
 1861              	.LBE219:
 1862              	.LBE242:
 1863              	.LBE254:
 1864              	.LBE277:
 1865              	.LBE295:
 1866              	.LBE310:
 1867              	.LBE326:
 1868              	.LBE343:
 1869              	.LBE361:
 1870              	.LBE380:
 1871              	.LBE392:
 1872              	.LBE405:
 1873              	.LBE419:
 1874              	.LBE436:
GAS LISTING /tmp/ccpWTA4I.s 			page 52


 1875              	.LBE452:
 1876              		.cfi_endproc
 1877              	.LFE53:
 1879              		.align	2
 1880              		.globl	_ZN5Riscv17handleTrapConsoleEv
 1882              	_ZN5Riscv17handleTrapConsoleEv:
 1883              	.LFB54:
 278:src/Riscv.cpp **** 
 279:src/Riscv.cpp **** 
 280:src/Riscv.cpp **** void Riscv::handleTrapConsole() {
 1884              		.loc 1 280 33 is_stmt 1
 1885              		.cfi_startproc
 1886 0530 130101FE 		addi	sp,sp,-32
 1887              		.cfi_def_cfa_offset 32
 1888 0534 233C1100 		sd	ra,24(sp)
 1889 0538 23388100 		sd	s0,16(sp)
 1890              		.cfi_offset 1, -8
 1891              		.cfi_offset 8, -16
 1892 053c 13040102 		addi	s0,sp,32
 1893              		.cfi_def_cfa 8, 0
 281:src/Riscv.cpp ****     uint64 scause = r_scause();
 1894              		.loc 1 281 5
 1895              	.LBB453:
 1896              	.LBB454:
 103:src/../h/Riscv.hpp ****     __asm__ volatile ("csrr %[scause], scause" : [scause] "=r"(scause));
 1897              		.loc 2 103 5
 104:src/../h/Riscv.hpp ****     return scause;
 1898              		.loc 2 104 5
 104:src/../h/Riscv.hpp ****     return scause;
 1899              		.loc 2 104 72 is_stmt 0
 1900              	#APP
 1901              	# 104 "src/../h/Riscv.hpp" 1
 1902              		csrr a5, scause
 1903              	# 0 "" 2
 1904              	#NO_APP
 1905 0544 2334F4FE 		sd	a5,-24(s0)
 105:src/../h/Riscv.hpp **** }
 1906              		.loc 2 105 5 is_stmt 1
 105:src/../h/Riscv.hpp **** }
 1907              		.loc 2 105 12 is_stmt 0
 1908 0548 033784FE 		ld	a4,-24(s0)
 1909              	.LVL130:
 1910              	.LBE454:
 1911              	.LBE453:
 282:src/Riscv.cpp ****     if (scause == 0x8000000000000009UL) {
 1912              		.loc 1 282 5 is_stmt 1
 1913 054c 9307F0FF 		li	a5,-1
 1914 0550 9397F703 		slli	a5,a5,63
 1915 0554 93879700 		addi	a5,a5,9
 1916 0558 6302F702 		beq	a4,a5,.L45
 283:src/Riscv.cpp ****         console_handler();
 284:src/Riscv.cpp ****         mc_sip(SIP_SEIP);
 285:src/Riscv.cpp ****     } else if (scause == 0x8000000000000001UL) {
 1917              		.loc 1 285 12
 1918 055c 9307F0FF 		li	a5,-1
 1919 0560 9397F703 		slli	a5,a5,63
 1920 0564 93871700 		addi	a5,a5,1
GAS LISTING /tmp/ccpWTA4I.s 			page 53


 1921 0568 6304F702 		beq	a4,a5,.L46
 1922              	.LVL131:
 1923              	.L41:
 286:src/Riscv.cpp ****         mc_sip(SIP_SSIP);
 287:src/Riscv.cpp ****     }
 288:src/Riscv.cpp **** 
 289:src/Riscv.cpp **** }
 1924              		.loc 1 289 1 is_stmt 0
 1925 056c 83308101 		ld	ra,24(sp)
 1926              		.cfi_remember_state
 1927              		.cfi_restore 1
 1928 0570 03340101 		ld	s0,16(sp)
 1929              		.cfi_restore 8
 1930              		.cfi_def_cfa 2, 32
 1931 0574 13010102 		addi	sp,sp,32
 1932              		.cfi_def_cfa_offset 0
 1933 0578 67800000 		jr	ra
 1934              	.LVL132:
 1935              	.L45:
 1936              		.cfi_restore_state
 283:src/Riscv.cpp ****         console_handler();
 1937              		.loc 1 283 9 is_stmt 1
 283:src/Riscv.cpp ****         console_handler();
 1938              		.loc 1 283 24 is_stmt 0
 1939 057c 97000000 		call	console_handler@plt
 1939      E7800000 
 1940              	.LVL133:
 284:src/Riscv.cpp ****     } else if (scause == 0x8000000000000001UL) {
 1941              		.loc 1 284 9 is_stmt 1
 1942              	.LBB455:
 1943              	.LBB456:
 156:src/../h/Riscv.hpp **** }
 1944              		.loc 2 156 5
 156:src/../h/Riscv.hpp **** }
 1945              		.loc 2 156 64 is_stmt 0
 1946 0584 93070020 		li	a5,512
 1947              	#APP
 1948              	# 156 "src/../h/Riscv.hpp" 1
 157:src/../h/Riscv.hpp **** 
 1949              		csrc sip, a5
 1950              	# 0 "" 2
 1951              		.loc 2 157 1
 1952              	#NO_APP
 1953 058c 6FF01FFE 		j	.L41
 1954              	.LVL134:
 1955              	.L46:
 1956              	.LBE456:
 1957              	.LBE455:
 286:src/Riscv.cpp ****     }
 1958              		.loc 1 286 9 is_stmt 1
 1959              	.LBB457:
 1960              	.LBB458:
 156:src/../h/Riscv.hpp **** }
 1961              		.loc 2 156 5
 156:src/../h/Riscv.hpp **** }
 1962              		.loc 2 156 64 is_stmt 0
 1963 0590 93072000 		li	a5,2
GAS LISTING /tmp/ccpWTA4I.s 			page 54


 1964              	#APP
 1965              	# 156 "src/../h/Riscv.hpp" 1
 1966              		csrc sip, a5
 1967              	# 0 "" 2
 1968              	.LVL135:
 1969              	#NO_APP
 1970              	.LBE458:
 1971              	.LBE457:
 1972              		.loc 1 289 1
 1973 0598 6FF05FFD 		j	.L41
 1974              		.cfi_endproc
 1975              	.LFE54:
 1977              		.globl	_ZN5Riscv7enteredE
 1978              		.globl	_ZN5Riscv9privilegeE
 1979              		.bss
 1980              		.set	.LANCHOR0,. + 0
 1983              	_ZN5Riscv9privilegeE:
 1984 0000 00       		.zero	1
 1987              	_ZN5Riscv7enteredE:
 1988 0001 00       		.zero	1
 1989              		.text
 1990              	.Letext0:
 1991              		.file 6 "src/../h/../lib/hw.h"
 1992              		.file 7 "src/../h/DoublyLinkedList.hpp"
 1993              		.file 8 "src/../h/MemoryAllocator.hpp"
 1994              		.file 9 "src/../h/Scheduler.hpp"
 1995              		.file 10 "src/../h/../lib/console.h"
GAS LISTING /tmp/ccpWTA4I.s 			page 55


DEFINED SYMBOLS
                            *ABS*:0000000000000000 Riscv.cpp
     /tmp/ccpWTA4I.s:9      .text:0000000000000000 _ZN5Riscv10popSppSpieEv
     /tmp/ccpWTA4I.s:13     .text:0000000000000000 .L0 
     /tmp/ccpWTA4I.s:14     .text:0000000000000000 .L0 
     /tmp/ccpWTA4I.s:15     .text:0000000000000004 .L0 
     /tmp/ccpWTA4I.s:17     .text:0000000000000008 .L0 
     /tmp/ccpWTA4I.s:19     .text:000000000000000c .L0 
     /tmp/ccpWTA4I.s:21     .text:000000000000000c .L0 
       src/Riscv.cpp:16     .text:000000000000000c .L0 
     /tmp/ccpWTA4I.s:32     .text:0000000000000010 .L0 
     /tmp/ccpWTA4I.s:33     .text:0000000000000010 .L0 
     /tmp/ccpWTA4I.s:34     .text:0000000000000010 .L0 
     /tmp/ccpWTA4I.s:44     .text:0000000000000018 .L0 
       src/Riscv.cpp:18     .text:0000000000000018 .L0 
     /tmp/ccpWTA4I.s:51     .text:000000000000001c .L0 
     /tmp/ccpWTA4I.s:52     .text:0000000000000020 .L0 
     /tmp/ccpWTA4I.s:53     .text:0000000000000020 .L0 
     /tmp/ccpWTA4I.s:55     .text:0000000000000024 .L0 
     /tmp/ccpWTA4I.s:57     .text:0000000000000028 .L0 
     /tmp/ccpWTA4I.s:63     .text:0000000000000028 _ZN5Riscv20handleSupervisorTrapEv
     /tmp/ccpWTA4I.s:66     .text:0000000000000028 .L0 
     /tmp/ccpWTA4I.s:67     .text:0000000000000028 .L0 
     /tmp/ccpWTA4I.s:68     .text:000000000000002c .L0 
     /tmp/ccpWTA4I.s:77     .text:000000000000004c .L0 
     /tmp/ccpWTA4I.s:78     .text:000000000000004c .L0 
     /tmp/ccpWTA4I.s:79     .text:000000000000004c .L0 
     /tmp/ccpWTA4I.s:80     .text:000000000000004c .L0 
     /tmp/ccpWTA4I.s:81     .text:000000000000004c .L0 
     /tmp/ccpWTA4I.s:82     .text:000000000000004c .L0 
     /tmp/ccpWTA4I.s:83     .text:000000000000004c .L0 
     /tmp/ccpWTA4I.s:84     .text:000000000000004c .L0 
     /tmp/ccpWTA4I.s:86     .text:0000000000000050 .L0 
     /tmp/ccpWTA4I.s:90     .text:0000000000000050 .L0 
     /tmp/ccpWTA4I.s:91     .text:0000000000000050 .L0 
     /tmp/ccpWTA4I.s:92     .text:0000000000000050 .L0 
  src/../h/Riscv.hpp:104    .text:0000000000000050 .L0 
     /tmp/ccpWTA4I.s:100    .text:0000000000000058 .L0 
     /tmp/ccpWTA4I.s:101    .text:0000000000000058 .L0 
     /tmp/ccpWTA4I.s:106    .text:000000000000005c .L0 
     /tmp/ccpWTA4I.s:107    .text:000000000000005c .L0 
     /tmp/ccpWTA4I.s:108    .text:000000000000005c .L0 
       src/Riscv.cpp:28     .text:000000000000005c .L0 
     /tmp/ccpWTA4I.s:117    .text:0000000000000060 .L0 
     /tmp/ccpWTA4I.s:125    .text:0000000000000070 .L0 
     /tmp/ccpWTA4I.s:126    .text:0000000000000070 .L0 
     /tmp/ccpWTA4I.s:128    .text:0000000000000078 .L0 
     /tmp/ccpWTA4I.s:133    .text:000000000000007c .L0 
     /tmp/ccpWTA4I.s:134    .text:000000000000007c .L0 
     /tmp/ccpWTA4I.s:135    .text:000000000000007c .L0 
  src/../h/Riscv.hpp:116    .text:000000000000007c .L0 
     /tmp/ccpWTA4I.s:143    .text:0000000000000084 .L0 
     /tmp/ccpWTA4I.s:144    .text:0000000000000084 .L0 
     /tmp/ccpWTA4I.s:151    .text:0000000000000088 .L0 
     /tmp/ccpWTA4I.s:152    .text:0000000000000088 .L0 
     /tmp/ccpWTA4I.s:153    .text:0000000000000088 .L0 
     /tmp/ccpWTA4I.s:164    .text:0000000000000090 .L0 
GAS LISTING /tmp/ccpWTA4I.s 			page 56


     /tmp/ccpWTA4I.s:165    .text:0000000000000090 .L0 
     /tmp/ccpWTA4I.s:169    .text:00000000000000a0 .L0 
     /tmp/ccpWTA4I.s:170    .text:00000000000000a0 .L0 
     /tmp/ccpWTA4I.s:172    .text:00000000000000a4 .L0 
     /tmp/ccpWTA4I.s:173    .text:00000000000000a4 .L0 
     /tmp/ccpWTA4I.s:178    .text:00000000000000a8 .L0 
  src/../h/Riscv.hpp:122    .text:00000000000000a8 .L0 
     /tmp/ccpWTA4I.s:185    .text:00000000000000ac .L0 
     /tmp/ccpWTA4I.s:195    .text:00000000000000b0 .L0 
     /tmp/ccpWTA4I.s:196    .text:00000000000000b0 .L0 
     /tmp/ccpWTA4I.s:197    .text:00000000000000b0 .L0 
     /tmp/ccpWTA4I.s:209    .text:00000000000000b8 .L0 
     /tmp/ccpWTA4I.s:210    .text:00000000000000bc .L0 
     /tmp/ccpWTA4I.s:211    .text:00000000000000bc .L0 
     /tmp/ccpWTA4I.s:213    .text:00000000000000c0 .L0 
     /tmp/ccpWTA4I.s:214    .text:00000000000000c0 .L0 
     /tmp/ccpWTA4I.s:216    .text:00000000000000c4 .L0 
     /tmp/ccpWTA4I.s:218    .text:00000000000000c8 .L0 
     /tmp/ccpWTA4I.s:220    .text:00000000000000cc .L0 
     /tmp/ccpWTA4I.s:222    .text:00000000000000d0 .L0 
     /tmp/ccpWTA4I.s:224    .text:00000000000000d4 .L0 
     /tmp/ccpWTA4I.s:226    .text:00000000000000d8 .L0 
     /tmp/ccpWTA4I.s:228    .text:00000000000000dc .L0 
     /tmp/ccpWTA4I.s:232    .text:00000000000000e0 .L0 
     /tmp/ccpWTA4I.s:237    .text:00000000000000e0 .L0 
     /tmp/ccpWTA4I.s:249    .text:00000000000000f0 .L0 
     /tmp/ccpWTA4I.s:250    .text:00000000000000f0 .L0 
     /tmp/ccpWTA4I.s:253    .text:00000000000000f4 .L0 
     /tmp/ccpWTA4I.s:265    .text:00000000000000fc .L0 
     /tmp/ccpWTA4I.s:280    .text:0000000000000104 .L0 
     /tmp/ccpWTA4I.s:294    .text:000000000000010c .L0 
     /tmp/ccpWTA4I.s:310    .text:0000000000000114 .L0 
     /tmp/ccpWTA4I.s:328    .text:000000000000011c .L0 
     /tmp/ccpWTA4I.s:348    .text:0000000000000124 .L0 
     /tmp/ccpWTA4I.s:370    .text:000000000000012c .L0 
     /tmp/ccpWTA4I.s:394    .text:0000000000000134 .L0 
     /tmp/ccpWTA4I.s:420    .text:000000000000013c .L0 
     /tmp/ccpWTA4I.s:448    .text:0000000000000144 .L0 
     /tmp/ccpWTA4I.s:478    .text:000000000000014c .L0 
     /tmp/ccpWTA4I.s:510    .text:0000000000000154 .L0 
     /tmp/ccpWTA4I.s:516    .text:000000000000015c .L0 
     /tmp/ccpWTA4I.s:517    .text:000000000000015c .L0 
     /tmp/ccpWTA4I.s:518    .text:000000000000015c .L0 
  src/../h/Riscv.hpp:116    .text:000000000000015c .L0 
     /tmp/ccpWTA4I.s:526    .text:0000000000000164 .L0 
     /tmp/ccpWTA4I.s:527    .text:0000000000000164 .L0 
     /tmp/ccpWTA4I.s:532    .text:0000000000000168 .L0 
     /tmp/ccpWTA4I.s:537    .text:000000000000016c .L0 
     /tmp/ccpWTA4I.s:538    .text:000000000000016c .L0 
     /tmp/ccpWTA4I.s:539    .text:000000000000016c .L0 
  src/../h/Riscv.hpp:186    .text:000000000000016c .L0 
     /tmp/ccpWTA4I.s:547    .text:0000000000000174 .L0 
     /tmp/ccpWTA4I.s:548    .text:0000000000000174 .L0 
     /tmp/ccpWTA4I.s:553    .text:0000000000000178 .L0 
     /tmp/ccpWTA4I.s:554    .text:0000000000000178 .L0 
       src/Riscv.cpp:260    .text:0000000000000178 .L0 
     /tmp/ccpWTA4I.s:560    .text:000000000000017c .L0 
GAS LISTING /tmp/ccpWTA4I.s 			page 57


       src/Riscv.cpp:262    .text:000000000000017c .L0 
     /tmp/ccpWTA4I.s:568    .text:0000000000000184 .L0 
     /tmp/ccpWTA4I.s:569    .text:0000000000000184 .L0 
     /tmp/ccpWTA4I.s:574    .text:000000000000018c .L0 
  src/../h/Riscv.hpp:134    .text:000000000000018c .L0 
     /tmp/ccpWTA4I.s:584    .text:0000000000000190 .L0 
     /tmp/ccpWTA4I.s:585    .text:0000000000000190 .L0 
     /tmp/ccpWTA4I.s:588    .text:0000000000000198 .L0 
     /tmp/ccpWTA4I.s:589    .text:0000000000000198 .L0 
     /tmp/ccpWTA4I.s:594    .text:00000000000001a0 .L0 
  src/../h/Riscv.hpp:134    .text:00000000000001a0 .L0 
     /tmp/ccpWTA4I.s:606    .text:00000000000001a4 .L0 
     /tmp/ccpWTA4I.s:607    .text:00000000000001a4 .L0 
  src/../h/Riscv.hpp:192    .text:00000000000001a4 .L0 
     /tmp/ccpWTA4I.s:619    .text:00000000000001a8 .L0 
     /tmp/ccpWTA4I.s:620    .text:00000000000001a8 .L0 
  src/../h/Riscv.hpp:122    .text:00000000000001a8 .L0 
     /tmp/ccpWTA4I.s:646    .text:00000000000001ac .L0 
     /tmp/ccpWTA4I.s:653    .text:00000000000001b0 .L0 
     /tmp/ccpWTA4I.s:654    .text:00000000000001b0 .L0 
     /tmp/ccpWTA4I.s:665    .text:00000000000001bc .L0 
     /tmp/ccpWTA4I.s:666    .text:00000000000001bc .L0 
     /tmp/ccpWTA4I.s:667    .text:00000000000001bc .L0 
  src/../h/Riscv.hpp:116    .text:00000000000001bc .L0 
     /tmp/ccpWTA4I.s:675    .text:00000000000001c4 .L0 
     /tmp/ccpWTA4I.s:676    .text:00000000000001c4 .L0 
     /tmp/ccpWTA4I.s:680    .text:00000000000001c8 .L0 
     /tmp/ccpWTA4I.s:685    .text:00000000000001cc .L0 
     /tmp/ccpWTA4I.s:686    .text:00000000000001cc .L0 
     /tmp/ccpWTA4I.s:687    .text:00000000000001cc .L0 
  src/../h/Riscv.hpp:186    .text:00000000000001cc .L0 
     /tmp/ccpWTA4I.s:695    .text:00000000000001d4 .L0 
     /tmp/ccpWTA4I.s:696    .text:00000000000001d4 .L0 
     /tmp/ccpWTA4I.s:701    .text:00000000000001d8 .L0 
     /tmp/ccpWTA4I.s:702    .text:00000000000001d8 .L0 
     /tmp/ccpWTA4I.s:703    .text:00000000000001d8 .L0 
     /tmp/ccpWTA4I.s:704    .text:00000000000001d8 .L0 
       src/Riscv.cpp:58     .text:00000000000001d8 .L0 
     /tmp/ccpWTA4I.s:710    .text:00000000000001dc .L0 
       src/Riscv.cpp:59     .text:00000000000001dc .L0 
     /tmp/ccpWTA4I.s:715    .text:00000000000001e0 .L0 
       src/Riscv.cpp:60     .text:00000000000001e0 .L0 
     /tmp/ccpWTA4I.s:720    .text:00000000000001e4 .L0 
       src/Riscv.cpp:63     .text:00000000000001e4 .L0 
     /tmp/ccpWTA4I.s:726    .text:00000000000001e8 .L0 
       src/Riscv.cpp:64     .text:00000000000001e8 .L0 
     /tmp/ccpWTA4I.s:732    .text:00000000000001ec .L0 
       src/Riscv.cpp:65     .text:00000000000001ec .L0 
     /tmp/ccpWTA4I.s:738    .text:00000000000001f0 .L0 
     /tmp/ccpWTA4I.s:740    .text:00000000000001f0 .L0 
     /tmp/ccpWTA4I.s:746    .text:0000000000000200 .L0 
     /tmp/ccpWTA4I.s:747    .text:0000000000000200 .L0 
     /tmp/ccpWTA4I.s:753    .text:0000000000000210 .L0 
     /tmp/ccpWTA4I.s:754    .text:0000000000000210 .L0 
     /tmp/ccpWTA4I.s:756    .text:0000000000000214 .L0 
     /tmp/ccpWTA4I.s:757    .text:0000000000000214 .L0 
     /tmp/ccpWTA4I.s:759    .text:0000000000000218 .L0 
GAS LISTING /tmp/ccpWTA4I.s 			page 58


     /tmp/ccpWTA4I.s:763    .text:000000000000021c .L0 
       src/Riscv.cpp:78     .text:000000000000021c .L0 
     /tmp/ccpWTA4I.s:773    .text:0000000000000220 .L0 
     /tmp/ccpWTA4I.s:774    .text:0000000000000220 .L0 
  src/../h/Riscv.hpp:192    .text:0000000000000220 .L0 
     /tmp/ccpWTA4I.s:786    .text:0000000000000224 .L0 
     /tmp/ccpWTA4I.s:787    .text:0000000000000224 .L0 
  src/../h/Riscv.hpp:122    .text:0000000000000224 .L0 
     /tmp/ccpWTA4I.s:794    .text:0000000000000228 .L0 
     /tmp/ccpWTA4I.s:800    .text:000000000000022c .L0 
     /tmp/ccpWTA4I.s:811    .text:0000000000000234 .L0 
     /tmp/ccpWTA4I.s:812    .text:0000000000000234 .L0 
     /tmp/ccpWTA4I.s:813    .text:0000000000000234 .L0 
  src/../h/Riscv.hpp:116    .text:0000000000000234 .L0 
     /tmp/ccpWTA4I.s:821    .text:000000000000023c .L0 
     /tmp/ccpWTA4I.s:822    .text:000000000000023c .L0 
     /tmp/ccpWTA4I.s:827    .text:0000000000000240 .L0 
     /tmp/ccpWTA4I.s:832    .text:0000000000000244 .L0 
     /tmp/ccpWTA4I.s:833    .text:0000000000000244 .L0 
     /tmp/ccpWTA4I.s:834    .text:0000000000000244 .L0 
  src/../h/Riscv.hpp:186    .text:0000000000000244 .L0 
     /tmp/ccpWTA4I.s:842    .text:000000000000024c .L0 
     /tmp/ccpWTA4I.s:843    .text:000000000000024c .L0 
     /tmp/ccpWTA4I.s:848    .text:0000000000000250 .L0 
       src/Riscv.cpp:87     .text:0000000000000250 .L0 
     /tmp/ccpWTA4I.s:854    .text:0000000000000254 .L0 
       src/Riscv.cpp:89     .text:0000000000000254 .L0 
     /tmp/ccpWTA4I.s:860    .text:0000000000000258 .L0 
     /tmp/ccpWTA4I.s:862    .text:0000000000000258 .L0 
     /tmp/ccpWTA4I.s:867    .text:0000000000000264 .L0 
       src/Riscv.cpp:93     .text:0000000000000264 .L0 
     /tmp/ccpWTA4I.s:877    .text:0000000000000268 .L0 
     /tmp/ccpWTA4I.s:878    .text:0000000000000268 .L0 
  src/../h/Riscv.hpp:192    .text:0000000000000268 .L0 
     /tmp/ccpWTA4I.s:890    .text:000000000000026c .L0 
     /tmp/ccpWTA4I.s:891    .text:000000000000026c .L0 
  src/../h/Riscv.hpp:122    .text:000000000000026c .L0 
     /tmp/ccpWTA4I.s:898    .text:0000000000000270 .L0 
     /tmp/ccpWTA4I.s:909    .text:0000000000000274 .L0 
     /tmp/ccpWTA4I.s:910    .text:0000000000000274 .L0 
     /tmp/ccpWTA4I.s:911    .text:0000000000000274 .L0 
  src/../h/Riscv.hpp:116    .text:0000000000000274 .L0 
     /tmp/ccpWTA4I.s:919    .text:000000000000027c .L0 
     /tmp/ccpWTA4I.s:920    .text:000000000000027c .L0 
     /tmp/ccpWTA4I.s:925    .text:0000000000000280 .L0 
     /tmp/ccpWTA4I.s:930    .text:0000000000000284 .L0 
     /tmp/ccpWTA4I.s:931    .text:0000000000000284 .L0 
     /tmp/ccpWTA4I.s:932    .text:0000000000000284 .L0 
  src/../h/Riscv.hpp:186    .text:0000000000000284 .L0 
     /tmp/ccpWTA4I.s:940    .text:000000000000028c .L0 
     /tmp/ccpWTA4I.s:941    .text:000000000000028c .L0 
     /tmp/ccpWTA4I.s:946    .text:0000000000000290 .L0 
       src/Riscv.cpp:102    .text:0000000000000290 .L0 
     /tmp/ccpWTA4I.s:952    .text:0000000000000294 .L0 
       src/Riscv.cpp:104    .text:0000000000000294 .L0 
     /tmp/ccpWTA4I.s:958    .text:0000000000000298 .L0 
     /tmp/ccpWTA4I.s:960    .text:0000000000000298 .L0 
GAS LISTING /tmp/ccpWTA4I.s 			page 59


     /tmp/ccpWTA4I.s:963    .text:00000000000002a0 .L0 
       src/Riscv.cpp:106    .text:00000000000002a0 .L0 
     /tmp/ccpWTA4I.s:973    .text:00000000000002a4 .L0 
     /tmp/ccpWTA4I.s:974    .text:00000000000002a4 .L0 
  src/../h/Riscv.hpp:192    .text:00000000000002a4 .L0 
     /tmp/ccpWTA4I.s:986    .text:00000000000002a8 .L0 
     /tmp/ccpWTA4I.s:987    .text:00000000000002a8 .L0 
  src/../h/Riscv.hpp:122    .text:00000000000002a8 .L0 
     /tmp/ccpWTA4I.s:994    .text:00000000000002ac .L0 
     /tmp/ccpWTA4I.s:1005   .text:00000000000002b0 .L0 
     /tmp/ccpWTA4I.s:1006   .text:00000000000002b0 .L0 
     /tmp/ccpWTA4I.s:1007   .text:00000000000002b0 .L0 
  src/../h/Riscv.hpp:116    .text:00000000000002b0 .L0 
     /tmp/ccpWTA4I.s:1015   .text:00000000000002b8 .L0 
     /tmp/ccpWTA4I.s:1016   .text:00000000000002b8 .L0 
     /tmp/ccpWTA4I.s:1021   .text:00000000000002bc .L0 
     /tmp/ccpWTA4I.s:1026   .text:00000000000002c0 .L0 
     /tmp/ccpWTA4I.s:1027   .text:00000000000002c0 .L0 
     /tmp/ccpWTA4I.s:1028   .text:00000000000002c0 .L0 
  src/../h/Riscv.hpp:186    .text:00000000000002c0 .L0 
     /tmp/ccpWTA4I.s:1036   .text:00000000000002c8 .L0 
     /tmp/ccpWTA4I.s:1037   .text:00000000000002c8 .L0 
     /tmp/ccpWTA4I.s:1042   .text:00000000000002cc .L0 
     /tmp/ccpWTA4I.s:1043   .text:00000000000002cc .L0 
     /tmp/ccpWTA4I.s:1046   .text:00000000000002d8 .L0 
     /tmp/ccpWTA4I.s:1049   .text:00000000000002e0 .L0 
     /tmp/ccpWTA4I.s:1050   .text:00000000000002e0 .L0 
     /tmp/ccpWTA4I.s:1055   .text:00000000000002e8 .L0 
     /tmp/ccpWTA4I.s:1056   .text:00000000000002e8 .L0 
  src/../h/Riscv.hpp:192    .text:00000000000002e8 .L0 
     /tmp/ccpWTA4I.s:1068   .text:00000000000002ec .L0 
     /tmp/ccpWTA4I.s:1069   .text:00000000000002ec .L0 
  src/../h/Riscv.hpp:122    .text:00000000000002ec .L0 
     /tmp/ccpWTA4I.s:1076   .text:00000000000002f0 .L0 
     /tmp/ccpWTA4I.s:1087   .text:00000000000002f4 .L0 
     /tmp/ccpWTA4I.s:1088   .text:00000000000002f4 .L0 
     /tmp/ccpWTA4I.s:1089   .text:00000000000002f4 .L0 
  src/../h/Riscv.hpp:116    .text:00000000000002f4 .L0 
     /tmp/ccpWTA4I.s:1097   .text:00000000000002fc .L0 
     /tmp/ccpWTA4I.s:1098   .text:00000000000002fc .L0 
     /tmp/ccpWTA4I.s:1103   .text:0000000000000300 .L0 
     /tmp/ccpWTA4I.s:1108   .text:0000000000000304 .L0 
     /tmp/ccpWTA4I.s:1109   .text:0000000000000304 .L0 
     /tmp/ccpWTA4I.s:1110   .text:0000000000000304 .L0 
  src/../h/Riscv.hpp:186    .text:0000000000000304 .L0 
     /tmp/ccpWTA4I.s:1118   .text:000000000000030c .L0 
     /tmp/ccpWTA4I.s:1119   .text:000000000000030c .L0 
     /tmp/ccpWTA4I.s:1124   .text:0000000000000310 .L0 
     /tmp/ccpWTA4I.s:1125   .text:0000000000000310 .L0 
     /tmp/ccpWTA4I.s:1130   .text:0000000000000318 .L0 
     /tmp/ccpWTA4I.s:1131   .text:0000000000000318 .L0 
  src/../h/Riscv.hpp:192    .text:0000000000000318 .L0 
     /tmp/ccpWTA4I.s:1143   .text:000000000000031c .L0 
     /tmp/ccpWTA4I.s:1144   .text:000000000000031c .L0 
  src/../h/Riscv.hpp:122    .text:000000000000031c .L0 
     /tmp/ccpWTA4I.s:1151   .text:0000000000000320 .L0 
     /tmp/ccpWTA4I.s:1162   .text:0000000000000324 .L0 
GAS LISTING /tmp/ccpWTA4I.s 			page 60


     /tmp/ccpWTA4I.s:1163   .text:0000000000000324 .L0 
     /tmp/ccpWTA4I.s:1164   .text:0000000000000324 .L0 
  src/../h/Riscv.hpp:116    .text:0000000000000324 .L0 
     /tmp/ccpWTA4I.s:1172   .text:000000000000032c .L0 
     /tmp/ccpWTA4I.s:1173   .text:000000000000032c .L0 
     /tmp/ccpWTA4I.s:1178   .text:0000000000000330 .L0 
     /tmp/ccpWTA4I.s:1183   .text:0000000000000334 .L0 
     /tmp/ccpWTA4I.s:1184   .text:0000000000000334 .L0 
     /tmp/ccpWTA4I.s:1185   .text:0000000000000334 .L0 
  src/../h/Riscv.hpp:186    .text:0000000000000334 .L0 
     /tmp/ccpWTA4I.s:1193   .text:000000000000033c .L0 
     /tmp/ccpWTA4I.s:1194   .text:000000000000033c .L0 
     /tmp/ccpWTA4I.s:1199   .text:0000000000000340 .L0 
     /tmp/ccpWTA4I.s:1200   .text:0000000000000340 .L0 
     /tmp/ccpWTA4I.s:1203   .text:000000000000034c .L0 
     /tmp/ccpWTA4I.s:1204   .text:000000000000034c .L0 
     /tmp/ccpWTA4I.s:1209   .text:0000000000000354 .L0 
     /tmp/ccpWTA4I.s:1210   .text:0000000000000354 .L0 
  src/../h/Riscv.hpp:192    .text:0000000000000354 .L0 
     /tmp/ccpWTA4I.s:1222   .text:0000000000000358 .L0 
     /tmp/ccpWTA4I.s:1223   .text:0000000000000358 .L0 
  src/../h/Riscv.hpp:122    .text:0000000000000358 .L0 
     /tmp/ccpWTA4I.s:1230   .text:000000000000035c .L0 
     /tmp/ccpWTA4I.s:1241   .text:0000000000000360 .L0 
     /tmp/ccpWTA4I.s:1242   .text:0000000000000360 .L0 
     /tmp/ccpWTA4I.s:1243   .text:0000000000000360 .L0 
  src/../h/Riscv.hpp:116    .text:0000000000000360 .L0 
     /tmp/ccpWTA4I.s:1251   .text:0000000000000368 .L0 
     /tmp/ccpWTA4I.s:1252   .text:0000000000000368 .L0 
     /tmp/ccpWTA4I.s:1257   .text:000000000000036c .L0 
     /tmp/ccpWTA4I.s:1262   .text:0000000000000370 .L0 
     /tmp/ccpWTA4I.s:1263   .text:0000000000000370 .L0 
     /tmp/ccpWTA4I.s:1264   .text:0000000000000370 .L0 
  src/../h/Riscv.hpp:186    .text:0000000000000370 .L0 
     /tmp/ccpWTA4I.s:1272   .text:0000000000000378 .L0 
     /tmp/ccpWTA4I.s:1273   .text:0000000000000378 .L0 
     /tmp/ccpWTA4I.s:1278   .text:000000000000037c .L0 
     /tmp/ccpWTA4I.s:1279   .text:000000000000037c .L0 
     /tmp/ccpWTA4I.s:1280   .text:000000000000037c .L0 
       src/Riscv.cpp:154    .text:000000000000037c .L0 
     /tmp/ccpWTA4I.s:1286   .text:0000000000000380 .L0 
       src/Riscv.cpp:155    .text:0000000000000380 .L0 
     /tmp/ccpWTA4I.s:1291   .text:0000000000000384 .L0 
       src/Riscv.cpp:157    .text:0000000000000384 .L0 
     /tmp/ccpWTA4I.s:1297   .text:0000000000000388 .L0 
       src/Riscv.cpp:158    .text:0000000000000388 .L0 
     /tmp/ccpWTA4I.s:1303   .text:000000000000038c .L0 
     /tmp/ccpWTA4I.s:1305   .text:000000000000038c .L0 
     /tmp/ccpWTA4I.s:1312   .text:0000000000000398 .L0 
     /tmp/ccpWTA4I.s:1318   .text:000000000000039c .L0 
     /tmp/ccpWTA4I.s:1326   .text:00000000000003a4 .L0 
     /tmp/ccpWTA4I.s:1327   .text:00000000000003a4 .L0 
     /tmp/ccpWTA4I.s:1330   .text:00000000000003ac .L0 
     /tmp/ccpWTA4I.s:1331   .text:00000000000003ac .L0 
     /tmp/ccpWTA4I.s:1334   .text:00000000000003b0 .L0 
     /tmp/ccpWTA4I.s:1335   .text:00000000000003b0 .L0 
     /tmp/ccpWTA4I.s:1337   .text:00000000000003b4 .L0 
GAS LISTING /tmp/ccpWTA4I.s 			page 61


     /tmp/ccpWTA4I.s:1341   .text:00000000000003b8 .L0 
       src/Riscv.cpp:168    .text:00000000000003b8 .L0 
     /tmp/ccpWTA4I.s:1351   .text:00000000000003bc .L0 
     /tmp/ccpWTA4I.s:1352   .text:00000000000003bc .L0 
  src/../h/Riscv.hpp:192    .text:00000000000003bc .L0 
     /tmp/ccpWTA4I.s:1364   .text:00000000000003c0 .L0 
     /tmp/ccpWTA4I.s:1365   .text:00000000000003c0 .L0 
  src/../h/Riscv.hpp:122    .text:00000000000003c0 .L0 
     /tmp/ccpWTA4I.s:1372   .text:00000000000003c4 .L0 
     /tmp/ccpWTA4I.s:1378   .text:00000000000003c8 .L0 
     /tmp/ccpWTA4I.s:1388   .text:00000000000003d0 .L0 
     /tmp/ccpWTA4I.s:1389   .text:00000000000003d0 .L0 
     /tmp/ccpWTA4I.s:1390   .text:00000000000003d0 .L0 
  src/../h/Riscv.hpp:116    .text:00000000000003d0 .L0 
     /tmp/ccpWTA4I.s:1398   .text:00000000000003d8 .L0 
     /tmp/ccpWTA4I.s:1399   .text:00000000000003d8 .L0 
     /tmp/ccpWTA4I.s:1403   .text:00000000000003dc .L0 
     /tmp/ccpWTA4I.s:1408   .text:00000000000003e0 .L0 
     /tmp/ccpWTA4I.s:1409   .text:00000000000003e0 .L0 
     /tmp/ccpWTA4I.s:1410   .text:00000000000003e0 .L0 
  src/../h/Riscv.hpp:186    .text:00000000000003e0 .L0 
     /tmp/ccpWTA4I.s:1418   .text:00000000000003e8 .L0 
     /tmp/ccpWTA4I.s:1419   .text:00000000000003e8 .L0 
     /tmp/ccpWTA4I.s:1424   .text:00000000000003ec .L0 
     /tmp/ccpWTA4I.s:1425   .text:00000000000003ec .L0 
       src/Riscv.cpp:180    .text:00000000000003ec .L0 
     /tmp/ccpWTA4I.s:1431   .text:00000000000003f0 .L0 
       src/Riscv.cpp:182    .text:00000000000003f0 .L0 
     /tmp/ccpWTA4I.s:1438   .text:00000000000003f4 .L0 
     /tmp/ccpWTA4I.s:1445   .text:00000000000003f8 .L0 
     /tmp/ccpWTA4I.s:1448   .text:00000000000003fc .L0 
     /tmp/ccpWTA4I.s:1456   .text:0000000000000404 .L0 
     /tmp/ccpWTA4I.s:1457   .text:0000000000000404 .L0 
     /tmp/ccpWTA4I.s:1458   .text:0000000000000404 .L0 
     /tmp/ccpWTA4I.s:1464   .text:000000000000040c .L0 
     /tmp/ccpWTA4I.s:1465   .text:000000000000040c .L0 
     /tmp/ccpWTA4I.s:1467   .text:0000000000000410 .L0 
     /tmp/ccpWTA4I.s:1470   .text:0000000000000418 .L0 
     /tmp/ccpWTA4I.s:1471   .text:0000000000000418 .L0 
     /tmp/ccpWTA4I.s:1477   .text:0000000000000424 .L0 
     /tmp/ccpWTA4I.s:1480   .text:0000000000000424 .L0 
     /tmp/ccpWTA4I.s:1481   .text:0000000000000424 .L0 
     /tmp/ccpWTA4I.s:1483   .text:0000000000000428 .L0 
     /tmp/ccpWTA4I.s:1485   .text:000000000000042c .L0 
     /tmp/ccpWTA4I.s:1490   .text:0000000000000430 .L0 
     /tmp/ccpWTA4I.s:1496   .text:0000000000000434 .L0 
     /tmp/ccpWTA4I.s:1497   .text:0000000000000434 .L0 
     /tmp/ccpWTA4I.s:1499   .text:0000000000000438 .L0 
     /tmp/ccpWTA4I.s:1501   .text:000000000000043c .L0 
     /tmp/ccpWTA4I.s:1503   .text:0000000000000440 .L0 
     /tmp/ccpWTA4I.s:1511   .text:0000000000000448 .L0 
     /tmp/ccpWTA4I.s:1512   .text:0000000000000448 .L0 
     /tmp/ccpWTA4I.s:1514   .text:000000000000044c .L0 
     /tmp/ccpWTA4I.s:1515   .text:000000000000044c .L0 
     /tmp/ccpWTA4I.s:1517   .text:0000000000000450 .L0 
     /tmp/ccpWTA4I.s:1524   .text:000000000000045c .L0 
     /tmp/ccpWTA4I.s:1525   .text:000000000000045c .L0 
GAS LISTING /tmp/ccpWTA4I.s 			page 62


  src/../h/Riscv.hpp:192    .text:000000000000045c .L0 
     /tmp/ccpWTA4I.s:1537   .text:0000000000000460 .L0 
     /tmp/ccpWTA4I.s:1538   .text:0000000000000460 .L0 
  src/../h/Riscv.hpp:122    .text:0000000000000460 .L0 
     /tmp/ccpWTA4I.s:1545   .text:0000000000000464 .L0 
     /tmp/ccpWTA4I.s:1556   .text:0000000000000468 .L0 
     /tmp/ccpWTA4I.s:1557   .text:0000000000000468 .L0 
     /tmp/ccpWTA4I.s:1558   .text:0000000000000468 .L0 
  src/../h/Riscv.hpp:116    .text:0000000000000468 .L0 
     /tmp/ccpWTA4I.s:1566   .text:0000000000000470 .L0 
     /tmp/ccpWTA4I.s:1567   .text:0000000000000470 .L0 
     /tmp/ccpWTA4I.s:1572   .text:0000000000000474 .L0 
     /tmp/ccpWTA4I.s:1577   .text:0000000000000478 .L0 
     /tmp/ccpWTA4I.s:1578   .text:0000000000000478 .L0 
     /tmp/ccpWTA4I.s:1579   .text:0000000000000478 .L0 
  src/../h/Riscv.hpp:186    .text:0000000000000478 .L0 
     /tmp/ccpWTA4I.s:1587   .text:0000000000000480 .L0 
     /tmp/ccpWTA4I.s:1588   .text:0000000000000480 .L0 
     /tmp/ccpWTA4I.s:1593   .text:0000000000000484 .L0 
     /tmp/ccpWTA4I.s:1594   .text:0000000000000484 .L0 
       src/Riscv.cpp:205    .text:0000000000000484 .L0 
     /tmp/ccpWTA4I.s:1600   .text:0000000000000488 .L0 
       src/Riscv.cpp:207    .text:0000000000000488 .L0 
     /tmp/ccpWTA4I.s:1606   .text:000000000000048c .L0 
     /tmp/ccpWTA4I.s:1607   .text:000000000000048c .L0 
     /tmp/ccpWTA4I.s:1609   .text:000000000000048c .L0 
     /tmp/ccpWTA4I.s:1612   .text:0000000000000494 .L0 
       src/Riscv.cpp:214    .text:0000000000000494 .L0 
     /tmp/ccpWTA4I.s:1622   .text:0000000000000498 .L0 
     /tmp/ccpWTA4I.s:1623   .text:0000000000000498 .L0 
  src/../h/Riscv.hpp:192    .text:0000000000000498 .L0 
     /tmp/ccpWTA4I.s:1635   .text:000000000000049c .L0 
     /tmp/ccpWTA4I.s:1636   .text:000000000000049c .L0 
  src/../h/Riscv.hpp:122    .text:000000000000049c .L0 
     /tmp/ccpWTA4I.s:1643   .text:00000000000004a0 .L0 
     /tmp/ccpWTA4I.s:1654   .text:00000000000004a4 .L0 
     /tmp/ccpWTA4I.s:1655   .text:00000000000004a4 .L0 
     /tmp/ccpWTA4I.s:1656   .text:00000000000004a4 .L0 
  src/../h/Riscv.hpp:116    .text:00000000000004a4 .L0 
     /tmp/ccpWTA4I.s:1664   .text:00000000000004ac .L0 
     /tmp/ccpWTA4I.s:1665   .text:00000000000004ac .L0 
     /tmp/ccpWTA4I.s:1670   .text:00000000000004b0 .L0 
     /tmp/ccpWTA4I.s:1675   .text:00000000000004b4 .L0 
     /tmp/ccpWTA4I.s:1676   .text:00000000000004b4 .L0 
     /tmp/ccpWTA4I.s:1677   .text:00000000000004b4 .L0 
  src/../h/Riscv.hpp:186    .text:00000000000004b4 .L0 
     /tmp/ccpWTA4I.s:1685   .text:00000000000004bc .L0 
     /tmp/ccpWTA4I.s:1686   .text:00000000000004bc .L0 
     /tmp/ccpWTA4I.s:1691   .text:00000000000004c0 .L0 
     /tmp/ccpWTA4I.s:1692   .text:00000000000004c0 .L0 
       src/Riscv.cpp:225    .text:00000000000004c0 .L0 
     /tmp/ccpWTA4I.s:1698   .text:00000000000004c4 .L0 
       src/Riscv.cpp:227    .text:00000000000004c4 .L0 
     /tmp/ccpWTA4I.s:1704   .text:00000000000004c8 .L0 
     /tmp/ccpWTA4I.s:1705   .text:00000000000004c8 .L0 
     /tmp/ccpWTA4I.s:1707   .text:00000000000004c8 .L0 
     /tmp/ccpWTA4I.s:1710   .text:00000000000004d0 .L0 
GAS LISTING /tmp/ccpWTA4I.s 			page 63


     /tmp/ccpWTA4I.s:1711   .text:00000000000004d0 .L0 
     /tmp/ccpWTA4I.s:1712   .text:00000000000004d0 .L0 
     /tmp/ccpWTA4I.s:1722   .text:00000000000004d8 .L0 
     /tmp/ccpWTA4I.s:1723   .text:00000000000004d8 .L0 
  src/../h/Riscv.hpp:192    .text:00000000000004d8 .L0 
     /tmp/ccpWTA4I.s:1735   .text:00000000000004dc .L0 
     /tmp/ccpWTA4I.s:1736   .text:00000000000004dc .L0 
  src/../h/Riscv.hpp:122    .text:00000000000004dc .L0 
     /tmp/ccpWTA4I.s:1743   .text:00000000000004e0 .L0 
     /tmp/ccpWTA4I.s:1754   .text:00000000000004e4 .L0 
     /tmp/ccpWTA4I.s:1755   .text:00000000000004e4 .L0 
     /tmp/ccpWTA4I.s:1756   .text:00000000000004e4 .L0 
  src/../h/Riscv.hpp:116    .text:00000000000004e4 .L0 
     /tmp/ccpWTA4I.s:1764   .text:00000000000004ec .L0 
     /tmp/ccpWTA4I.s:1765   .text:00000000000004ec .L0 
     /tmp/ccpWTA4I.s:1770   .text:00000000000004f0 .L0 
     /tmp/ccpWTA4I.s:1775   .text:00000000000004f4 .L0 
     /tmp/ccpWTA4I.s:1776   .text:00000000000004f4 .L0 
     /tmp/ccpWTA4I.s:1777   .text:00000000000004f4 .L0 
  src/../h/Riscv.hpp:186    .text:00000000000004f4 .L0 
     /tmp/ccpWTA4I.s:1785   .text:00000000000004fc .L0 
     /tmp/ccpWTA4I.s:1786   .text:00000000000004fc .L0 
     /tmp/ccpWTA4I.s:1791   .text:0000000000000500 .L0 
     /tmp/ccpWTA4I.s:1792   .text:0000000000000500 .L0 
     /tmp/ccpWTA4I.s:1797   .text:0000000000000508 .L0 
  src/../h/Riscv.hpp:134    .text:0000000000000508 .L0 
     /tmp/ccpWTA4I.s:1807   .text:000000000000050c .L0 
     /tmp/ccpWTA4I.s:1808   .text:000000000000050c .L0 
     /tmp/ccpWTA4I.s:1811   .text:0000000000000514 .L0 
     /tmp/ccpWTA4I.s:1812   .text:0000000000000514 .L0 
     /tmp/ccpWTA4I.s:1817   .text:000000000000051c .L0 
  src/../h/Riscv.hpp:134    .text:000000000000051c .L0 
     /tmp/ccpWTA4I.s:1827   .text:0000000000000520 .L0 
       src/Riscv.cpp:249    .text:0000000000000520 .L0 
     /tmp/ccpWTA4I.s:1837   .text:0000000000000524 .L0 
     /tmp/ccpWTA4I.s:1838   .text:0000000000000524 .L0 
  src/../h/Riscv.hpp:192    .text:0000000000000524 .L0 
     /tmp/ccpWTA4I.s:1850   .text:0000000000000528 .L0 
     /tmp/ccpWTA4I.s:1851   .text:0000000000000528 .L0 
  src/../h/Riscv.hpp:122    .text:0000000000000528 .L0 
     /tmp/ccpWTA4I.s:1858   .text:000000000000052c .L0 
     /tmp/ccpWTA4I.s:1876   .text:0000000000000530 .L0 
     /tmp/ccpWTA4I.s:1882   .text:0000000000000530 _ZN5Riscv17handleTrapConsoleEv
     /tmp/ccpWTA4I.s:1885   .text:0000000000000530 .L0 
     /tmp/ccpWTA4I.s:1886   .text:0000000000000530 .L0 
     /tmp/ccpWTA4I.s:1887   .text:0000000000000534 .L0 
     /tmp/ccpWTA4I.s:1890   .text:000000000000053c .L0 
     /tmp/ccpWTA4I.s:1891   .text:000000000000053c .L0 
     /tmp/ccpWTA4I.s:1893   .text:0000000000000540 .L0 
     /tmp/ccpWTA4I.s:1897   .text:0000000000000540 .L0 
     /tmp/ccpWTA4I.s:1898   .text:0000000000000540 .L0 
     /tmp/ccpWTA4I.s:1899   .text:0000000000000540 .L0 
  src/../h/Riscv.hpp:104    .text:0000000000000540 .L0 
     /tmp/ccpWTA4I.s:1907   .text:0000000000000548 .L0 
     /tmp/ccpWTA4I.s:1908   .text:0000000000000548 .L0 
     /tmp/ccpWTA4I.s:1913   .text:000000000000054c .L0 
     /tmp/ccpWTA4I.s:1918   .text:000000000000055c .L0 
GAS LISTING /tmp/ccpWTA4I.s 			page 64


     /tmp/ccpWTA4I.s:1925   .text:000000000000056c .L0 
     /tmp/ccpWTA4I.s:1926   .text:0000000000000570 .L0 
     /tmp/ccpWTA4I.s:1927   .text:0000000000000570 .L0 
     /tmp/ccpWTA4I.s:1929   .text:0000000000000574 .L0 
     /tmp/ccpWTA4I.s:1930   .text:0000000000000574 .L0 
     /tmp/ccpWTA4I.s:1932   .text:0000000000000578 .L0 
     /tmp/ccpWTA4I.s:1936   .text:000000000000057c .L0 
     /tmp/ccpWTA4I.s:1938   .text:000000000000057c .L0 
     /tmp/ccpWTA4I.s:1939   .text:000000000000057c .L0 
     /tmp/ccpWTA4I.s:1944   .text:0000000000000584 .L0 
     /tmp/ccpWTA4I.s:1945   .text:0000000000000584 .L0 
     /tmp/ccpWTA4I.s:1946   .text:0000000000000584 .L0 
     /tmp/ccpWTA4I.s:1953   .text:000000000000058c .L0 
     /tmp/ccpWTA4I.s:1961   .text:0000000000000590 .L0 
     /tmp/ccpWTA4I.s:1962   .text:0000000000000590 .L0 
     /tmp/ccpWTA4I.s:1963   .text:0000000000000590 .L0 
     /tmp/ccpWTA4I.s:1973   .text:0000000000000598 .L0 
     /tmp/ccpWTA4I.s:1974   .text:000000000000059c .L0 
     /tmp/ccpWTA4I.s:1987   .bss:0000000000000001 _ZN5Riscv7enteredE
     /tmp/ccpWTA4I.s:1983   .bss:0000000000000000 _ZN5Riscv9privilegeE
     /tmp/ccpWTA4I.s:1980   .bss:0000000000000000 .LANCHOR0
     /tmp/ccpWTA4I.s:1996   .text:000000000000059c .L0 
     /tmp/ccpWTA4I.s:126    .text:0000000000000070 .L0 
     /tmp/ccpWTA4I.s:165    .text:0000000000000090 .L0 
     /tmp/ccpWTA4I.s:569    .text:0000000000000184 .L0 
     /tmp/ccpWTA4I.s:589    .text:0000000000000198 .L0 
     /tmp/ccpWTA4I.s:1043   .text:00000000000002cc .L0 
     /tmp/ccpWTA4I.s:1200   .text:0000000000000340 .L0 
     /tmp/ccpWTA4I.s:1792   .text:0000000000000500 .L0 
     /tmp/ccpWTA4I.s:1812   .text:0000000000000514 .L0 
     /tmp/ccpWTA4I.s:187    .text:00000000000000b0 .L28
     /tmp/ccpWTA4I.s:231    .text:00000000000000e0 .L6
     /tmp/ccpWTA4I.s:204    .text:00000000000000b8 .L3
     /tmp/ccpWTA4I.s:648    .text:00000000000001b0 .L29
     /tmp/ccpWTA4I.s:658    .text:00000000000001bc .L30
     /tmp/ccpWTA4I.s:803    .text:0000000000000234 .L31
     /tmp/ccpWTA4I.s:900    .text:0000000000000274 .L32
     /tmp/ccpWTA4I.s:996    .text:00000000000002b0 .L33
     /tmp/ccpWTA4I.s:1078   .text:00000000000002f4 .L34
     /tmp/ccpWTA4I.s:1153   .text:0000000000000324 .L35
     /tmp/ccpWTA4I.s:1232   .text:0000000000000360 .L36
     /tmp/ccpWTA4I.s:1381   .text:00000000000003d0 .L37
     /tmp/ccpWTA4I.s:1547   .text:0000000000000468 .L38
     /tmp/ccpWTA4I.s:1645   .text:00000000000004a4 .L39
     /tmp/ccpWTA4I.s:1745   .text:00000000000004e4 .L40
     /tmp/ccpWTA4I.s:796    .text:000000000000022c .L25
     /tmp/ccpWTA4I.s:268    .text:0000000000000104 .L8
     /tmp/ccpWTA4I.s:760    .text:000000000000021c .L9
     /tmp/ccpWTA4I.s:1374   .text:00000000000003c8 .L26
     /tmp/ccpWTA4I.s:1338   .text:00000000000003b8 .L16
     /tmp/ccpWTA4I.s:1474   .text:0000000000000424 .L20
     /tmp/ccpWTA4I.s:1506   .text:0000000000000448 .L18
     /tmp/ccpWTA4I.s:1440   .text:00000000000003f8 .L19
     /tmp/ccpWTA4I.s:1520   .text:000000000000045c .L21
     /tmp/ccpWTA4I.s:1935   .text:000000000000057c .L45
     /tmp/ccpWTA4I.s:1955   .text:0000000000000590 .L46
     /tmp/ccpWTA4I.s:1923   .text:000000000000056c .L41
GAS LISTING /tmp/ccpWTA4I.s 			page 65


     /tmp/ccpWTA4I.s:5127   .debug_abbrev:0000000000000000 .Ldebug_abbrev0
     /tmp/ccpWTA4I.s:7459   .debug_str:0000000000000b43 .LASF219
     /tmp/ccpWTA4I.s:7163   .debug_str:0000000000000181 .LASF220
     /tmp/ccpWTA4I.s:7317   .debug_str:00000000000006c4 .LASF221
     /tmp/ccpWTA4I.s:5      .text:0000000000000000 .Ltext0
     /tmp/ccpWTA4I.s:1990   .text:000000000000059c .Letext0
     /tmp/ccpWTA4I.s:7105   .debug_line:0000000000000000 .Ldebug_line0
     /tmp/ccpWTA4I.s:7247   .debug_str:000000000000045a .LASF0
     /tmp/ccpWTA4I.s:7291   .debug_str:0000000000000614 .LASF1
     /tmp/ccpWTA4I.s:7391   .debug_str:0000000000000978 .LASF2
     /tmp/ccpWTA4I.s:7403   .debug_str:00000000000009e6 .LASF4
     /tmp/ccpWTA4I.s:7263   .debug_str:00000000000004d1 .LASF3
     /tmp/ccpWTA4I.s:7119   .debug_str:0000000000000057 .LASF5
     /tmp/ccpWTA4I.s:7347   .debug_str:00000000000007d3 .LASF6
     /tmp/ccpWTA4I.s:7279   .debug_str:00000000000005b2 .LASF7
     /tmp/ccpWTA4I.s:7213   .debug_str:0000000000000340 .LASF8
     /tmp/ccpWTA4I.s:7223   .debug_str:000000000000038a .LASF9
     /tmp/ccpWTA4I.s:7149   .debug_str:000000000000011c .LASF10
     /tmp/ccpWTA4I.s:7201   .debug_str:00000000000002de .LASF11
     /tmp/ccpWTA4I.s:7165   .debug_str:000000000000018f .LASF12
     /tmp/ccpWTA4I.s:7147   .debug_str:000000000000010c .LASF13
     /tmp/ccpWTA4I.s:7433   .debug_str:0000000000000aba .LASF14
     /tmp/ccpWTA4I.s:7185   .debug_str:0000000000000232 .LASF15
     /tmp/ccpWTA4I.s:7423   .debug_str:0000000000000a84 .LASF16
     /tmp/ccpWTA4I.s:7509   .debug_str:0000000000000d63 .LASF72
     /tmp/ccpWTA4I.s:7371   .debug_str:00000000000008c9 .LASF20
     /tmp/ccpWTA4I.s:7297   .debug_str:000000000000064f .LASF17
     /tmp/ccpWTA4I.s:7191   .debug_str:0000000000000286 .LASF18
     /tmp/ccpWTA4I.s:7525   .debug_str:0000000000000dc9 .LASF19
     /tmp/ccpWTA4I.s:7493   .debug_str:0000000000000cdb .LASF21
     /tmp/ccpWTA4I.s:7195   .debug_str:000000000000029a .LASF22
     /tmp/ccpWTA4I.s:7457   .debug_str:0000000000000b36 .LASF23
     /tmp/ccpWTA4I.s:7171   .debug_str:00000000000001c4 .LASF24
     /tmp/ccpWTA4I.s:7417   .debug_str:0000000000000a56 .LASF25
     /tmp/ccpWTA4I.s:7219   .debug_str:0000000000000366 .LASF26
     /tmp/ccpWTA4I.s:7235   .debug_str:0000000000000403 .LASF59
     /tmp/ccpWTA4I.s:7245   .debug_str:0000000000000442 .LASF61
     /tmp/ccpWTA4I.s:7485   .debug_str:0000000000000ca7 .LASF27
     /tmp/ccpWTA4I.s:7475   .debug_str:0000000000000c6c .LASF29
     /tmp/ccpWTA4I.s:7385   .debug_str:0000000000000952 .LASF31
     /tmp/ccpWTA4I.s:7335   .debug_str:0000000000000768 .LASF33
     /tmp/ccpWTA4I.s:7363   .debug_str:0000000000000880 .LASF28
     /tmp/ccpWTA4I.s:7365   .debug_str:0000000000000887 .LASF30
     /tmp/ccpWTA4I.s:7331   .debug_str:000000000000074d .LASF32
     /tmp/ccpWTA4I.s:7283   .debug_str:00000000000005e7 .LASF34
     /tmp/ccpWTA4I.s:7521   .debug_str:0000000000000db5 .LASF35
     /tmp/ccpWTA4I.s:7465   .debug_str:0000000000000c21 .LASF36
     /tmp/ccpWTA4I.s:7327   .debug_str:0000000000000740 .LASF37
     /tmp/ccpWTA4I.s:7333   .debug_str:0000000000000754 .LASF38
     /tmp/ccpWTA4I.s:7299   .debug_str:0000000000000658 .LASF39
     /tmp/ccpWTA4I.s:7369   .debug_str:00000000000008b5 .LASF40
     /tmp/ccpWTA4I.s:7551   .debug_str:0000000000000eaa .LASF41
     /tmp/ccpWTA4I.s:7253   .debug_str:0000000000000472 .LASF42
     /tmp/ccpWTA4I.s:7429   .debug_str:0000000000000aa6 .LASF43
     /tmp/ccpWTA4I.s:7407   .debug_str:0000000000000a13 .LASF44
     /tmp/ccpWTA4I.s:7409   .debug_str:0000000000000a26 .LASF45
     /tmp/ccpWTA4I.s:7155   .debug_str:000000000000013a .LASF46
GAS LISTING /tmp/ccpWTA4I.s 			page 66


     /tmp/ccpWTA4I.s:7181   .debug_str:000000000000020d .LASF47
     /tmp/ccpWTA4I.s:7241   .debug_str:000000000000041b .LASF48
     /tmp/ccpWTA4I.s:7251   .debug_str:000000000000046c .LASF49
     /tmp/ccpWTA4I.s:7173   .debug_str:00000000000001d0 .LASF50
     /tmp/ccpWTA4I.s:7121   .debug_str:000000000000005e .LASF51
     /tmp/ccpWTA4I.s:7397   .debug_str:000000000000099c .LASF52
     /tmp/ccpWTA4I.s:7389   .debug_str:000000000000096d .LASF53
     /tmp/ccpWTA4I.s:7543   .debug_str:0000000000000e5f .LASF54
     /tmp/ccpWTA4I.s:7513   .debug_str:0000000000000d6e .LASF55
     /tmp/ccpWTA4I.s:7529   .debug_str:0000000000000de5 .LASF56
     /tmp/ccpWTA4I.s:7507   .debug_str:0000000000000d59 .LASF57
     /tmp/ccpWTA4I.s:7319   .debug_str:00000000000006f4 .LASF58
     /tmp/ccpWTA4I.s:7519   .debug_str:0000000000000da6 .LASF60
     /tmp/ccpWTA4I.s:7221   .debug_str:000000000000036e .LASF62
     /tmp/ccpWTA4I.s:7393   .debug_str:0000000000000986 .LASF63
     /tmp/ccpWTA4I.s:7545   .debug_str:0000000000000e77 .LASF64
     /tmp/ccpWTA4I.s:7193   .debug_str:000000000000028f .LASF65
     /tmp/ccpWTA4I.s:7209   .debug_str:000000000000031e .LASF66
     /tmp/ccpWTA4I.s:7349   .debug_str:00000000000007e6 .LASF67
     /tmp/ccpWTA4I.s:7275   .debug_str:0000000000000573 .LASF69
     /tmp/ccpWTA4I.s:7387   .debug_str:000000000000095b .LASF68
     /tmp/ccpWTA4I.s:7183   .debug_str:0000000000000213 .LASF70
     /tmp/ccpWTA4I.s:7311   .debug_str:000000000000069e .LASF71
     /tmp/ccpWTA4I.s:7517   .debug_str:0000000000000d82 .LASF73
     /tmp/ccpWTA4I.s:7503   .debug_str:0000000000000d34 .LASF107
     /tmp/ccpWTA4I.s:7289   .debug_str:000000000000060f .LASF74
     /tmp/ccpWTA4I.s:7151   .debug_str:000000000000012b .LASF75
     /tmp/ccpWTA4I.s:7127   .debug_str:0000000000000089 .LASF76
     /tmp/ccpWTA4I.s:7259   .debug_str:0000000000000496 .LASF109
     /tmp/ccpWTA4I.s:7427   .debug_str:0000000000000aa1 .LASF77
     /tmp/ccpWTA4I.s:7329   .debug_str:0000000000000748 .LASF78
     /tmp/ccpWTA4I.s:7547   .debug_str:0000000000000e90 .LASF79
     /tmp/ccpWTA4I.s:7399   .debug_str:00000000000009b4 .LASF82
     /tmp/ccpWTA4I.s:7199   .debug_str:00000000000002bd .LASF80
     /tmp/ccpWTA4I.s:7395   .debug_str:0000000000000992 .LASF81
     /tmp/ccpWTA4I.s:7377   .debug_str:00000000000008f9 .LASF83
     /tmp/ccpWTA4I.s:7341   .debug_str:00000000000007a0 .LASF84
     /tmp/ccpWTA4I.s:7523   .debug_str:0000000000000dbd .LASF85
     /tmp/ccpWTA4I.s:7321   .debug_str:000000000000070a .LASF86
     /tmp/ccpWTA4I.s:7439   .debug_str:0000000000000ad6 .LASF87
     /tmp/ccpWTA4I.s:7141   .debug_str:00000000000000ce .LASF88
     /tmp/ccpWTA4I.s:7487   .debug_str:0000000000000cb0 .LASF89
     /tmp/ccpWTA4I.s:7187   .debug_str:0000000000000248 .LASF90
     /tmp/ccpWTA4I.s:7257   .debug_str:000000000000048c .LASF91
     /tmp/ccpWTA4I.s:7357   .debug_str:0000000000000827 .LASF92
     /tmp/ccpWTA4I.s:7453   .debug_str:0000000000000b26 .LASF146
     /tmp/ccpWTA4I.s:7269   .debug_str:0000000000000523 .LASF93
     /tmp/ccpWTA4I.s:7491   .debug_str:0000000000000cbf .LASF94
     /tmp/ccpWTA4I.s:7125   .debug_str:0000000000000070 .LASF95
     /tmp/ccpWTA4I.s:7159   .debug_str:000000000000016b .LASF96
     /tmp/ccpWTA4I.s:7469   .debug_str:0000000000000c3f .LASF97
     /tmp/ccpWTA4I.s:7375   .debug_str:00000000000008f1 .LASF98
     /tmp/ccpWTA4I.s:7211   .debug_str:0000000000000336 .LASF99
     /tmp/ccpWTA4I.s:7419   .debug_str:0000000000000a60 .LASF100
     /tmp/ccpWTA4I.s:7533   .debug_str:0000000000000e0b .LASF101
     /tmp/ccpWTA4I.s:7537   .debug_str:0000000000000e24 .LASF222
     /tmp/ccpWTA4I.s:7273   .debug_str:0000000000000557 .LASF223
GAS LISTING /tmp/ccpWTA4I.s 			page 67


     /tmp/ccpWTA4I.s:7277   .debug_str:0000000000000595 .LASF102
     /tmp/ccpWTA4I.s:7145   .debug_str:00000000000000f7 .LASF103
     /tmp/ccpWTA4I.s:7401   .debug_str:00000000000009d1 .LASF104
     /tmp/ccpWTA4I.s:7553   .debug_str:0000000000000eb2 .LASF105
     /tmp/ccpWTA4I.s:7489   .debug_str:0000000000000cba .LASF108
     /tmp/ccpWTA4I.s:7287   .debug_str:000000000000060a .LASF106
     /tmp/ccpWTA4I.s:7497   .debug_str:0000000000000d05 .LASF110
     /tmp/ccpWTA4I.s:7323   .debug_str:000000000000072e .LASF111
     /tmp/ccpWTA4I.s:7345   .debug_str:00000000000007bc .LASF112
     /tmp/ccpWTA4I.s:7367   .debug_str:000000000000089a .LASF113
     /tmp/ccpWTA4I.s:7233   .debug_str:00000000000003e8 .LASF224
     /tmp/ccpWTA4I.s:7315   .debug_str:00000000000006b7 .LASF114
     /tmp/ccpWTA4I.s:7113   .debug_str:000000000000002b .LASF115
     /tmp/ccpWTA4I.s:7117   .debug_str:0000000000000047 .LASF116
     /tmp/ccpWTA4I.s:7271   .debug_str:000000000000053f .LASF117
     /tmp/ccpWTA4I.s:7383   .debug_str:0000000000000949 .LASF118
     /tmp/ccpWTA4I.s:7541   .debug_str:0000000000000e3e .LASF119
     /tmp/ccpWTA4I.s:7305   .debug_str:000000000000067a .LASF120
     /tmp/ccpWTA4I.s:7505   .debug_str:0000000000000d39 .LASF121
     /tmp/ccpWTA4I.s:7343   .debug_str:00000000000007b0 .LASF122
     /tmp/ccpWTA4I.s:7281   .debug_str:00000000000005c5 .LASF123
     /tmp/ccpWTA4I.s:7555   .debug_str:0000000000000ec0 .LASF124
     /tmp/ccpWTA4I.s:7381   .debug_str:000000000000092a .LASF125
     /tmp/ccpWTA4I.s:7415   .debug_str:0000000000000a4b .LASF126
     /tmp/ccpWTA4I.s:7203   .debug_str:00000000000002ed .LASF127
     /tmp/ccpWTA4I.s:7355   .debug_str:000000000000081e .LASF128
     /tmp/ccpWTA4I.s:7157   .debug_str:000000000000014d .LASF129
     /tmp/ccpWTA4I.s:7129   .debug_str:000000000000008e .LASF130
     /tmp/ccpWTA4I.s:7535   .debug_str:0000000000000e1d .LASF131
     /tmp/ccpWTA4I.s:7143   .debug_str:00000000000000f1 .LASF132
     /tmp/ccpWTA4I.s:7135   .debug_str:00000000000000a7 .LASF133
     /tmp/ccpWTA4I.s:7351   .debug_str:00000000000007fb .LASF134
     /tmp/ccpWTA4I.s:7443   .debug_str:0000000000000aea .LASF135
     /tmp/ccpWTA4I.s:7435   .debug_str:0000000000000ac6 .LASF136
     /tmp/ccpWTA4I.s:7285   .debug_str:00000000000005fa .LASF137
     /tmp/ccpWTA4I.s:7445   .debug_str:0000000000000af2 .LASF138
     /tmp/ccpWTA4I.s:7353   .debug_str:0000000000000803 .LASF139
     /tmp/ccpWTA4I.s:7133   .debug_str:000000000000009b .LASF140
     /tmp/ccpWTA4I.s:7495   .debug_str:0000000000000cea .LASF141
     /tmp/ccpWTA4I.s:7325   .debug_str:0000000000000733 .LASF142
     /tmp/ccpWTA4I.s:7175   .debug_str:00000000000001e2 .LASF143
     /tmp/ccpWTA4I.s:7431   .debug_str:0000000000000aad .LASF144
     /tmp/ccpWTA4I.s:7405   .debug_str:00000000000009ed .LASF145
     /tmp/ccpWTA4I.s:7337   .debug_str:000000000000077d .LASF147
     /tmp/ccpWTA4I.s:7295   .debug_str:0000000000000649 .LASF148
     /tmp/ccpWTA4I.s:7109   .debug_str:0000000000000011 .LASF149
     /tmp/ccpWTA4I.s:7413   .debug_str:0000000000000a3e .LASF150
     /tmp/ccpWTA4I.s:7189   .debug_str:000000000000026a .LASF151
     /tmp/ccpWTA4I.s:7451   .debug_str:0000000000000b17 .LASF152
     /tmp/ccpWTA4I.s:7339   .debug_str:0000000000000782 .LASF153
     /tmp/ccpWTA4I.s:7455   .debug_str:0000000000000b2e .LASF154
     /tmp/ccpWTA4I.s:7255   .debug_str:0000000000000486 .LASF155
     /tmp/ccpWTA4I.s:7265   .debug_str:00000000000004e3 .LASF156
     /tmp/ccpWTA4I.s:7161   .debug_str:0000000000000174 .LASF157
     /tmp/ccpWTA4I.s:7471   .debug_str:0000000000000c48 .LASF158
     /tmp/ccpWTA4I.s:7379   .debug_str:000000000000091a .LASF159
     /tmp/ccpWTA4I.s:7139   .debug_str:00000000000000be .LASF160
GAS LISTING /tmp/ccpWTA4I.s 			page 68


     /tmp/ccpWTA4I.s:7531   .debug_str:0000000000000dfb .LASF161
     /tmp/ccpWTA4I.s:7463   .debug_str:0000000000000c10 .LASF162
     /tmp/ccpWTA4I.s:7421   .debug_str:0000000000000a71 .LASF163
     /tmp/ccpWTA4I.s:7107   .debug_str:0000000000000000 .LASF164
     /tmp/ccpWTA4I.s:7229   .debug_str:00000000000003c5 .LASF165
     /tmp/ccpWTA4I.s:7115   .debug_str:0000000000000042 .LASF166
     /tmp/ccpWTA4I.s:7539   .debug_str:0000000000000e38 .LASF167
     /tmp/ccpWTA4I.s:7473   .debug_str:0000000000000c64 .LASF168
     /tmp/ccpWTA4I.s:7467   .debug_str:0000000000000c35 .LASF169
     /tmp/ccpWTA4I.s:7441   .debug_str:0000000000000ae1 .LASF170
     /tmp/ccpWTA4I.s:7515   .debug_str:0000000000000d78 .LASF171
     /tmp/ccpWTA4I.s:7137   .debug_str:00000000000000b0 .LASF172
     /tmp/ccpWTA4I.s:7373   .debug_str:00000000000008d4 .LASF173
     /tmp/ccpWTA4I.s:7167   .debug_str:000000000000019f .LASF174
     /tmp/ccpWTA4I.s:7267   .debug_str:00000000000004f7 .LASF175
     /tmp/ccpWTA4I.s:7177   .debug_str:00000000000001ff .LASF176
     /tmp/ccpWTA4I.s:7169   .debug_str:00000000000001ad .LASF177
     /tmp/ccpWTA4I.s:7153   .debug_str:0000000000000130 .LASF178
     /tmp/ccpWTA4I.s:7293   .debug_str:0000000000000627 .LASF179
     /tmp/ccpWTA4I.s:7411   .debug_str:0000000000000a2d .LASF180
     /tmp/ccpWTA4I.s:7461   .debug_str:0000000000000c07 .LASF181
     /tmp/ccpWTA4I.s:7501   .debug_str:0000000000000d2d .LASF182
     /tmp/ccpWTA4I.s:7549   .debug_str:0000000000000ea1 .LASF183
     /tmp/ccpWTA4I.s:7207   .debug_str:0000000000000313 .LASF184
     /tmp/ccpWTA4I.s:7225   .debug_str:0000000000000398 .LASF185
     /tmp/ccpWTA4I.s:7179   .debug_str:0000000000000208 .LASF186
     /tmp/ccpWTA4I.s:7477   .debug_str:0000000000000c81 .LASF187
     /tmp/ccpWTA4I.s:7437   .debug_str:0000000000000acf .LASF188
     /tmp/ccpWTA4I.s:7261   .debug_str:00000000000004b8 .LASF189
     /tmp/ccpWTA4I.s:7237   .debug_str:000000000000040e .LASF190
     /tmp/ccpWTA4I.s:7227   .debug_str:00000000000003ac .LASF191
     /tmp/ccpWTA4I.s:7313   .debug_str:00000000000006a3 .LASF192
     /tmp/ccpWTA4I.s:7303   .debug_str:0000000000000666 .LASF193
     /tmp/ccpWTA4I.s:7243   .debug_str:000000000000042d .LASF194
     /tmp/ccpWTA4I.s:7447   .debug_str:0000000000000afd .LASF195
     /tmp/ccpWTA4I.s:7123   .debug_str:0000000000000069 .LASF196
     /tmp/ccpWTA4I.s:7359   .debug_str:0000000000000864 .LASF197
     /tmp/ccpWTA4I.s:7215   .debug_str:0000000000000350 .LASF198
     /tmp/ccpWTA4I.s:7449   .debug_str:0000000000000b12 .LASF199
     /tmp/ccpWTA4I.s:7307   .debug_str:0000000000000682 .LASF200
     /tmp/ccpWTA4I.s:7527   .debug_str:0000000000000dd2 .LASF201
     /tmp/ccpWTA4I.s:7205   .debug_str:000000000000030e .LASF203
     /tmp/ccpWTA4I.s:7249   .debug_str:0000000000000467 .LASF202
     /tmp/ccpWTA4I.s:7197   .debug_str:00000000000002a6 .LASF211
     /tmp/ccpWTA4I.s:1883   .text:0000000000000530 .LFB54
     /tmp/ccpWTA4I.s:1975   .text:000000000000059c .LFE54
     /tmp/ccpWTA4I.s:7425   .debug_str:0000000000000a9a .LASF204
     /tmp/ccpWTA4I.s:6372   .debug_loc:0000000000000000 .LLST81
     /tmp/ccpWTA4I.s:1895   .text:0000000000000540 .LBB453
     /tmp/ccpWTA4I.s:1911   .text:000000000000054c .LBE453
     /tmp/ccpWTA4I.s:1942   .text:0000000000000584 .LBB455
     /tmp/ccpWTA4I.s:1957   .text:0000000000000590 .LBE455
     /tmp/ccpWTA4I.s:6387   .debug_loc:0000000000000049 .LLST82
     /tmp/ccpWTA4I.s:1959   .text:0000000000000590 .LBB457
     /tmp/ccpWTA4I.s:1971   .text:0000000000000598 .LBE457
     /tmp/ccpWTA4I.s:6396   .debug_loc:000000000000006f .LLST83
     /tmp/ccpWTA4I.s:1940   .text:0000000000000584 .LVL133
GAS LISTING /tmp/ccpWTA4I.s 			page 69


     /tmp/ccpWTA4I.s:64     .text:0000000000000028 .LFB53
     /tmp/ccpWTA4I.s:1877   .text:0000000000000530 .LFE53
     /tmp/ccpWTA4I.s:6404   .debug_loc:0000000000000093 .LLST1
     /tmp/ccpWTA4I.s:7111   .debug_str:0000000000000025 .LASF205
     /tmp/ccpWTA4I.s:6435   .debug_loc:0000000000000119 .LLST2
     /tmp/ccpWTA4I.s:7479   .debug_str:0000000000000c98 .LASF206
     /tmp/ccpWTA4I.s:6486   .debug_loc:000000000000020d .LLST3
     /tmp/ccpWTA4I.s:129    .text:000000000000007c .LBB176
     /tmp/ccpWTA4I.s:190    .text:00000000000000b0 .LBE176
     /tmp/ccpWTA4I.s:7511   .debug_str:0000000000000d69 .LASF207
     /tmp/ccpWTA4I.s:6497   .debug_loc:0000000000000243 .LLST4
     /tmp/ccpWTA4I.s:131    .text:000000000000007c .LBB177
     /tmp/ccpWTA4I.s:147    .text:0000000000000088 .LBE177
     /tmp/ccpWTA4I.s:149    .text:0000000000000088 .LBB179
     /tmp/ccpWTA4I.s:162    .text:0000000000000090 .LBE179
     /tmp/ccpWTA4I.s:6510   .debug_loc:000000000000027b .LLST5
     /tmp/ccpWTA4I.s:175    .text:00000000000000a8 .LBB181
     /tmp/ccpWTA4I.s:189    .text:00000000000000b0 .LBE181
     /tmp/ccpWTA4I.s:6519   .debug_loc:00000000000002a1 .LLST6
     /tmp/ccpWTA4I.s:661    .text:00000000000001bc .LBB186
     /tmp/ccpWTA4I.s:804    .text:0000000000000234 .LBE186
     /tmp/ccpWTA4I.s:6526   .debug_loc:00000000000002c4 .LLST7
     /tmp/ccpWTA4I.s:7231   .debug_str:00000000000003e0 .LASF208
     /tmp/ccpWTA4I.s:6533   .debug_loc:00000000000002e7 .LLST8
     /tmp/ccpWTA4I.s:6540   .debug_loc:000000000000030a .LLST9
     /tmp/ccpWTA4I.s:7481   .debug_str:0000000000000c9d .LASF209
     /tmp/ccpWTA4I.s:6547   .debug_loc:000000000000032d .LLST10
     /tmp/ccpWTA4I.s:7483   .debug_str:0000000000000ca2 .LASF210
     /tmp/ccpWTA4I.s:6554   .debug_loc:0000000000000350 .LLST11
     /tmp/ccpWTA4I.s:6561   .debug_loc:0000000000000373 .LLST12
     /tmp/ccpWTA4I.s:6572   .debug_loc:00000000000003a9 .LLST13
     /tmp/ccpWTA4I.s:6579   .debug_loc:00000000000003cc .LLST14
     /tmp/ccpWTA4I.s:663    .text:00000000000001bc .LBB187
     /tmp/ccpWTA4I.s:678    .text:00000000000001c8 .LBE187
     /tmp/ccpWTA4I.s:683    .text:00000000000001cc .LBB189
     /tmp/ccpWTA4I.s:699    .text:00000000000001d8 .LBE189
     /tmp/ccpWTA4I.s:771    .text:0000000000000220 .LBB191
     /tmp/ccpWTA4I.s:782    .text:0000000000000224 .LBE191
     /tmp/ccpWTA4I.s:6586   .debug_loc:00000000000003ef .LLST15
     /tmp/ccpWTA4I.s:784    .text:0000000000000224 .LBB193
     /tmp/ccpWTA4I.s:798    .text:000000000000022c .LBE193
     /tmp/ccpWTA4I.s:6593   .debug_loc:0000000000000412 .LLST16
     /tmp/ccpWTA4I.s:742    .text:00000000000001fc .LVL32
     /tmp/ccpWTA4I.s:751    .text:0000000000000210 .LVL35
     /tmp/ccpWTA4I.s:807    .text:0000000000000234 .LBB371
     /tmp/ccpWTA4I.s:903    .text:0000000000000274 .LBE371
     /tmp/ccpWTA4I.s:6600   .debug_loc:0000000000000435 .LLST75
     /tmp/ccpWTA4I.s:6607   .debug_loc:0000000000000458 .LLST76
     /tmp/ccpWTA4I.s:6614   .debug_loc:000000000000047b .LLST77
     /tmp/ccpWTA4I.s:809    .text:0000000000000234 .LBB372
     /tmp/ccpWTA4I.s:825    .text:0000000000000240 .LBE372
     /tmp/ccpWTA4I.s:830    .text:0000000000000244 .LBB374
     /tmp/ccpWTA4I.s:846    .text:0000000000000250 .LBE374
     /tmp/ccpWTA4I.s:875    .text:0000000000000268 .LBB376
     /tmp/ccpWTA4I.s:886    .text:000000000000026c .LBE376
     /tmp/ccpWTA4I.s:6621   .debug_loc:000000000000049e .LLST78
     /tmp/ccpWTA4I.s:888    .text:000000000000026c .LBB378
GAS LISTING /tmp/ccpWTA4I.s 			page 70


     /tmp/ccpWTA4I.s:902    .text:0000000000000274 .LBE378
     /tmp/ccpWTA4I.s:6628   .debug_loc:00000000000004c1 .LLST79
     /tmp/ccpWTA4I.s:865    .text:0000000000000264 .LVL46
     /tmp/ccpWTA4I.s:905    .text:0000000000000274 .LBB352
     /tmp/ccpWTA4I.s:999    .text:00000000000002b0 .LBE352
     /tmp/ccpWTA4I.s:6635   .debug_loc:00000000000004e4 .LLST70
     /tmp/ccpWTA4I.s:6642   .debug_loc:0000000000000507 .LLST71
     /tmp/ccpWTA4I.s:6649   .debug_loc:000000000000052a .LLST72
     /tmp/ccpWTA4I.s:907    .text:0000000000000274 .LBB353
     /tmp/ccpWTA4I.s:923    .text:0000000000000280 .LBE353
     /tmp/ccpWTA4I.s:928    .text:0000000000000284 .LBB355
     /tmp/ccpWTA4I.s:944    .text:0000000000000290 .LBE355
     /tmp/ccpWTA4I.s:971    .text:00000000000002a4 .LBB357
     /tmp/ccpWTA4I.s:982    .text:00000000000002a8 .LBE357
     /tmp/ccpWTA4I.s:6656   .debug_loc:000000000000054d .LLST73
     /tmp/ccpWTA4I.s:984    .text:00000000000002a8 .LBB359
     /tmp/ccpWTA4I.s:998    .text:00000000000002b0 .LBE359
     /tmp/ccpWTA4I.s:6663   .debug_loc:0000000000000570 .LLST74
     /tmp/ccpWTA4I.s:961    .text:00000000000002a0 .LVL54
     /tmp/ccpWTA4I.s:1001   .text:00000000000002b0 .LBB334
     /tmp/ccpWTA4I.s:1081   .text:00000000000002f4 .LBE334
     /tmp/ccpWTA4I.s:6670   .debug_loc:0000000000000593 .LLST66
     /tmp/ccpWTA4I.s:6677   .debug_loc:00000000000005b6 .LLST67
     /tmp/ccpWTA4I.s:1003   .text:00000000000002b0 .LBB335
     /tmp/ccpWTA4I.s:1019   .text:00000000000002bc .LBE335
     /tmp/ccpWTA4I.s:1024   .text:00000000000002c0 .LBB337
     /tmp/ccpWTA4I.s:1040   .text:00000000000002cc .LBE337
     /tmp/ccpWTA4I.s:1053   .text:00000000000002e8 .LBB339
     /tmp/ccpWTA4I.s:1064   .text:00000000000002ec .LBE339
     /tmp/ccpWTA4I.s:6684   .debug_loc:00000000000005d9 .LLST68
     /tmp/ccpWTA4I.s:1066   .text:00000000000002ec .LBB341
     /tmp/ccpWTA4I.s:1080   .text:00000000000002f4 .LBE341
     /tmp/ccpWTA4I.s:6691   .debug_loc:00000000000005fc .LLST69
     /tmp/ccpWTA4I.s:1051   .text:00000000000002e8 .LVL61
     /tmp/ccpWTA4I.s:1083   .text:00000000000002f4 .LBB317
     /tmp/ccpWTA4I.s:1156   .text:0000000000000324 .LBE317
     /tmp/ccpWTA4I.s:6698   .debug_loc:000000000000061f .LLST62
     /tmp/ccpWTA4I.s:6705   .debug_loc:0000000000000642 .LLST63
     /tmp/ccpWTA4I.s:1085   .text:00000000000002f4 .LBB318
     /tmp/ccpWTA4I.s:1101   .text:0000000000000300 .LBE318
     /tmp/ccpWTA4I.s:1106   .text:0000000000000304 .LBB320
     /tmp/ccpWTA4I.s:1122   .text:0000000000000310 .LBE320
     /tmp/ccpWTA4I.s:1128   .text:0000000000000318 .LBB322
     /tmp/ccpWTA4I.s:1139   .text:000000000000031c .LBE322
     /tmp/ccpWTA4I.s:6712   .debug_loc:0000000000000665 .LLST64
     /tmp/ccpWTA4I.s:1141   .text:000000000000031c .LBB324
     /tmp/ccpWTA4I.s:1155   .text:0000000000000324 .LBE324
     /tmp/ccpWTA4I.s:6719   .debug_loc:0000000000000688 .LLST65
     /tmp/ccpWTA4I.s:1126   .text:0000000000000318 .LVL67
     /tmp/ccpWTA4I.s:1158   .text:0000000000000324 .LBB301
     /tmp/ccpWTA4I.s:1235   .text:0000000000000360 .LBE301
     /tmp/ccpWTA4I.s:6726   .debug_loc:00000000000006ab .LLST58
     /tmp/ccpWTA4I.s:6733   .debug_loc:00000000000006ce .LLST59
     /tmp/ccpWTA4I.s:1160   .text:0000000000000324 .LBB302
     /tmp/ccpWTA4I.s:1176   .text:0000000000000330 .LBE302
     /tmp/ccpWTA4I.s:1181   .text:0000000000000334 .LBB304
     /tmp/ccpWTA4I.s:1197   .text:0000000000000340 .LBE304
GAS LISTING /tmp/ccpWTA4I.s 			page 71


     /tmp/ccpWTA4I.s:1207   .text:0000000000000354 .LBB306
     /tmp/ccpWTA4I.s:1218   .text:0000000000000358 .LBE306
     /tmp/ccpWTA4I.s:6740   .debug_loc:00000000000006f1 .LLST60
     /tmp/ccpWTA4I.s:1220   .text:0000000000000358 .LBB308
     /tmp/ccpWTA4I.s:1234   .text:0000000000000360 .LBE308
     /tmp/ccpWTA4I.s:6747   .debug_loc:0000000000000714 .LLST61
     /tmp/ccpWTA4I.s:1205   .text:0000000000000354 .LVL73
     /tmp/ccpWTA4I.s:1237   .text:0000000000000360 .LBB282
     /tmp/ccpWTA4I.s:1382   .text:00000000000003d0 .LBE282
     /tmp/ccpWTA4I.s:6754   .debug_loc:0000000000000737 .LLST47
     /tmp/ccpWTA4I.s:6761   .debug_loc:000000000000075a .LLST48
     /tmp/ccpWTA4I.s:6768   .debug_loc:000000000000077d .LLST49
     /tmp/ccpWTA4I.s:6775   .debug_loc:00000000000007a0 .LLST50
     /tmp/ccpWTA4I.s:6782   .debug_loc:00000000000007c3 .LLST51
     /tmp/ccpWTA4I.s:6789   .debug_loc:00000000000007e6 .LLST52
     /tmp/ccpWTA4I.s:1239   .text:0000000000000360 .LBB283
     /tmp/ccpWTA4I.s:1255   .text:000000000000036c .LBE283
     /tmp/ccpWTA4I.s:1260   .text:0000000000000370 .LBB285
     /tmp/ccpWTA4I.s:1276   .text:000000000000037c .LBE285
     /tmp/ccpWTA4I.s:1308   .text:0000000000000398 .LBB287
     /tmp/ccpWTA4I.s:1324   .text:00000000000003a4 .LBE287
     /tmp/ccpWTA4I.s:6806   .debug_loc:0000000000000831 .LLST53
     /tmp/ccpWTA4I.s:6813   .debug_loc:0000000000000854 .LLST54
     /tmp/ccpWTA4I.s:1314   .text:000000000000039c .LBB289
     /tmp/ccpWTA4I.s:1322   .text:00000000000003a4 .LBE289
     /tmp/ccpWTA4I.s:6820   .debug_loc:0000000000000877 .LLST55
     /tmp/ccpWTA4I.s:1349   .text:00000000000003bc .LBB291
     /tmp/ccpWTA4I.s:1360   .text:00000000000003c0 .LBE291
     /tmp/ccpWTA4I.s:6829   .debug_loc:000000000000089c .LLST56
     /tmp/ccpWTA4I.s:1362   .text:00000000000003c0 .LBB293
     /tmp/ccpWTA4I.s:1376   .text:00000000000003c8 .LBE293
     /tmp/ccpWTA4I.s:6836   .debug_loc:00000000000008bf .LLST57
     /tmp/ccpWTA4I.s:1307   .text:0000000000000398 .LVL81
     /tmp/ccpWTA4I.s:1384   .text:00000000000003d0 .LBB258
     /tmp/ccpWTA4I.s:1550   .text:0000000000000468 .LBE258
     /tmp/ccpWTA4I.s:6843   .debug_loc:00000000000008e2 .LLST35
     /tmp/ccpWTA4I.s:6850   .debug_loc:0000000000000905 .LLST36
     /tmp/ccpWTA4I.s:6857   .debug_loc:0000000000000928 .LLST37
     /tmp/ccpWTA4I.s:7091   .debug_ranges:0000000000000000 .Ldebug_ranges0
     /tmp/ccpWTA4I.s:6864   .debug_loc:000000000000094b .LLST39
     /tmp/ccpWTA4I.s:1442   .text:00000000000003f8 .LBB264
     /tmp/ccpWTA4I.s:6871   .debug_loc:000000000000096e .LLST40
     /tmp/ccpWTA4I.s:6886   .debug_loc:00000000000009a8 .LLST41
     /tmp/ccpWTA4I.s:6897   .debug_loc:00000000000009de .LLST42
     /tmp/ccpWTA4I.s:1449   .text:0000000000000404 .LVL95
     /tmp/ccpWTA4I.s:1453   .text:0000000000000404 .LBB267
     /tmp/ccpWTA4I.s:1462   .text:000000000000040c .LBE267
     /tmp/ccpWTA4I.s:6904   .debug_loc:0000000000000a01 .LLST43
     /tmp/ccpWTA4I.s:1473   .text:0000000000000424 .LVL97
     /tmp/ccpWTA4I.s:1386   .text:00000000000003d0 .LBB259
     /tmp/ccpWTA4I.s:1401   .text:00000000000003dc .LBE259
     /tmp/ccpWTA4I.s:1406   .text:00000000000003e0 .LBB261
     /tmp/ccpWTA4I.s:1422   .text:00000000000003ec .LBE261
     /tmp/ccpWTA4I.s:1478   .text:0000000000000424 .LBB270
     /tmp/ccpWTA4I.s:1488   .text:0000000000000430 .LBE270
     /tmp/ccpWTA4I.s:6911   .debug_loc:0000000000000a24 .LLST44
     /tmp/ccpWTA4I.s:1522   .text:000000000000045c .LBB273
GAS LISTING /tmp/ccpWTA4I.s 			page 72


     /tmp/ccpWTA4I.s:1533   .text:0000000000000460 .LBE273
     /tmp/ccpWTA4I.s:6920   .debug_loc:0000000000000a49 .LLST45
     /tmp/ccpWTA4I.s:1535   .text:0000000000000460 .LBB275
     /tmp/ccpWTA4I.s:1549   .text:0000000000000468 .LBE275
     /tmp/ccpWTA4I.s:6927   .debug_loc:0000000000000a6c .LLST46
     /tmp/ccpWTA4I.s:1519   .text:000000000000045c .LVL101
     /tmp/ccpWTA4I.s:1552   .text:0000000000000468 .LBB245
     /tmp/ccpWTA4I.s:1648   .text:00000000000004a4 .LBE245
     /tmp/ccpWTA4I.s:6934   .debug_loc:0000000000000a8f .LLST29
     /tmp/ccpWTA4I.s:6941   .debug_loc:0000000000000ab2 .LLST30
     /tmp/ccpWTA4I.s:6948   .debug_loc:0000000000000ad5 .LLST31
     /tmp/ccpWTA4I.s:6955   .debug_loc:0000000000000af8 .LLST32
     /tmp/ccpWTA4I.s:1554   .text:0000000000000468 .LBB246
     /tmp/ccpWTA4I.s:1570   .text:0000000000000474 .LBE246
     /tmp/ccpWTA4I.s:1575   .text:0000000000000478 .LBB248
     /tmp/ccpWTA4I.s:1591   .text:0000000000000484 .LBE248
     /tmp/ccpWTA4I.s:1620   .text:0000000000000498 .LBB250
     /tmp/ccpWTA4I.s:1631   .text:000000000000049c .LBE250
     /tmp/ccpWTA4I.s:6962   .debug_loc:0000000000000b1b .LLST33
     /tmp/ccpWTA4I.s:1633   .text:000000000000049c .LBB252
     /tmp/ccpWTA4I.s:1647   .text:00000000000004a4 .LBE252
     /tmp/ccpWTA4I.s:6969   .debug_loc:0000000000000b3e .LLST34
     /tmp/ccpWTA4I.s:1610   .text:0000000000000494 .LVL108
     /tmp/ccpWTA4I.s:1650   .text:00000000000004a4 .LBB233
     /tmp/ccpWTA4I.s:1748   .text:00000000000004e4 .LBE233
     /tmp/ccpWTA4I.s:6976   .debug_loc:0000000000000b61 .LLST23
     /tmp/ccpWTA4I.s:6983   .debug_loc:0000000000000b84 .LLST24
     /tmp/ccpWTA4I.s:6990   .debug_loc:0000000000000ba7 .LLST25
     /tmp/ccpWTA4I.s:6997   .debug_loc:0000000000000bca .LLST26
     /tmp/ccpWTA4I.s:1652   .text:00000000000004a4 .LBB234
     /tmp/ccpWTA4I.s:1668   .text:00000000000004b0 .LBE234
     /tmp/ccpWTA4I.s:1673   .text:00000000000004b4 .LBB236
     /tmp/ccpWTA4I.s:1689   .text:00000000000004c0 .LBE236
     /tmp/ccpWTA4I.s:1720   .text:00000000000004d8 .LBB238
     /tmp/ccpWTA4I.s:1731   .text:00000000000004dc .LBE238
     /tmp/ccpWTA4I.s:7005   .debug_loc:0000000000000bee .LLST27
     /tmp/ccpWTA4I.s:1733   .text:00000000000004dc .LBB240
     /tmp/ccpWTA4I.s:1747   .text:00000000000004e4 .LBE240
     /tmp/ccpWTA4I.s:7012   .debug_loc:0000000000000c11 .LLST28
     /tmp/ccpWTA4I.s:1708   .text:00000000000004d0 .LVL116
     /tmp/ccpWTA4I.s:1750   .text:00000000000004e4 .LBB219
     /tmp/ccpWTA4I.s:1861   .text:0000000000000530 .LBE219
     /tmp/ccpWTA4I.s:1752   .text:00000000000004e4 .LBB220
     /tmp/ccpWTA4I.s:1768   .text:00000000000004f0 .LBE220
     /tmp/ccpWTA4I.s:1773   .text:00000000000004f4 .LBB222
     /tmp/ccpWTA4I.s:1789   .text:0000000000000500 .LBE222
     /tmp/ccpWTA4I.s:1794   .text:0000000000000508 .LBB224
     /tmp/ccpWTA4I.s:1805   .text:000000000000050c .LBE224
     /tmp/ccpWTA4I.s:1814   .text:000000000000051c .LBB226
     /tmp/ccpWTA4I.s:1825   .text:0000000000000520 .LBE226
     /tmp/ccpWTA4I.s:1835   .text:0000000000000524 .LBB228
     /tmp/ccpWTA4I.s:1846   .text:0000000000000528 .LBE228
     /tmp/ccpWTA4I.s:7019   .debug_loc:0000000000000c34 .LLST22
     /tmp/ccpWTA4I.s:1848   .text:0000000000000528 .LBB230
     /tmp/ccpWTA4I.s:1860   .text:0000000000000530 .LBE230
     /tmp/ccpWTA4I.s:1809   .text:0000000000000514 .LVL125
     /tmp/ccpWTA4I.s:512    .text:000000000000015c .LBB206
GAS LISTING /tmp/ccpWTA4I.s 			page 73


     /tmp/ccpWTA4I.s:629    .text:00000000000001ac .LBE206
     /tmp/ccpWTA4I.s:7026   .debug_loc:0000000000000c57 .LLST17
     /tmp/ccpWTA4I.s:7033   .debug_loc:0000000000000c7a .LLST18
     /tmp/ccpWTA4I.s:7040   .debug_loc:0000000000000c9d .LLST19
     /tmp/ccpWTA4I.s:514    .text:000000000000015c .LBB207
     /tmp/ccpWTA4I.s:530    .text:0000000000000168 .LBE207
     /tmp/ccpWTA4I.s:535    .text:000000000000016c .LBB209
     /tmp/ccpWTA4I.s:551    .text:0000000000000178 .LBE209
     /tmp/ccpWTA4I.s:571    .text:000000000000018c .LBB211
     /tmp/ccpWTA4I.s:582    .text:0000000000000190 .LBE211
     /tmp/ccpWTA4I.s:591    .text:00000000000001a0 .LBB213
     /tmp/ccpWTA4I.s:602    .text:00000000000001a4 .LBE213
     /tmp/ccpWTA4I.s:604    .text:00000000000001a4 .LBB215
     /tmp/ccpWTA4I.s:615    .text:00000000000001a8 .LBE215
     /tmp/ccpWTA4I.s:7047   .debug_loc:0000000000000cc0 .LLST20
     /tmp/ccpWTA4I.s:617    .text:00000000000001a8 .LBB217
     /tmp/ccpWTA4I.s:628    .text:00000000000001ac .LBE217
     /tmp/ccpWTA4I.s:7054   .debug_loc:0000000000000ce3 .LLST21
     /tmp/ccpWTA4I.s:586    .text:0000000000000198 .LVL19
     /tmp/ccpWTA4I.s:88     .text:0000000000000050 .LBB172
     /tmp/ccpWTA4I.s:104    .text:000000000000005c .LBE172
     /tmp/ccpWTA4I.s:193    .text:00000000000000b0 .LBB420
     /tmp/ccpWTA4I.s:206    .text:00000000000000b8 .LBE420
     /tmp/ccpWTA4I.s:7061   .debug_loc:0000000000000d06 .LLST80
     /tmp/ccpWTA4I.s:655    .text:00000000000001b8 .LVL25
     /tmp/ccpWTA4I.s:10     .text:0000000000000000 .LFB52
     /tmp/ccpWTA4I.s:58     .text:0000000000000028 .LFE52
     /tmp/ccpWTA4I.s:29     .text:0000000000000010 .LBB170
     /tmp/ccpWTA4I.s:42     .text:0000000000000018 .LBE170
     /tmp/ccpWTA4I.s:7069   .debug_loc:0000000000000d2a .LLST0
     /tmp/ccpWTA4I.s:7131   .debug_str:0000000000000096 .LASF213
     /tmp/ccpWTA4I.s:7361   .debug_str:000000000000086c .LASF212
     /tmp/ccpWTA4I.s:7499   .debug_str:0000000000000d28 .LASF214
     /tmp/ccpWTA4I.s:7301   .debug_str:0000000000000660 .LASF215
     /tmp/ccpWTA4I.s:7217   .debug_str:0000000000000356 .LASF216
     /tmp/ccpWTA4I.s:7239   .debug_str:0000000000000414 .LASF217
     /tmp/ccpWTA4I.s:7309   .debug_str:0000000000000697 .LASF218
     /tmp/ccpWTA4I.s:1909   .text:000000000000054c .LVL130
     /tmp/ccpWTA4I.s:1922   .text:000000000000056c .LVL131
     /tmp/ccpWTA4I.s:1934   .text:000000000000057c .LVL132
     /tmp/ccpWTA4I.s:1954   .text:0000000000000590 .LVL134
     /tmp/ccpWTA4I.s:1968   .text:0000000000000598 .LVL135
     /tmp/ccpWTA4I.s:102    .text:000000000000005c .LVL2
     /tmp/ccpWTA4I.s:154    .text:000000000000008c .LVL5
     /tmp/ccpWTA4I.s:186    .text:00000000000000b0 .LVL8
     /tmp/ccpWTA4I.s:202    .text:00000000000000b8 .LVL9
     /tmp/ccpWTA4I.s:230    .text:00000000000000e0 .LVL10
     /tmp/ccpWTA4I.s:251    .text:00000000000000f4 .LVL11
     /tmp/ccpWTA4I.s:267    .text:0000000000000104 .LVL12
     /tmp/ccpWTA4I.s:647    .text:00000000000001b0 .LVL24
     /tmp/ccpWTA4I.s:657    .text:00000000000001bc .LVL26
     /tmp/ccpWTA4I.s:113    .text:0000000000000060 .LVL3
     /tmp/ccpWTA4I.s:528    .text:0000000000000168 .LVL13
     /tmp/ccpWTA4I.s:823    .text:0000000000000240 .LVL41
     /tmp/ccpWTA4I.s:899    .text:0000000000000274 .LVL49
     /tmp/ccpWTA4I.s:921    .text:0000000000000280 .LVL50
     /tmp/ccpWTA4I.s:995    .text:00000000000002b0 .LVL57
GAS LISTING /tmp/ccpWTA4I.s 			page 74


     /tmp/ccpWTA4I.s:1017   .text:00000000000002bc .LVL58
     /tmp/ccpWTA4I.s:1077   .text:00000000000002f4 .LVL63
     /tmp/ccpWTA4I.s:1099   .text:0000000000000300 .LVL64
     /tmp/ccpWTA4I.s:1152   .text:0000000000000324 .LVL69
     /tmp/ccpWTA4I.s:1174   .text:0000000000000330 .LVL70
     /tmp/ccpWTA4I.s:1231   .text:0000000000000360 .LVL75
     /tmp/ccpWTA4I.s:1253   .text:000000000000036c .LVL76
     /tmp/ccpWTA4I.s:1380   .text:00000000000003d0 .LVL89
     /tmp/ccpWTA4I.s:1435   .text:00000000000003f4 .LVL92
     /tmp/ccpWTA4I.s:1546   .text:0000000000000468 .LVL103
     /tmp/ccpWTA4I.s:1568   .text:0000000000000474 .LVL104
     /tmp/ccpWTA4I.s:1644   .text:00000000000004a4 .LVL111
     /tmp/ccpWTA4I.s:1666   .text:00000000000004b0 .LVL112
     /tmp/ccpWTA4I.s:1744   .text:00000000000004e4 .LVL119
     /tmp/ccpWTA4I.s:1766   .text:00000000000004f0 .LVL120
     /tmp/ccpWTA4I.s:858    .text:0000000000000258 .LVL44
     /tmp/ccpWTA4I.s:863    .text:000000000000025c .LVL45
     /tmp/ccpWTA4I.s:956    .text:0000000000000298 .LVL53
     /tmp/ccpWTA4I.s:145    .text:0000000000000088 .LVL4
     /tmp/ccpWTA4I.s:174    .text:00000000000000a8 .LVL7
     /tmp/ccpWTA4I.s:159    .text:0000000000000090 .LVL6
     /tmp/ccpWTA4I.s:681    .text:00000000000001cc .LVL27
     /tmp/ccpWTA4I.s:802    .text:0000000000000234 .LVL40
     /tmp/ccpWTA4I.s:697    .text:00000000000001d8 .LVL28
     /tmp/ccpWTA4I.s:724    .text:00000000000001e8 .LVL29
     /tmp/ccpWTA4I.s:730    .text:00000000000001ec .LVL30
     /tmp/ccpWTA4I.s:736    .text:00000000000001f0 .LVL31
     /tmp/ccpWTA4I.s:744    .text:0000000000000200 .LVL33
     /tmp/ccpWTA4I.s:749    .text:0000000000000208 .LVL34
     /tmp/ccpWTA4I.s:761    .text:000000000000021c .LVL36
     /tmp/ccpWTA4I.s:795    .text:000000000000022c .LVL39
     /tmp/ccpWTA4I.s:769    .text:0000000000000220 .LVL37
     /tmp/ccpWTA4I.s:779    .text:0000000000000224 .LVL38
     /tmp/ccpWTA4I.s:828    .text:0000000000000244 .LVL42
     /tmp/ccpWTA4I.s:844    .text:0000000000000250 .LVL43
     /tmp/ccpWTA4I.s:873    .text:0000000000000268 .LVL47
     /tmp/ccpWTA4I.s:883    .text:000000000000026c .LVL48
     /tmp/ccpWTA4I.s:926    .text:0000000000000284 .LVL51
     /tmp/ccpWTA4I.s:942    .text:0000000000000290 .LVL52
     /tmp/ccpWTA4I.s:969    .text:00000000000002a4 .LVL55
     /tmp/ccpWTA4I.s:979    .text:00000000000002a8 .LVL56
     /tmp/ccpWTA4I.s:1022   .text:00000000000002c0 .LVL59
     /tmp/ccpWTA4I.s:1038   .text:00000000000002cc .LVL60
     /tmp/ccpWTA4I.s:1061   .text:00000000000002ec .LVL62
     /tmp/ccpWTA4I.s:1104   .text:0000000000000304 .LVL65
     /tmp/ccpWTA4I.s:1120   .text:0000000000000310 .LVL66
     /tmp/ccpWTA4I.s:1136   .text:000000000000031c .LVL68
     /tmp/ccpWTA4I.s:1179   .text:0000000000000334 .LVL71
     /tmp/ccpWTA4I.s:1195   .text:0000000000000340 .LVL72
     /tmp/ccpWTA4I.s:1215   .text:0000000000000358 .LVL74
     /tmp/ccpWTA4I.s:1258   .text:0000000000000370 .LVL77
     /tmp/ccpWTA4I.s:1274   .text:000000000000037c .LVL78
     /tmp/ccpWTA4I.s:1295   .text:0000000000000388 .LVL79
     /tmp/ccpWTA4I.s:1301   .text:000000000000038c .LVL80
     /tmp/ccpWTA4I.s:1320   .text:00000000000003a4 .LVL83
     /tmp/ccpWTA4I.s:1333   .text:00000000000003b0 .LVL84
     /tmp/ccpWTA4I.s:1339   .text:00000000000003b8 .LVL85
GAS LISTING /tmp/ccpWTA4I.s 			page 75


     /tmp/ccpWTA4I.s:1373   .text:00000000000003c8 .LVL88
     /tmp/ccpWTA4I.s:1313   .text:000000000000039c .LVL82
     /tmp/ccpWTA4I.s:1347   .text:00000000000003bc .LVL86
     /tmp/ccpWTA4I.s:1357   .text:00000000000003c0 .LVL87
     /tmp/ccpWTA4I.s:1404   .text:00000000000003e0 .LVL90
     /tmp/ccpWTA4I.s:1420   .text:00000000000003ec .LVL91
     /tmp/ccpWTA4I.s:1439   .text:00000000000003f8 .LVL93
     /tmp/ccpWTA4I.s:1493   .text:0000000000000434 .LVL99
     /tmp/ccpWTA4I.s:1505   .text:0000000000000448 .LVL100
     /tmp/ccpWTA4I.s:1446   .text:00000000000003fc .LVL94
     /tmp/ccpWTA4I.s:1460   .text:000000000000040c .LVL96
     /tmp/ccpWTA4I.s:1486   .text:0000000000000430 .LVL98
     /tmp/ccpWTA4I.s:1530   .text:0000000000000460 .LVL102
     /tmp/ccpWTA4I.s:1573   .text:0000000000000478 .LVL105
     /tmp/ccpWTA4I.s:1589   .text:0000000000000484 .LVL106
     /tmp/ccpWTA4I.s:1604   .text:000000000000048c .LVL107
     /tmp/ccpWTA4I.s:1618   .text:0000000000000498 .LVL109
     /tmp/ccpWTA4I.s:1628   .text:000000000000049c .LVL110
     /tmp/ccpWTA4I.s:1671   .text:00000000000004b4 .LVL113
     /tmp/ccpWTA4I.s:1687   .text:00000000000004c0 .LVL114
     /tmp/ccpWTA4I.s:1702   .text:00000000000004c8 .LVL115
     /tmp/ccpWTA4I.s:1718   .text:00000000000004d8 .LVL117
     /tmp/ccpWTA4I.s:1728   .text:00000000000004dc .LVL118
     /tmp/ccpWTA4I.s:1833   .text:0000000000000524 .LVL128
     /tmp/ccpWTA4I.s:1843   .text:0000000000000528 .LVL129
     /tmp/ccpWTA4I.s:533    .text:000000000000016c .LVL14
     /tmp/ccpWTA4I.s:549    .text:0000000000000178 .LVL15
     /tmp/ccpWTA4I.s:566    .text:0000000000000184 .LVL16
     /tmp/ccpWTA4I.s:599    .text:00000000000001a4 .LVL21
     /tmp/ccpWTA4I.s:612    .text:00000000000001a8 .LVL22
     /tmp/ccpWTA4I.s:625    .text:00000000000001ac .LVL23
     /tmp/ccpWTA4I.s:27     .text:0000000000000010 .LVL0
     /tmp/ccpWTA4I.s:39     .text:0000000000000018 .LVL1
     /tmp/ccpWTA4I.s:1997   .debug_info:0000000000000000 .Ldebug_info0
     /tmp/ccpWTA4I.s:1441   .text:00000000000003f8 .LBB263
     /tmp/ccpWTA4I.s:1475   .text:0000000000000424 .LBE263
     /tmp/ccpWTA4I.s:1491   .text:0000000000000434 .LBB272
     /tmp/ccpWTA4I.s:1509   .text:0000000000000448 .LBE272
     /tmp/ccpWTA4I.s:1451   .text:0000000000000404 .LBE264
     /tmp/ccpWTA4I.s:1494   .text:0000000000000434 .LBB269
     /tmp/ccpWTA4I.s:1508   .text:0000000000000448 .LBE269

UNDEFINED SYMBOLS
_ZN5Riscv11TrapConsoleEv
__putc
_ZN5Riscv14supervisorTrapEv
console_handler
_ZN15MemoryAllocator10kmem_allocEm
_ZN7_thread12createThreadEPFvPvES0_Pm
_ZN15MemoryAllocator9kmem_freeEPv
_ZN7_thread7runningE
_ZN7_thread8dispatchEv
_ZN7_thread16timeSliceCounterE
_ZN10KSemaphorenwEm
_ZN9Scheduler3putEP7_thread
_ZN10KSemaphoredlEPv
_ZN10KSemaphore4waitEv
GAS LISTING /tmp/ccpWTA4I.s 			page 76


_ZN10KSemaphore6signalEv
__getc
