GAS LISTING /tmp/ccqbD3JW.s 			page 1


   1              		.file	"TCB.cpp"
   2              		.option pic
   3              		.option norelax
   4              		.text
   5              	.Ltext0:
   6              		.align	2
   7              		.globl	_ZN3TCB13threadWrapperEv
   9              	_ZN3TCB13threadWrapperEv:
  10              	.LFB27:
  11              		.file 1 "src/TCB.cpp"
   1:src/TCB.cpp   **** //
   2:src/TCB.cpp   **** // Created by os on 6/20/22.
   3:src/TCB.cpp   **** //
   4:src/TCB.cpp   **** 
   5:src/TCB.cpp   **** #include "../h/TCB.hpp"
   6:src/TCB.cpp   **** #include "../h/Scheduler.hpp"
   7:src/TCB.cpp   **** 
   8:src/TCB.cpp   **** TCB* TCB::running = nullptr;
   9:src/TCB.cpp   **** 
  10:src/TCB.cpp   **** uint64 TCB::timeSliceCounter = 0;
  11:src/TCB.cpp   **** uint64 TCB::globalId=0;
  12:src/TCB.cpp   **** 
  13:src/TCB.cpp   **** TCB* TCB::createThread(Body body) {
  14:src/TCB.cpp   ****     return new TCB(body, DEFAULT_TIME_SLICE);
  15:src/TCB.cpp   **** }
  16:src/TCB.cpp   **** 
  17:src/TCB.cpp   **** TCB::TCB(Body body, uint64 timeSlice):
  18:src/TCB.cpp   ****         body(body),
  19:src/TCB.cpp   ****         stack(body!= nullptr ? new uint64[DEFAULT_STACK_SIZE]: nullptr),
  20:src/TCB.cpp   ****         context({(uint64)&threadWrapper,
  21:src/TCB.cpp   ****                  stack != nullptr ? (uint64)&stack[DEFAULT_STACK_SIZE]:0
  22:src/TCB.cpp   ****                 }),
  23:src/TCB.cpp   ****         timeSlice(timeSlice),
  24:src/TCB.cpp   ****         finished(false)
  25:src/TCB.cpp   **** {
  26:src/TCB.cpp   ****     status = Status::NEW;
  27:src/TCB.cpp   ****     id = globalId++;
  28:src/TCB.cpp   **** }
  29:src/TCB.cpp   **** 
  30:src/TCB.cpp   **** void TCB::start() {
  31:src/TCB.cpp   ****     if(this->status==FINISHED)return;
  32:src/TCB.cpp   ****     if(this->status==READY)return;
  33:src/TCB.cpp   **** 
  34:src/TCB.cpp   ****     //set thread to ready and put it to scheduler
  35:src/TCB.cpp   ****     this->status=Status::READY;
  36:src/TCB.cpp   ****     Scheduler::put(this);
  37:src/TCB.cpp   **** }
  38:src/TCB.cpp   **** 
  39:src/TCB.cpp   **** void TCB::yield() {
  40:src/TCB.cpp   ****     //save current value of a0 for later to restore
  41:src/TCB.cpp   ****     uint64 a0reg;
  42:src/TCB.cpp   ****     __asm__ volatile("mv %0, a0" : "=r" (a0reg));
  43:src/TCB.cpp   **** 
  44:src/TCB.cpp   ****     uint64 flag = 0x04;
  45:src/TCB.cpp   ****     //write flag to a0 so that the trapHandler knows to do dispatch, not syscall
  46:src/TCB.cpp   ****     __asm__ volatile("mv a0, %0" : : "r" (flag));
  47:src/TCB.cpp   ****     __asm__ volatile ("ecall");
GAS LISTING /tmp/ccqbD3JW.s 			page 2


  48:src/TCB.cpp   **** 
  49:src/TCB.cpp   ****     //restore a0 value
  50:src/TCB.cpp   ****     __asm__ volatile("mv a0, %0" : : "r" (a0reg));
  51:src/TCB.cpp   **** 
  52:src/TCB.cpp   **** }
  53:src/TCB.cpp   **** 
  54:src/TCB.cpp   **** void TCB::dispatch() {
  55:src/TCB.cpp   ****     TCB* old = running;
  56:src/TCB.cpp   ****     if(!old->isFinished()) { Scheduler::put(old); }
  57:src/TCB.cpp   ****     running = Scheduler::get();
  58:src/TCB.cpp   **** 
  59:src/TCB.cpp   ****     TCB::contextSwitch(&old->context, &running->context);
  60:src/TCB.cpp   **** }
  61:src/TCB.cpp   **** 
  62:src/TCB.cpp   **** void TCB::threadWrapper() {
  12              		.loc 1 62 27
  13              		.cfi_startproc
  14 0000 130101FF 		addi	sp,sp,-16
  15              		.cfi_def_cfa_offset 16
  16 0004 23348100 		sd	s0,8(sp)
  17              		.cfi_offset 8, -8
  18 0008 13040101 		addi	s0,sp,16
  19              		.cfi_def_cfa 8, 0
  63:src/TCB.cpp   **** 
  64:src/TCB.cpp   **** }
  20              		.loc 1 64 1 is_stmt 0
  21 000c 03348100 		ld	s0,8(sp)
  22              		.cfi_restore 8
  23              		.cfi_def_cfa 2, 16
  24 0010 13010101 		addi	sp,sp,16
  25              		.cfi_def_cfa_offset 0
  26 0014 67800000 		jr	ra
  27              		.cfi_endproc
  28              	.LFE27:
  30              		.align	2
  31              		.globl	_ZN3TCBC2EPFvvEm
  33              	_ZN3TCBC2EPFvvEm:
  34              	.LFB22:
  17:src/TCB.cpp   ****         body(body),
  35              		.loc 1 17 1 is_stmt 1
  36              		.cfi_startproc
  37              	.LVL0:
  38 0018 130101FE 		addi	sp,sp,-32
  39              		.cfi_def_cfa_offset 32
  40 001c 233C1100 		sd	ra,24(sp)
  41 0020 23388100 		sd	s0,16(sp)
  42 0024 23349100 		sd	s1,8(sp)
  43 0028 23302101 		sd	s2,0(sp)
  44              		.cfi_offset 1, -8
  45              		.cfi_offset 8, -16
  46              		.cfi_offset 9, -24
  47              		.cfi_offset 18, -32
  48 002c 13040102 		addi	s0,sp,32
  49              		.cfi_def_cfa 8, 0
  50 0030 93040500 		mv	s1,a0
  51 0034 13090600 		mv	s2,a2
  52              	.LBB4:
GAS LISTING /tmp/ccqbD3JW.s 			page 3


  24:src/TCB.cpp   **** {
  53              		.loc 1 24 23 is_stmt 0
  54 0038 2330B500 		sd	a1,0(a0)
  19:src/TCB.cpp   ****         context({(uint64)&threadWrapper,
  55              		.loc 1 19 30
  56 003c 63880506 		beqz	a1,.L6
  19:src/TCB.cpp   ****         context({(uint64)&threadWrapper,
  57              		.loc 1 19 61 discriminator 1
  58 0040 37850000 		li	a0,32768
  59              	.LVL1:
  60 0044 97000000 		call	_Znam@plt
  60      E7800000 
  61              	.LVL2:
  62              	.L4:
  24:src/TCB.cpp   **** {
  63              		.loc 1 24 23
  64 004c 23B4A400 		sd	a0,8(s1)
  65 0050 97070000 		lla	a5,_ZN3TCB13threadWrapperEv
  65      93870700 
  66 0058 23B8F400 		sd	a5,16(s1)
  21:src/TCB.cpp   ****                 }),
  67              		.loc 1 21 35
  68 005c 630C0504 		beqz	a0,.L7
  21:src/TCB.cpp   ****                 }),
  69              		.loc 1 21 45 discriminator 1
  70 0060 B7870000 		li	a5,32768
  71 0064 3305F500 		add	a0,a0,a5
  72              	.L5:
  24:src/TCB.cpp   **** {
  73              		.loc 1 24 23
  74 0068 23BCA400 		sd	a0,24(s1)
  75 006c 23B02403 		sd	s2,32(s1)
  76 0070 23840402 		sb	zero,40(s1)
  26:src/TCB.cpp   ****     id = globalId++;
  77              		.loc 1 26 5 is_stmt 1
  26:src/TCB.cpp   ****     id = globalId++;
  78              		.loc 1 26 12 is_stmt 0
  79 0074 93071000 		li	a5,1
  80 0078 23ACF402 		sw	a5,56(s1)
  27:src/TCB.cpp   **** }
  81              		.loc 1 27 5 is_stmt 1
  27:src/TCB.cpp   **** }
  82              		.loc 1 27 18 is_stmt 0
  83 007c 17070000 		lla	a4,.LANCHOR0
  83      13070700 
  84 0084 83370700 		ld	a5,0(a4)
  85 0088 93861700 		addi	a3,a5,1
  86 008c 2330D700 		sd	a3,0(a4)
  27:src/TCB.cpp   **** }
  87              		.loc 1 27 8
  88 0090 23B8F402 		sd	a5,48(s1)
  89              	.LBE4:
  28:src/TCB.cpp   **** 
  90              		.loc 1 28 1
  91 0094 83308101 		ld	ra,24(sp)
  92              		.cfi_remember_state
  93              		.cfi_restore 1
GAS LISTING /tmp/ccqbD3JW.s 			page 4


  94 0098 03340101 		ld	s0,16(sp)
  95              		.cfi_restore 8
  96              		.cfi_def_cfa 2, 32
  97 009c 83348100 		ld	s1,8(sp)
  98              		.cfi_restore 9
  99              	.LVL3:
 100 00a0 03390100 		ld	s2,0(sp)
 101              		.cfi_restore 18
 102              	.LVL4:
 103 00a4 13010102 		addi	sp,sp,32
 104              		.cfi_def_cfa_offset 0
 105 00a8 67800000 		jr	ra
 106              	.LVL5:
 107              	.L6:
 108              		.cfi_restore_state
 109              	.LBB5:
  19:src/TCB.cpp   ****         context({(uint64)&threadWrapper,
 110              		.loc 1 19 30
 111 00ac 13050000 		li	a0,0
 112 00b0 6FF0DFF9 		j	.L4
 113              	.LVL6:
 114              	.L7:
  21:src/TCB.cpp   ****                 }),
 115              		.loc 1 21 35
 116 00b4 13050000 		li	a0,0
 117 00b8 6FF01FFB 		j	.L5
 118              	.LBE5:
 119              		.cfi_endproc
 120              	.LFE22:
 122              		.globl	_ZN3TCBC1EPFvvEm
 123              		.set	_ZN3TCBC1EPFvvEm,_ZN3TCBC2EPFvvEm
 124              		.align	2
 125              		.globl	_ZN3TCB12createThreadEPFvvE
 127              	_ZN3TCB12createThreadEPFvvE:
 128              	.LFB20:
  13:src/TCB.cpp   ****     return new TCB(body, DEFAULT_TIME_SLICE);
 129              		.loc 1 13 35 is_stmt 1
 130              		.cfi_startproc
 131              		.cfi_personality 0x9b,DW.ref.__gxx_personality_v0
 132              		.cfi_lsda 0x1b,.LLSDA20
 133              	.LVL7:
 134 00bc 130101FE 		addi	sp,sp,-32
 135              		.cfi_def_cfa_offset 32
 136 00c0 233C1100 		sd	ra,24(sp)
 137 00c4 23388100 		sd	s0,16(sp)
 138 00c8 23349100 		sd	s1,8(sp)
 139 00cc 23302101 		sd	s2,0(sp)
 140              		.cfi_offset 1, -8
 141              		.cfi_offset 8, -16
 142              		.cfi_offset 9, -24
 143              		.cfi_offset 18, -32
 144 00d0 13040102 		addi	s0,sp,32
 145              		.cfi_def_cfa 8, 0
 146 00d4 13090500 		mv	s2,a0
  14:src/TCB.cpp   **** }
 147              		.loc 1 14 5
  14:src/TCB.cpp   **** }
GAS LISTING /tmp/ccqbD3JW.s 			page 5


 148              		.loc 1 14 44 is_stmt 0
 149 00d8 13050004 		li	a0,64
 150              	.LVL8:
 151              	.LEHB0:
 152 00dc 97000000 		call	_Znwm@plt
 152      E7800000 
 153              	.LVL9:
 154              	.LEHE0:
 155 00e4 93040500 		mv	s1,a0
 156 00e8 13062000 		li	a2,2
 157 00ec 93050900 		mv	a1,s2
 158              	.LEHB1:
 159 00f0 97000000 		call	_ZN3TCBC1EPFvvEm
 159      E7800000 
 160              	.LVL10:
 161              	.LEHE1:
 162 00f8 6F000002 		j	.L14
 163              	.L11:
 164 00fc 13090500 		mv	s2,a0
 165              	.LVL11:
 166 0100 13850400 		mv	a0,s1
 167 0104 97000000 		call	_ZdlPv@plt
 167      E7800000 
 168              	.LVL12:
 169 010c 13050900 		mv	a0,s2
 170              	.LEHB2:
 171 0110 97000000 		call	_Unwind_Resume@plt
 171      E7800000 
 172              	.LVL13:
 173              	.LEHE2:
 174              	.L14:
  15:src/TCB.cpp   **** 
 175              		.loc 1 15 1
 176 0118 13850400 		mv	a0,s1
 177 011c 83308101 		ld	ra,24(sp)
 178              		.cfi_restore 1
 179 0120 03340101 		ld	s0,16(sp)
 180              		.cfi_restore 8
 181              		.cfi_def_cfa 2, 32
 182 0124 83348100 		ld	s1,8(sp)
 183              		.cfi_restore 9
 184 0128 03390100 		ld	s2,0(sp)
 185              		.cfi_restore 18
 186              	.LVL14:
 187 012c 13010102 		addi	sp,sp,32
 188              		.cfi_def_cfa_offset 0
 189 0130 67800000 		jr	ra
 190              		.cfi_endproc
 191              	.LFE20:
 192              		.globl	__gxx_personality_v0
 193              		.section	.gcc_except_table,"a",@progbits
 194              	.LLSDA20:
 195 0000 FF       		.byte	0xff
 196 0001 FF       		.byte	0xff
 197 0002 03       		.byte	0x3
 198 0003 27       		.byte	0x27
 199 0004 00000000 		.4byte	.LEHB0-.LFB20
GAS LISTING /tmp/ccqbD3JW.s 			page 6


 200 0008 00000000 		.4byte	.LEHE0-.LEHB0
 201 000c 00000000 		.4byte	0
 202 0010 00       		.byte	0
 203 0011 00000000 		.4byte	.LEHB1-.LFB20
 204 0015 00000000 		.4byte	.LEHE1-.LEHB1
 205 0019 00000000 		.4byte	.L11-.LFB20
 206 001d 00       		.byte	0
 207 001e 00000000 		.4byte	.LEHB2-.LFB20
 208 0022 00000000 		.4byte	.LEHE2-.LEHB2
 209 0026 00000000 		.4byte	0
 210 002a 00       		.byte	0
 211              		.text
 213              		.align	2
 214              		.globl	_ZN3TCB5startEv
 216              	_ZN3TCB5startEv:
 217              	.LFB24:
  30:src/TCB.cpp   ****     if(this->status==FINISHED)return;
 218              		.loc 1 30 19 is_stmt 1
 219              		.cfi_startproc
 220              	.LVL15:
  31:src/TCB.cpp   ****     if(this->status==READY)return;
 221              		.loc 1 31 5
  31:src/TCB.cpp   ****     if(this->status==READY)return;
 222              		.loc 1 31 14 is_stmt 0
 223 0134 83278503 		lw	a5,56(a0)
  31:src/TCB.cpp   ****     if(this->status==READY)return;
 224              		.loc 1 31 5
 225 0138 13072000 		li	a4,2
 226 013c 6384E700 		beq	a5,a4,.L18
  32:src/TCB.cpp   **** 
 227              		.loc 1 32 5 is_stmt 1
 228 0140 63940700 		bnez	a5,.L21
 229              	.L18:
 230 0144 67800000 		ret
 231              	.L21:
  30:src/TCB.cpp   ****     if(this->status==FINISHED)return;
 232              		.loc 1 30 19 is_stmt 0
 233 0148 130101FF 		addi	sp,sp,-16
 234              		.cfi_def_cfa_offset 16
 235 014c 23341100 		sd	ra,8(sp)
 236 0150 23308100 		sd	s0,0(sp)
 237              		.cfi_offset 1, -8
 238              		.cfi_offset 8, -16
 239 0154 13040101 		addi	s0,sp,16
 240              		.cfi_def_cfa 8, 0
  35:src/TCB.cpp   ****     Scheduler::put(this);
 241              		.loc 1 35 5 is_stmt 1
  35:src/TCB.cpp   ****     Scheduler::put(this);
 242              		.loc 1 35 17 is_stmt 0
 243 0158 232C0502 		sw	zero,56(a0)
  36:src/TCB.cpp   **** }
 244              		.loc 1 36 5 is_stmt 1
  36:src/TCB.cpp   **** }
 245              		.loc 1 36 19 is_stmt 0
 246 015c 97000000 		call	_ZN9Scheduler3putEP3TCB@plt
 246      E7800000 
 247              	.LVL16:
GAS LISTING /tmp/ccqbD3JW.s 			page 7


  37:src/TCB.cpp   **** 
 248              		.loc 1 37 1
 249 0164 83308100 		ld	ra,8(sp)
 250              		.cfi_restore 1
 251 0168 03340100 		ld	s0,0(sp)
 252              		.cfi_restore 8
 253              		.cfi_def_cfa 2, 16
 254 016c 13010101 		addi	sp,sp,16
 255              		.cfi_def_cfa_offset 0
 256 0170 67800000 		jr	ra
 257              		.cfi_endproc
 258              	.LFE24:
 260              		.align	2
 261              		.globl	_ZN3TCB5yieldEv
 263              	_ZN3TCB5yieldEv:
 264              	.LFB25:
  39:src/TCB.cpp   ****     //save current value of a0 for later to restore
 265              		.loc 1 39 19 is_stmt 1
 266              		.cfi_startproc
 267 0174 130101FF 		addi	sp,sp,-16
 268              		.cfi_def_cfa_offset 16
 269 0178 23348100 		sd	s0,8(sp)
 270              		.cfi_offset 8, -8
 271 017c 13040101 		addi	s0,sp,16
 272              		.cfi_def_cfa 8, 0
  41:src/TCB.cpp   ****     __asm__ volatile("mv %0, a0" : "=r" (a0reg));
 273              		.loc 1 41 5
  42:src/TCB.cpp   **** 
 274              		.loc 1 42 5
  42:src/TCB.cpp   **** 
 275              		.loc 1 42 49 is_stmt 0
 276              	#APP
 277              	# 42 "src/TCB.cpp" 1
 278              		mv a5, a0
 279              	# 0 "" 2
 280              	.LVL17:
  44:src/TCB.cpp   ****     //write flag to a0 so that the trapHandler knows to do dispatch, not syscall
 281              		.loc 1 44 5 is_stmt 1
  46:src/TCB.cpp   ****     __asm__ volatile ("ecall");
 282              		.loc 1 46 5
  46:src/TCB.cpp   ****     __asm__ volatile ("ecall");
 283              		.loc 1 46 49 is_stmt 0
 284              	#NO_APP
 285 0184 13074000 		li	a4,4
 286              	#APP
 287              	# 46 "src/TCB.cpp" 1
  47:src/TCB.cpp   **** 
 288              		mv a0, a4
 289              	# 0 "" 2
 290              		.loc 1 47 5 is_stmt 1
  47:src/TCB.cpp   **** 
 291              		.loc 1 47 31 is_stmt 0
 292              	# 47 "src/TCB.cpp" 1
  50:src/TCB.cpp   **** 
 293              		ecall
 294              	# 0 "" 2
 295              		.loc 1 50 5 is_stmt 1
GAS LISTING /tmp/ccqbD3JW.s 			page 8


  50:src/TCB.cpp   **** 
 296              		.loc 1 50 50 is_stmt 0
 297              	# 50 "src/TCB.cpp" 1
  52:src/TCB.cpp   **** 
 298              		mv a0, a5
 299              	# 0 "" 2
 300              		.loc 1 52 1
 301              	#NO_APP
 302 0194 03348100 		ld	s0,8(sp)
 303              		.cfi_restore 8
 304              		.cfi_def_cfa 2, 16
 305 0198 13010101 		addi	sp,sp,16
 306              		.cfi_def_cfa_offset 0
 307 019c 67800000 		jr	ra
 308              		.cfi_endproc
 309              	.LFE25:
 311              		.align	2
 312              		.globl	_ZN3TCB8dispatchEv
 314              	_ZN3TCB8dispatchEv:
 315              	.LFB26:
  54:src/TCB.cpp   ****     TCB* old = running;
 316              		.loc 1 54 22 is_stmt 1
 317              		.cfi_startproc
 318 01a0 130101FE 		addi	sp,sp,-32
 319              		.cfi_def_cfa_offset 32
 320 01a4 233C1100 		sd	ra,24(sp)
 321 01a8 23388100 		sd	s0,16(sp)
 322 01ac 23349100 		sd	s1,8(sp)
 323              		.cfi_offset 1, -8
 324              		.cfi_offset 8, -16
 325              		.cfi_offset 9, -24
 326 01b0 13040102 		addi	s0,sp,32
 327              		.cfi_def_cfa 8, 0
  55:src/TCB.cpp   ****     if(!old->isFinished()) { Scheduler::put(old); }
 328              		.loc 1 55 5
  55:src/TCB.cpp   ****     if(!old->isFinished()) { Scheduler::put(old); }
 329              		.loc 1 55 10 is_stmt 0
 330 01b4 97040000 		ld	s1,.LANCHOR0+8
 330      83B40400 
 331              	.LVL18:
  56:src/TCB.cpp   ****     running = Scheduler::get();
 332              		.loc 1 56 5 is_stmt 1
 333              	.LBB6:
 334              	.LBB7:
 335              		.file 2 "src/../h/TCB.hpp"
   1:src/../h/TCB.hpp **** //
   2:src/../h/TCB.hpp **** // Created by os on 6/20/22.
   3:src/../h/TCB.hpp **** //
   4:src/../h/TCB.hpp **** 
   5:src/../h/TCB.hpp **** #ifndef PROJECT_BASE_V1_1_TCB_HPP
   6:src/../h/TCB.hpp **** #define PROJECT_BASE_V1_1_TCB_HPP
   7:src/../h/TCB.hpp **** 
   8:src/../h/TCB.hpp **** #include "../lib/hw.h"
   9:src/../h/TCB.hpp **** #include "Scheduler.hpp"
  10:src/../h/TCB.hpp **** 
  11:src/../h/TCB.hpp **** class TCB {
  12:src/../h/TCB.hpp **** public:
GAS LISTING /tmp/ccqbD3JW.s 			page 9


  13:src/../h/TCB.hpp ****     ~TCB() { delete[] stack; }
  14:src/../h/TCB.hpp **** 
  15:src/../h/TCB.hpp ****     bool isFinished() const { return finished; }
 336              		.loc 2 15 31
 337              		.loc 2 15 38 is_stmt 0
 338 01bc 83C78402 		lbu	a5,40(s1)
 339              	.LVL19:
 340              	.LBE7:
 341              	.LBE6:
  56:src/TCB.cpp   ****     running = Scheduler::get();
 342              		.loc 1 56 5
 343 01c0 638C0702 		beqz	a5,.L27
 344              	.L25:
  57:src/TCB.cpp   **** 
 345              		.loc 1 57 5 is_stmt 1
  57:src/TCB.cpp   **** 
 346              		.loc 1 57 29 is_stmt 0
 347 01c4 97000000 		call	_ZN9Scheduler3getEv@plt
 347      E7800000 
 348              	.LVL20:
  57:src/TCB.cpp   **** 
 349              		.loc 1 57 13
 350 01cc 97070000 		sd	a0,.LANCHOR0+8,a5
 350      23B0A700 
  59:src/TCB.cpp   **** }
 351              		.loc 1 59 5 is_stmt 1
  59:src/TCB.cpp   **** }
 352              		.loc 1 59 23 is_stmt 0
 353 01d4 93050501 		addi	a1,a0,16
 354 01d8 13850401 		addi	a0,s1,16
 355 01dc 97000000 		call	_ZN3TCB13contextSwitchEPNS_7ContextES1_@plt
 355      E7800000 
 356              	.LVL21:
  60:src/TCB.cpp   **** 
 357              		.loc 1 60 1
 358 01e4 83308101 		ld	ra,24(sp)
 359              		.cfi_remember_state
 360              		.cfi_restore 1
 361 01e8 03340101 		ld	s0,16(sp)
 362              		.cfi_restore 8
 363              		.cfi_def_cfa 2, 32
 364 01ec 83348100 		ld	s1,8(sp)
 365              		.cfi_restore 9
 366              	.LVL22:
 367 01f0 13010102 		addi	sp,sp,32
 368              		.cfi_def_cfa_offset 0
 369 01f4 67800000 		jr	ra
 370              	.LVL23:
 371              	.L27:
 372              		.cfi_restore_state
  56:src/TCB.cpp   ****     running = Scheduler::get();
 373              		.loc 1 56 30 is_stmt 1 discriminator 1
  56:src/TCB.cpp   ****     running = Scheduler::get();
 374              		.loc 1 56 44 is_stmt 0 discriminator 1
 375 01f8 13850400 		mv	a0,s1
 376 01fc 97000000 		call	_ZN9Scheduler3putEP3TCB@plt
 376      E7800000 
GAS LISTING /tmp/ccqbD3JW.s 			page 10


 377              	.LVL24:
 378 0204 6FF01FFC 		j	.L25
 379              		.cfi_endproc
 380              	.LFE26:
 382              		.globl	_ZN3TCB8globalIdE
 383              		.globl	_ZN3TCB16timeSliceCounterE
 384              		.globl	_ZN3TCB7runningE
 385              		.bss
 386              		.align	3
 387              		.set	.LANCHOR0,. + 0
 390              	_ZN3TCB8globalIdE:
 391 0000 00000000 		.zero	8
 391      00000000 
 394              	_ZN3TCB7runningE:
 395 0008 00000000 		.zero	8
 395      00000000 
 398              	_ZN3TCB16timeSliceCounterE:
 399 0010 00000000 		.zero	8
 399      00000000 
 400              		.text
 401              	.Letext0:
 402              		.file 3 "src/../h/../lib/hw.h"
 403              		.file 4 "src/../h/Scheduler.hpp"
 2515              		.align	3
 2518              	DW.ref.__gxx_personality_v0:
 2519 0000 00000000 		.dword	__gxx_personality_v0
 2519      00000000 
 2520              		.ident	"GCC: (Ubuntu 9.4.0-1ubuntu1~20.04) 9.4.0"
 2521              		.section	.note.GNU-stack,"",@progbits
GAS LISTING /tmp/ccqbD3JW.s 			page 11


DEFINED SYMBOLS
                            *ABS*:0000000000000000 TCB.cpp
     /tmp/ccqbD3JW.s:9      .text:0000000000000000 _ZN3TCB13threadWrapperEv
     /tmp/ccqbD3JW.s:13     .text:0000000000000000 .L0 
     /tmp/ccqbD3JW.s:14     .text:0000000000000000 .L0 
     /tmp/ccqbD3JW.s:15     .text:0000000000000004 .L0 
     /tmp/ccqbD3JW.s:17     .text:0000000000000008 .L0 
     /tmp/ccqbD3JW.s:19     .text:000000000000000c .L0 
     /tmp/ccqbD3JW.s:21     .text:000000000000000c .L0 
     /tmp/ccqbD3JW.s:22     .text:0000000000000010 .L0 
     /tmp/ccqbD3JW.s:23     .text:0000000000000010 .L0 
     /tmp/ccqbD3JW.s:25     .text:0000000000000014 .L0 
     /tmp/ccqbD3JW.s:27     .text:0000000000000018 .L0 
     /tmp/ccqbD3JW.s:33     .text:0000000000000018 _ZN3TCBC2EPFvvEm
     /tmp/ccqbD3JW.s:36     .text:0000000000000018 .L0 
     /tmp/ccqbD3JW.s:38     .text:0000000000000018 .L0 
     /tmp/ccqbD3JW.s:39     .text:000000000000001c .L0 
     /tmp/ccqbD3JW.s:44     .text:000000000000002c .L0 
     /tmp/ccqbD3JW.s:45     .text:000000000000002c .L0 
     /tmp/ccqbD3JW.s:46     .text:000000000000002c .L0 
     /tmp/ccqbD3JW.s:47     .text:000000000000002c .L0 
     /tmp/ccqbD3JW.s:49     .text:0000000000000030 .L0 
     /tmp/ccqbD3JW.s:54     .text:0000000000000038 .L0 
     /tmp/ccqbD3JW.s:56     .text:000000000000003c .L0 
     /tmp/ccqbD3JW.s:58     .text:0000000000000040 .L0 
     /tmp/ccqbD3JW.s:64     .text:000000000000004c .L0 
     /tmp/ccqbD3JW.s:68     .text:000000000000005c .L0 
     /tmp/ccqbD3JW.s:70     .text:0000000000000060 .L0 
     /tmp/ccqbD3JW.s:74     .text:0000000000000068 .L0 
     /tmp/ccqbD3JW.s:78     .text:0000000000000074 .L0 
     /tmp/ccqbD3JW.s:79     .text:0000000000000074 .L0 
     /tmp/ccqbD3JW.s:82     .text:000000000000007c .L0 
     /tmp/ccqbD3JW.s:83     .text:000000000000007c .L0 
     /tmp/ccqbD3JW.s:88     .text:0000000000000090 .L0 
     /tmp/ccqbD3JW.s:91     .text:0000000000000094 .L0 
     /tmp/ccqbD3JW.s:92     .text:0000000000000098 .L0 
     /tmp/ccqbD3JW.s:93     .text:0000000000000098 .L0 
     /tmp/ccqbD3JW.s:95     .text:000000000000009c .L0 
     /tmp/ccqbD3JW.s:96     .text:000000000000009c .L0 
     /tmp/ccqbD3JW.s:98     .text:00000000000000a0 .L0 
     /tmp/ccqbD3JW.s:101    .text:00000000000000a4 .L0 
     /tmp/ccqbD3JW.s:104    .text:00000000000000a8 .L0 
     /tmp/ccqbD3JW.s:108    .text:00000000000000ac .L0 
     /tmp/ccqbD3JW.s:111    .text:00000000000000ac .L0 
     /tmp/ccqbD3JW.s:116    .text:00000000000000b4 .L0 
     /tmp/ccqbD3JW.s:119    .text:00000000000000bc .L0 
     /tmp/ccqbD3JW.s:33     .text:0000000000000018 _ZN3TCBC1EPFvvEm
     /tmp/ccqbD3JW.s:127    .text:00000000000000bc _ZN3TCB12createThreadEPFvvE
     /tmp/ccqbD3JW.s:130    .text:00000000000000bc .L0 
     /tmp/ccqbD3JW.s:2518   .data.rel.local.DW.ref.__gxx_personality_v0:0000000000000000 DW.ref.__gxx_personality_v0
     /tmp/ccqbD3JW.s:134    .text:00000000000000bc .L0 
     /tmp/ccqbD3JW.s:135    .text:00000000000000c0 .L0 
     /tmp/ccqbD3JW.s:140    .text:00000000000000d0 .L0 
     /tmp/ccqbD3JW.s:141    .text:00000000000000d0 .L0 
     /tmp/ccqbD3JW.s:142    .text:00000000000000d0 .L0 
     /tmp/ccqbD3JW.s:143    .text:00000000000000d0 .L0 
     /tmp/ccqbD3JW.s:145    .text:00000000000000d4 .L0 
GAS LISTING /tmp/ccqbD3JW.s 			page 12


     /tmp/ccqbD3JW.s:148    .text:00000000000000d8 .L0 
     /tmp/ccqbD3JW.s:149    .text:00000000000000d8 .L0 
     /tmp/ccqbD3JW.s:176    .text:0000000000000118 .L0 
     /tmp/ccqbD3JW.s:178    .text:0000000000000120 .L0 
     /tmp/ccqbD3JW.s:180    .text:0000000000000124 .L0 
     /tmp/ccqbD3JW.s:181    .text:0000000000000124 .L0 
     /tmp/ccqbD3JW.s:183    .text:0000000000000128 .L0 
     /tmp/ccqbD3JW.s:185    .text:000000000000012c .L0 
     /tmp/ccqbD3JW.s:188    .text:0000000000000130 .L0 
     /tmp/ccqbD3JW.s:190    .text:0000000000000134 .L0 
     /tmp/ccqbD3JW.s:216    .text:0000000000000134 _ZN3TCB5startEv
     /tmp/ccqbD3JW.s:219    .text:0000000000000134 .L0 
     /tmp/ccqbD3JW.s:221    .text:0000000000000134 .L0 
     /tmp/ccqbD3JW.s:222    .text:0000000000000134 .L0 
     /tmp/ccqbD3JW.s:223    .text:0000000000000134 .L0 
     /tmp/ccqbD3JW.s:225    .text:0000000000000138 .L0 
     /tmp/ccqbD3JW.s:228    .text:0000000000000140 .L0 
     /tmp/ccqbD3JW.s:233    .text:0000000000000148 .L0 
     /tmp/ccqbD3JW.s:234    .text:000000000000014c .L0 
     /tmp/ccqbD3JW.s:237    .text:0000000000000154 .L0 
     /tmp/ccqbD3JW.s:238    .text:0000000000000154 .L0 
     /tmp/ccqbD3JW.s:240    .text:0000000000000158 .L0 
     /tmp/ccqbD3JW.s:242    .text:0000000000000158 .L0 
     /tmp/ccqbD3JW.s:243    .text:0000000000000158 .L0 
     /tmp/ccqbD3JW.s:245    .text:000000000000015c .L0 
     /tmp/ccqbD3JW.s:246    .text:000000000000015c .L0 
     /tmp/ccqbD3JW.s:249    .text:0000000000000164 .L0 
     /tmp/ccqbD3JW.s:250    .text:0000000000000168 .L0 
     /tmp/ccqbD3JW.s:252    .text:000000000000016c .L0 
     /tmp/ccqbD3JW.s:253    .text:000000000000016c .L0 
     /tmp/ccqbD3JW.s:255    .text:0000000000000170 .L0 
     /tmp/ccqbD3JW.s:257    .text:0000000000000174 .L0 
     /tmp/ccqbD3JW.s:263    .text:0000000000000174 _ZN3TCB5yieldEv
     /tmp/ccqbD3JW.s:266    .text:0000000000000174 .L0 
     /tmp/ccqbD3JW.s:267    .text:0000000000000174 .L0 
     /tmp/ccqbD3JW.s:268    .text:0000000000000178 .L0 
     /tmp/ccqbD3JW.s:270    .text:000000000000017c .L0 
     /tmp/ccqbD3JW.s:272    .text:0000000000000180 .L0 
     /tmp/ccqbD3JW.s:274    .text:0000000000000180 .L0 
     /tmp/ccqbD3JW.s:275    .text:0000000000000180 .L0 
         src/TCB.cpp:42     .text:0000000000000180 .L0 
     /tmp/ccqbD3JW.s:282    .text:0000000000000184 .L0 
     /tmp/ccqbD3JW.s:283    .text:0000000000000184 .L0 
     /tmp/ccqbD3JW.s:285    .text:0000000000000184 .L0 
     /tmp/ccqbD3JW.s:291    .text:000000000000018c .L0 
         src/TCB.cpp:47     .text:000000000000018c .L0 
     /tmp/ccqbD3JW.s:296    .text:0000000000000190 .L0 
         src/TCB.cpp:50     .text:0000000000000190 .L0 
     /tmp/ccqbD3JW.s:302    .text:0000000000000194 .L0 
     /tmp/ccqbD3JW.s:303    .text:0000000000000198 .L0 
     /tmp/ccqbD3JW.s:304    .text:0000000000000198 .L0 
     /tmp/ccqbD3JW.s:306    .text:000000000000019c .L0 
     /tmp/ccqbD3JW.s:308    .text:00000000000001a0 .L0 
     /tmp/ccqbD3JW.s:314    .text:00000000000001a0 _ZN3TCB8dispatchEv
     /tmp/ccqbD3JW.s:317    .text:00000000000001a0 .L0 
     /tmp/ccqbD3JW.s:318    .text:00000000000001a0 .L0 
     /tmp/ccqbD3JW.s:319    .text:00000000000001a4 .L0 
GAS LISTING /tmp/ccqbD3JW.s 			page 13


     /tmp/ccqbD3JW.s:323    .text:00000000000001b0 .L0 
     /tmp/ccqbD3JW.s:324    .text:00000000000001b0 .L0 
     /tmp/ccqbD3JW.s:325    .text:00000000000001b0 .L0 
     /tmp/ccqbD3JW.s:327    .text:00000000000001b4 .L0 
     /tmp/ccqbD3JW.s:329    .text:00000000000001b4 .L0 
     /tmp/ccqbD3JW.s:330    .text:00000000000001b4 .L0 
     /tmp/ccqbD3JW.s:336    .text:00000000000001bc .L0 
     /tmp/ccqbD3JW.s:337    .text:00000000000001bc .L0 
     /tmp/ccqbD3JW.s:338    .text:00000000000001bc .L0 
     /tmp/ccqbD3JW.s:343    .text:00000000000001c0 .L0 
     /tmp/ccqbD3JW.s:346    .text:00000000000001c4 .L0 
     /tmp/ccqbD3JW.s:347    .text:00000000000001c4 .L0 
     /tmp/ccqbD3JW.s:350    .text:00000000000001cc .L0 
     /tmp/ccqbD3JW.s:352    .text:00000000000001d4 .L0 
     /tmp/ccqbD3JW.s:353    .text:00000000000001d4 .L0 
     /tmp/ccqbD3JW.s:358    .text:00000000000001e4 .L0 
     /tmp/ccqbD3JW.s:359    .text:00000000000001e8 .L0 
     /tmp/ccqbD3JW.s:360    .text:00000000000001e8 .L0 
     /tmp/ccqbD3JW.s:362    .text:00000000000001ec .L0 
     /tmp/ccqbD3JW.s:363    .text:00000000000001ec .L0 
     /tmp/ccqbD3JW.s:365    .text:00000000000001f0 .L0 
     /tmp/ccqbD3JW.s:368    .text:00000000000001f4 .L0 
     /tmp/ccqbD3JW.s:372    .text:00000000000001f8 .L0 
     /tmp/ccqbD3JW.s:374    .text:00000000000001f8 .L0 
     /tmp/ccqbD3JW.s:375    .text:00000000000001f8 .L0 
     /tmp/ccqbD3JW.s:379    .text:0000000000000208 .L0 
     /tmp/ccqbD3JW.s:390    .bss:0000000000000000 _ZN3TCB8globalIdE
     /tmp/ccqbD3JW.s:398    .bss:0000000000000010 _ZN3TCB16timeSliceCounterE
     /tmp/ccqbD3JW.s:394    .bss:0000000000000008 _ZN3TCB7runningE
     /tmp/ccqbD3JW.s:387    .bss:0000000000000000 .LANCHOR0
     /tmp/ccqbD3JW.s:404    .text:0000000000000208 .L0 
     /tmp/ccqbD3JW.s:65     .text:0000000000000050 .L0 
     /tmp/ccqbD3JW.s:83     .text:000000000000007c .L0 
     /tmp/ccqbD3JW.s:330    .text:00000000000001b4 .L0 
     /tmp/ccqbD3JW.s:350    .text:00000000000001cc .L0 
     /tmp/ccqbD3JW.s:107    .text:00000000000000ac .L6
     /tmp/ccqbD3JW.s:114    .text:00000000000000b4 .L7
     /tmp/ccqbD3JW.s:62     .text:000000000000004c .L4
     /tmp/ccqbD3JW.s:72     .text:0000000000000068 .L5
     /tmp/ccqbD3JW.s:174    .text:0000000000000118 .L14
     /tmp/ccqbD3JW.s:229    .text:0000000000000144 .L18
     /tmp/ccqbD3JW.s:231    .text:0000000000000148 .L21
     /tmp/ccqbD3JW.s:371    .text:00000000000001f8 .L27
     /tmp/ccqbD3JW.s:344    .text:00000000000001c4 .L25
     /tmp/ccqbD3JW.s:151    .text:00000000000000dc .LEHB0
     /tmp/ccqbD3JW.s:128    .text:00000000000000bc .LFB20
     /tmp/ccqbD3JW.s:154    .text:00000000000000e4 .LEHE0
     /tmp/ccqbD3JW.s:158    .text:00000000000000f0 .LEHB1
     /tmp/ccqbD3JW.s:161    .text:00000000000000f8 .LEHE1
     /tmp/ccqbD3JW.s:163    .text:00000000000000fc .L11
     /tmp/ccqbD3JW.s:170    .text:0000000000000110 .LEHB2
     /tmp/ccqbD3JW.s:173    .text:0000000000000118 .LEHE2
     /tmp/ccqbD3JW.s:1210   .debug_abbrev:0000000000000000 .Ldebug_abbrev0
     /tmp/ccqbD3JW.s:2424   .debug_str:000000000000029b .LASF73
     /tmp/ccqbD3JW.s:2380   .debug_str:000000000000013d .LASF74
     /tmp/ccqbD3JW.s:2346   .debug_str:0000000000000032 .LASF75
     /tmp/ccqbD3JW.s:5      .text:0000000000000000 .Ltext0
GAS LISTING /tmp/ccqbD3JW.s 			page 14


     /tmp/ccqbD3JW.s:401    .text:0000000000000208 .Letext0
     /tmp/ccqbD3JW.s:2336   .debug_line:0000000000000000 .Ldebug_line0
     /tmp/ccqbD3JW.s:2440   .debug_str:00000000000003b1 .LASF0
     /tmp/ccqbD3JW.s:2408   .debug_str:0000000000000210 .LASF1
     /tmp/ccqbD3JW.s:2398   .debug_str:00000000000001d0 .LASF2
     /tmp/ccqbD3JW.s:2362   .debug_str:00000000000000c0 .LASF4
     /tmp/ccqbD3JW.s:2404   .debug_str:00000000000001e9 .LASF3
     /tmp/ccqbD3JW.s:2344   .debug_str:000000000000002b .LASF5
     /tmp/ccqbD3JW.s:2340   .debug_str:000000000000000e .LASF6
     /tmp/ccqbD3JW.s:2386   .debug_str:0000000000000164 .LASF7
     /tmp/ccqbD3JW.s:2456   .debug_str:0000000000000418 .LASF8
     /tmp/ccqbD3JW.s:2358   .debug_str:00000000000000ab .LASF9
     /tmp/ccqbD3JW.s:2510   .debug_str:0000000000000594 .LASF10
     /tmp/ccqbD3JW.s:2392   .debug_str:000000000000019d .LASF11
     /tmp/ccqbD3JW.s:2496   .debug_str:000000000000054f .LASF12
     /tmp/ccqbD3JW.s:2468   .debug_str:0000000000000477 .LASF13
     /tmp/ccqbD3JW.s:2414   .debug_str:0000000000000245 .LASF14
     /tmp/ccqbD3JW.s:2372   .debug_str:00000000000000f0 .LASF15
     /tmp/ccqbD3JW.s:2462   .debug_str:000000000000044d .LASF16
     /tmp/ccqbD3JW.s:2384   .debug_str:000000000000015a .LASF17
     /tmp/ccqbD3JW.s:2450   .debug_str:00000000000003f2 .LASF54
     /tmp/ccqbD3JW.s:2432   .debug_str:0000000000000385 .LASF52
     /tmp/ccqbD3JW.s:2356   .debug_str:0000000000000097 .LASF76
     /tmp/ccqbD3JW.s:2368   .debug_str:00000000000000d2 .LASF40
     /tmp/ccqbD3JW.s:2464   .debug_str:0000000000000463 .LASF18
     /tmp/ccqbD3JW.s:2416   .debug_str:0000000000000251 .LASF38
     /tmp/ccqbD3JW.s:2406   .debug_str:00000000000001fb .LASF27
     /tmp/ccqbD3JW.s:2500   .debug_str:0000000000000565 .LASF22
     /tmp/ccqbD3JW.s:2484   .debug_str:00000000000004f2 .LASF24
     /tmp/ccqbD3JW.s:2490   .debug_str:000000000000052d .LASF77
     /tmp/ccqbD3JW.s:2360   .debug_str:00000000000000b9 .LASF78
     /tmp/ccqbD3JW.s:2402   .debug_str:00000000000001e3 .LASF19
     /tmp/ccqbD3JW.s:2476   .debug_str:00000000000004c1 .LASF20
     /tmp/ccqbD3JW.s:2478   .debug_str:00000000000004ca .LASF21
     /tmp/ccqbD3JW.s:2376   .debug_str:000000000000010d .LASF79
     /tmp/ccqbD3JW.s:2350   .debug_str:000000000000006a .LASF23
     /tmp/ccqbD3JW.s:2454   .debug_str:000000000000040c .LASF25
     /tmp/ccqbD3JW.s:2390   .debug_str:0000000000000192 .LASF26
     /tmp/ccqbD3JW.s:2418   .debug_str:000000000000026e .LASF28
     /tmp/ccqbD3JW.s:2446   .debug_str:00000000000003d4 .LASF29
     /tmp/ccqbD3JW.s:2394   .debug_str:00000000000001ac .LASF30
     /tmp/ccqbD3JW.s:2488   .debug_str:0000000000000520 .LASF31
     /tmp/ccqbD3JW.s:2410   .debug_str:0000000000000223 .LASF32
     /tmp/ccqbD3JW.s:2458   .debug_str:0000000000000428 .LASF33
     /tmp/ccqbD3JW.s:2472   .debug_str:0000000000000494 .LASF34
     /tmp/ccqbD3JW.s:2364   .debug_str:00000000000000c7 .LASF80
     /tmp/ccqbD3JW.s:2436   .debug_str:000000000000039c .LASF81
     /tmp/ccqbD3JW.s:2480   .debug_str:00000000000004d2 .LASF82
     /tmp/ccqbD3JW.s:2348   .debug_str:0000000000000062 .LASF83
     /tmp/ccqbD3JW.s:2508   .debug_str:000000000000058e .LASF35
     /tmp/ccqbD3JW.s:2482   .debug_str:00000000000004e2 .LASF36
     /tmp/ccqbD3JW.s:2470   .debug_str:0000000000000487 .LASF37
     /tmp/ccqbD3JW.s:2460   .debug_str:0000000000000435 .LASF39
     /tmp/ccqbD3JW.s:2382   .debug_str:0000000000000149 .LASF41
     /tmp/ccqbD3JW.s:2420   .debug_str:0000000000000285 .LASF42
     /tmp/ccqbD3JW.s:2366   .debug_str:00000000000000cc .LASF43
     /tmp/ccqbD3JW.s:2466   .debug_str:000000000000046f .LASF44
GAS LISTING /tmp/ccqbD3JW.s 			page 15


     /tmp/ccqbD3JW.s:2342   .debug_str:0000000000000021 .LASF45
     /tmp/ccqbD3JW.s:2412   .debug_str:000000000000023c .LASF46
     /tmp/ccqbD3JW.s:2338   .debug_str:0000000000000000 .LASF47
     /tmp/ccqbD3JW.s:2486   .debug_str:0000000000000507 .LASF49
     /tmp/ccqbD3JW.s:2430   .debug_str:0000000000000377 .LASF84
     /tmp/ccqbD3JW.s:2378   .debug_str:0000000000000115 .LASF85
     /tmp/ccqbD3JW.s:2452   .debug_str:0000000000000403 .LASF48
     /tmp/ccqbD3JW.s:2428   .debug_str:0000000000000364 .LASF50
     /tmp/ccqbD3JW.s:2442   .debug_str:00000000000003be .LASF51
     /tmp/ccqbD3JW.s:2354   .debug_str:0000000000000087 .LASF53
     /tmp/ccqbD3JW.s:2494   .debug_str:000000000000053e .LASF55
     /tmp/ccqbD3JW.s:2502   .debug_str:000000000000056f .LASF56
     /tmp/ccqbD3JW.s:2374   .debug_str:0000000000000106 .LASF57
     /tmp/ccqbD3JW.s:2426   .debug_str:000000000000035f .LASF58
     /tmp/ccqbD3JW.s:2422   .debug_str:000000000000028a .LASF59
     /tmp/ccqbD3JW.s:2388   .debug_str:0000000000000177 .LASF60
     /tmp/ccqbD3JW.s:2448   .debug_str:00000000000003e0 .LASF61
     /tmp/ccqbD3JW.s:10     .text:0000000000000000 .LFB27
     /tmp/ccqbD3JW.s:28     .text:0000000000000018 .LFE27
     /tmp/ccqbD3JW.s:315    .text:00000000000001a0 .LFB26
     /tmp/ccqbD3JW.s:380    .text:0000000000000208 .LFE26
     /tmp/ccqbD3JW.s:2188   .debug_loc:0000000000000000 .LLST5
     /tmp/ccqbD3JW.s:333    .text:00000000000001bc .LBB6
     /tmp/ccqbD3JW.s:341    .text:00000000000001c0 .LBE6
     /tmp/ccqbD3JW.s:2199   .debug_loc:0000000000000036 .LLST6
     /tmp/ccqbD3JW.s:348    .text:00000000000001cc .LVL20
     /tmp/ccqbD3JW.s:356    .text:00000000000001e4 .LVL21
     /tmp/ccqbD3JW.s:377    .text:0000000000000204 .LVL24
     /tmp/ccqbD3JW.s:264    .text:0000000000000174 .LFB25
     /tmp/ccqbD3JW.s:309    .text:00000000000001a0 .LFE25
     /tmp/ccqbD3JW.s:2498   .debug_str:000000000000055f .LASF62
     /tmp/ccqbD3JW.s:2434   .debug_str:0000000000000397 .LASF63
     /tmp/ccqbD3JW.s:217    .text:0000000000000134 .LFB24
     /tmp/ccqbD3JW.s:258    .text:0000000000000174 .LFE24
     /tmp/ccqbD3JW.s:2400   .debug_str:00000000000001de .LASF64
     /tmp/ccqbD3JW.s:2206   .debug_loc:0000000000000059 .LLST4
     /tmp/ccqbD3JW.s:247    .text:0000000000000164 .LVL16
     /tmp/ccqbD3JW.s:2474   .debug_str:00000000000004b0 .LASF86
     /tmp/ccqbD3JW.s:34     .text:0000000000000018 .LFB22
     /tmp/ccqbD3JW.s:120    .text:00000000000000bc .LFE22
     /tmp/ccqbD3JW.s:2220   .debug_loc:0000000000000092 .LLST0
     /tmp/ccqbD3JW.s:2242   .debug_loc:00000000000000f1 .LLST1
     /tmp/ccqbD3JW.s:2267   .debug_loc:0000000000000153 .LLST2
     /tmp/ccqbD3JW.s:61     .text:000000000000004c .LVL2
     /tmp/ccqbD3JW.s:191    .text:0000000000000134 .LFE20
     /tmp/ccqbD3JW.s:2294   .debug_loc:00000000000001c6 .LLST3
     /tmp/ccqbD3JW.s:153    .text:00000000000000e4 .LVL9
     /tmp/ccqbD3JW.s:160    .text:00000000000000f8 .LVL10
     /tmp/ccqbD3JW.s:168    .text:000000000000010c .LVL12
     /tmp/ccqbD3JW.s:172    .text:0000000000000118 .LVL13
     /tmp/ccqbD3JW.s:2370   .debug_str:00000000000000ea .LASF65
     /tmp/ccqbD3JW.s:2504   .debug_str:0000000000000578 .LASF67
     /tmp/ccqbD3JW.s:2506   .debug_str:0000000000000588 .LASF66
     /tmp/ccqbD3JW.s:2396   .debug_str:00000000000001c3 .LASF68
     /tmp/ccqbD3JW.s:2492   .debug_str:0000000000000537 .LASF69
     /tmp/ccqbD3JW.s:2444   .debug_str:00000000000003c4 .LASF70
     /tmp/ccqbD3JW.s:2438   .debug_str:00000000000003a2 .LASF71
GAS LISTING /tmp/ccqbD3JW.s 			page 16


     /tmp/ccqbD3JW.s:2352   .debug_str:000000000000006f .LASF72
     /tmp/ccqbD3JW.s:331    .text:00000000000001bc .LVL18
     /tmp/ccqbD3JW.s:366    .text:00000000000001f0 .LVL22
     /tmp/ccqbD3JW.s:370    .text:00000000000001f8 .LVL23
     /tmp/ccqbD3JW.s:339    .text:00000000000001c0 .LVL19
     /tmp/ccqbD3JW.s:220    .text:0000000000000134 .LVL15
     /tmp/ccqbD3JW.s:37     .text:0000000000000018 .LVL0
     /tmp/ccqbD3JW.s:59     .text:0000000000000044 .LVL1
     /tmp/ccqbD3JW.s:99     .text:00000000000000a0 .LVL3
     /tmp/ccqbD3JW.s:106    .text:00000000000000ac .LVL5
     /tmp/ccqbD3JW.s:113    .text:00000000000000b4 .LVL6
     /tmp/ccqbD3JW.s:102    .text:00000000000000a4 .LVL4
     /tmp/ccqbD3JW.s:133    .text:00000000000000bc .LVL7
     /tmp/ccqbD3JW.s:150    .text:00000000000000dc .LVL8
     /tmp/ccqbD3JW.s:165    .text:0000000000000100 .LVL11
     /tmp/ccqbD3JW.s:186    .text:000000000000012c .LVL14
     /tmp/ccqbD3JW.s:405    .debug_info:0000000000000000 .Ldebug_info0
     /tmp/ccqbD3JW.s:194    .gcc_except_table:0000000000000000 .LLSDA20

UNDEFINED SYMBOLS
_Znam
_Znwm
_ZdlPv
_Unwind_Resume
__gxx_personality_v0
_ZN9Scheduler3putEP3TCB
_ZN9Scheduler3getEv
_ZN3TCB13contextSwitchEPNS_7ContextES1_
