GAS LISTING /tmp/ccgvho9W.s 			page 1


   1              		.file	"TCB.cpp"
   2              		.option pic
   3              		.option norelax
   4              		.text
   5              	.Ltext0:
   6              		.align	2
   7              		.globl	_ZN3TCB13threadWrapperEv
   9              	_ZN3TCB13threadWrapperEv:
  10              	.LFB27:
  11              		.file 1 "src/TCB.cpp"
   1:src/TCB.cpp   **** //
   2:src/TCB.cpp   **** // Created by os on 6/20/22.
   3:src/TCB.cpp   **** //
   4:src/TCB.cpp   **** 
   5:src/TCB.cpp   **** #include "../h/TCB.hpp"
   6:src/TCB.cpp   **** #include "../h/Scheduler.hpp"
   7:src/TCB.cpp   **** 
   8:src/TCB.cpp   **** TCB* TCB::running = nullptr;
   9:src/TCB.cpp   **** 
  10:src/TCB.cpp   **** uint64 TCB::timeSliceCounter = 0;
  11:src/TCB.cpp   **** uint64 TCB::globalId=0;
  12:src/TCB.cpp   **** 
  13:src/TCB.cpp   **** TCB* TCB::createThread(Body body) {
  14:src/TCB.cpp   ****     return new TCB(body, DEFAULT_TIME_SLICE);
  15:src/TCB.cpp   **** }
  16:src/TCB.cpp   **** 
  17:src/TCB.cpp   **** TCB::TCB(Body body, uint64 timeSlice):
  18:src/TCB.cpp   ****         body(body),
  19:src/TCB.cpp   ****         stack(body!= nullptr ? new uint64[DEFAULT_STACK_SIZE]: nullptr),
  20:src/TCB.cpp   ****         context({(uint64)&threadWrapper,
  21:src/TCB.cpp   ****                  stack != nullptr ? (uint64)&stack[DEFAULT_STACK_SIZE]:0
  22:src/TCB.cpp   ****                 }),
  23:src/TCB.cpp   ****         timeSlice(timeSlice),
  24:src/TCB.cpp   ****         finished(false)
  25:src/TCB.cpp   **** {
  26:src/TCB.cpp   ****     status = Status::NEW;
  27:src/TCB.cpp   ****     id = globalId++;
  28:src/TCB.cpp   **** }
  29:src/TCB.cpp   **** 
  30:src/TCB.cpp   **** void TCB::start() {
  31:src/TCB.cpp   ****     if(this->status==FINISHED)return;
  32:src/TCB.cpp   ****     if(this->status==READY)return;
  33:src/TCB.cpp   **** 
  34:src/TCB.cpp   ****     //set thread to ready and put it to scheduler
  35:src/TCB.cpp   ****     this->status=Status::READY;
  36:src/TCB.cpp   ****     Scheduler::put(this);
  37:src/TCB.cpp   **** }
  38:src/TCB.cpp   **** 
  39:src/TCB.cpp   **** void TCB::yield() {
  40:src/TCB.cpp   ****     __asm__ volatile ("ecall");
  41:src/TCB.cpp   **** }
  42:src/TCB.cpp   **** 
  43:src/TCB.cpp   **** void TCB::dispatch() {
  44:src/TCB.cpp   ****     TCB* old = running;
  45:src/TCB.cpp   ****     if(!old->isFinished()) { Scheduler::put(old); }
  46:src/TCB.cpp   ****     running = Scheduler::get();
  47:src/TCB.cpp   **** 
GAS LISTING /tmp/ccgvho9W.s 			page 2


  48:src/TCB.cpp   ****     TCB::contextSwitch(&old->context, &running->context);
  49:src/TCB.cpp   **** }
  50:src/TCB.cpp   **** 
  51:src/TCB.cpp   **** void TCB::threadWrapper() {
  12              		.loc 1 51 27
  13              		.cfi_startproc
  14 0000 130101FF 		addi	sp,sp,-16
  15              		.cfi_def_cfa_offset 16
  16 0004 23348100 		sd	s0,8(sp)
  17              		.cfi_offset 8, -8
  18 0008 13040101 		addi	s0,sp,16
  19              		.cfi_def_cfa 8, 0
  52:src/TCB.cpp   **** 
  53:src/TCB.cpp   **** }
  20              		.loc 1 53 1 is_stmt 0
  21 000c 03348100 		ld	s0,8(sp)
  22              		.cfi_restore 8
  23              		.cfi_def_cfa 2, 16
  24 0010 13010101 		addi	sp,sp,16
  25              		.cfi_def_cfa_offset 0
  26 0014 67800000 		jr	ra
  27              		.cfi_endproc
  28              	.LFE27:
  30              		.align	2
  31              		.globl	_ZN3TCBC2EPFvvEm
  33              	_ZN3TCBC2EPFvvEm:
  34              	.LFB22:
  17:src/TCB.cpp   ****         body(body),
  35              		.loc 1 17 1 is_stmt 1
  36              		.cfi_startproc
  37              	.LVL0:
  38 0018 130101FE 		addi	sp,sp,-32
  39              		.cfi_def_cfa_offset 32
  40 001c 233C1100 		sd	ra,24(sp)
  41 0020 23388100 		sd	s0,16(sp)
  42 0024 23349100 		sd	s1,8(sp)
  43 0028 23302101 		sd	s2,0(sp)
  44              		.cfi_offset 1, -8
  45              		.cfi_offset 8, -16
  46              		.cfi_offset 9, -24
  47              		.cfi_offset 18, -32
  48 002c 13040102 		addi	s0,sp,32
  49              		.cfi_def_cfa 8, 0
  50 0030 93040500 		mv	s1,a0
  51 0034 13090600 		mv	s2,a2
  52              	.LBB4:
  24:src/TCB.cpp   **** {
  53              		.loc 1 24 23 is_stmt 0
  54 0038 2330B500 		sd	a1,0(a0)
  19:src/TCB.cpp   ****         context({(uint64)&threadWrapper,
  55              		.loc 1 19 30
  56 003c 63880506 		beqz	a1,.L6
  19:src/TCB.cpp   ****         context({(uint64)&threadWrapper,
  57              		.loc 1 19 61 discriminator 1
  58 0040 37850000 		li	a0,32768
  59              	.LVL1:
  60 0044 97000000 		call	_Znam@plt
GAS LISTING /tmp/ccgvho9W.s 			page 3


  60      E7800000 
  61              	.LVL2:
  62              	.L4:
  24:src/TCB.cpp   **** {
  63              		.loc 1 24 23
  64 004c 23B4A400 		sd	a0,8(s1)
  65 0050 97070000 		lla	a5,_ZN3TCB13threadWrapperEv
  65      93870700 
  66 0058 23B8F400 		sd	a5,16(s1)
  21:src/TCB.cpp   ****                 }),
  67              		.loc 1 21 35
  68 005c 630C0504 		beqz	a0,.L7
  21:src/TCB.cpp   ****                 }),
  69              		.loc 1 21 45 discriminator 1
  70 0060 B7870000 		li	a5,32768
  71 0064 3305F500 		add	a0,a0,a5
  72              	.L5:
  24:src/TCB.cpp   **** {
  73              		.loc 1 24 23
  74 0068 23BCA400 		sd	a0,24(s1)
  75 006c 23B02403 		sd	s2,32(s1)
  76 0070 23840402 		sb	zero,40(s1)
  26:src/TCB.cpp   ****     id = globalId++;
  77              		.loc 1 26 5 is_stmt 1
  26:src/TCB.cpp   ****     id = globalId++;
  78              		.loc 1 26 12 is_stmt 0
  79 0074 93071000 		li	a5,1
  80 0078 23ACF402 		sw	a5,56(s1)
  27:src/TCB.cpp   **** }
  81              		.loc 1 27 5 is_stmt 1
  27:src/TCB.cpp   **** }
  82              		.loc 1 27 18 is_stmt 0
  83 007c 17070000 		lla	a4,.LANCHOR0
  83      13070700 
  84 0084 83370700 		ld	a5,0(a4)
  85 0088 93861700 		addi	a3,a5,1
  86 008c 2330D700 		sd	a3,0(a4)
  27:src/TCB.cpp   **** }
  87              		.loc 1 27 8
  88 0090 23B8F402 		sd	a5,48(s1)
  89              	.LBE4:
  28:src/TCB.cpp   **** 
  90              		.loc 1 28 1
  91 0094 83308101 		ld	ra,24(sp)
  92              		.cfi_remember_state
  93              		.cfi_restore 1
  94 0098 03340101 		ld	s0,16(sp)
  95              		.cfi_restore 8
  96              		.cfi_def_cfa 2, 32
  97 009c 83348100 		ld	s1,8(sp)
  98              		.cfi_restore 9
  99              	.LVL3:
 100 00a0 03390100 		ld	s2,0(sp)
 101              		.cfi_restore 18
 102              	.LVL4:
 103 00a4 13010102 		addi	sp,sp,32
 104              		.cfi_def_cfa_offset 0
GAS LISTING /tmp/ccgvho9W.s 			page 4


 105 00a8 67800000 		jr	ra
 106              	.LVL5:
 107              	.L6:
 108              		.cfi_restore_state
 109              	.LBB5:
  19:src/TCB.cpp   ****         context({(uint64)&threadWrapper,
 110              		.loc 1 19 30
 111 00ac 13050000 		li	a0,0
 112 00b0 6FF0DFF9 		j	.L4
 113              	.LVL6:
 114              	.L7:
  21:src/TCB.cpp   ****                 }),
 115              		.loc 1 21 35
 116 00b4 13050000 		li	a0,0
 117 00b8 6FF01FFB 		j	.L5
 118              	.LBE5:
 119              		.cfi_endproc
 120              	.LFE22:
 122              		.globl	_ZN3TCBC1EPFvvEm
 123              		.set	_ZN3TCBC1EPFvvEm,_ZN3TCBC2EPFvvEm
 124              		.align	2
 125              		.globl	_ZN3TCB12createThreadEPFvvE
 127              	_ZN3TCB12createThreadEPFvvE:
 128              	.LFB20:
  13:src/TCB.cpp   ****     return new TCB(body, DEFAULT_TIME_SLICE);
 129              		.loc 1 13 35 is_stmt 1
 130              		.cfi_startproc
 131              		.cfi_personality 0x9b,DW.ref.__gxx_personality_v0
 132              		.cfi_lsda 0x1b,.LLSDA20
 133              	.LVL7:
 134 00bc 130101FE 		addi	sp,sp,-32
 135              		.cfi_def_cfa_offset 32
 136 00c0 233C1100 		sd	ra,24(sp)
 137 00c4 23388100 		sd	s0,16(sp)
 138 00c8 23349100 		sd	s1,8(sp)
 139 00cc 23302101 		sd	s2,0(sp)
 140              		.cfi_offset 1, -8
 141              		.cfi_offset 8, -16
 142              		.cfi_offset 9, -24
 143              		.cfi_offset 18, -32
 144 00d0 13040102 		addi	s0,sp,32
 145              		.cfi_def_cfa 8, 0
 146 00d4 13090500 		mv	s2,a0
  14:src/TCB.cpp   **** }
 147              		.loc 1 14 5
  14:src/TCB.cpp   **** }
 148              		.loc 1 14 44 is_stmt 0
 149 00d8 13050004 		li	a0,64
 150              	.LVL8:
 151              	.LEHB0:
 152 00dc 97000000 		call	_Znwm@plt
 152      E7800000 
 153              	.LVL9:
 154              	.LEHE0:
 155 00e4 93040500 		mv	s1,a0
 156 00e8 13062000 		li	a2,2
 157 00ec 93050900 		mv	a1,s2
GAS LISTING /tmp/ccgvho9W.s 			page 5


 158              	.LEHB1:
 159 00f0 97000000 		call	_ZN3TCBC1EPFvvEm
 159      E7800000 
 160              	.LVL10:
 161              	.LEHE1:
 162 00f8 6F000002 		j	.L14
 163              	.L11:
 164 00fc 13090500 		mv	s2,a0
 165              	.LVL11:
 166 0100 13850400 		mv	a0,s1
 167 0104 97000000 		call	_ZdlPv@plt
 167      E7800000 
 168              	.LVL12:
 169 010c 13050900 		mv	a0,s2
 170              	.LEHB2:
 171 0110 97000000 		call	_Unwind_Resume@plt
 171      E7800000 
 172              	.LVL13:
 173              	.LEHE2:
 174              	.L14:
  15:src/TCB.cpp   **** 
 175              		.loc 1 15 1
 176 0118 13850400 		mv	a0,s1
 177 011c 83308101 		ld	ra,24(sp)
 178              		.cfi_restore 1
 179 0120 03340101 		ld	s0,16(sp)
 180              		.cfi_restore 8
 181              		.cfi_def_cfa 2, 32
 182 0124 83348100 		ld	s1,8(sp)
 183              		.cfi_restore 9
 184 0128 03390100 		ld	s2,0(sp)
 185              		.cfi_restore 18
 186              	.LVL14:
 187 012c 13010102 		addi	sp,sp,32
 188              		.cfi_def_cfa_offset 0
 189 0130 67800000 		jr	ra
 190              		.cfi_endproc
 191              	.LFE20:
 192              		.globl	__gxx_personality_v0
 193              		.section	.gcc_except_table,"a",@progbits
 194              	.LLSDA20:
 195 0000 FF       		.byte	0xff
 196 0001 FF       		.byte	0xff
 197 0002 03       		.byte	0x3
 198 0003 27       		.byte	0x27
 199 0004 00000000 		.4byte	.LEHB0-.LFB20
 200 0008 00000000 		.4byte	.LEHE0-.LEHB0
 201 000c 00000000 		.4byte	0
 202 0010 00       		.byte	0
 203 0011 00000000 		.4byte	.LEHB1-.LFB20
 204 0015 00000000 		.4byte	.LEHE1-.LEHB1
 205 0019 00000000 		.4byte	.L11-.LFB20
 206 001d 00       		.byte	0
 207 001e 00000000 		.4byte	.LEHB2-.LFB20
 208 0022 00000000 		.4byte	.LEHE2-.LEHB2
 209 0026 00000000 		.4byte	0
 210 002a 00       		.byte	0
GAS LISTING /tmp/ccgvho9W.s 			page 6


 211              		.text
 213              		.align	2
 214              		.globl	_ZN3TCB5startEv
 216              	_ZN3TCB5startEv:
 217              	.LFB24:
  30:src/TCB.cpp   ****     if(this->status==FINISHED)return;
 218              		.loc 1 30 19 is_stmt 1
 219              		.cfi_startproc
 220              	.LVL15:
  31:src/TCB.cpp   ****     if(this->status==READY)return;
 221              		.loc 1 31 5
  31:src/TCB.cpp   ****     if(this->status==READY)return;
 222              		.loc 1 31 14 is_stmt 0
 223 0134 83278503 		lw	a5,56(a0)
  31:src/TCB.cpp   ****     if(this->status==READY)return;
 224              		.loc 1 31 5
 225 0138 13072000 		li	a4,2
 226 013c 6384E700 		beq	a5,a4,.L18
  32:src/TCB.cpp   **** 
 227              		.loc 1 32 5 is_stmt 1
 228 0140 63940700 		bnez	a5,.L21
 229              	.L18:
 230 0144 67800000 		ret
 231              	.L21:
  30:src/TCB.cpp   ****     if(this->status==FINISHED)return;
 232              		.loc 1 30 19 is_stmt 0
 233 0148 130101FF 		addi	sp,sp,-16
 234              		.cfi_def_cfa_offset 16
 235 014c 23341100 		sd	ra,8(sp)
 236 0150 23308100 		sd	s0,0(sp)
 237              		.cfi_offset 1, -8
 238              		.cfi_offset 8, -16
 239 0154 13040101 		addi	s0,sp,16
 240              		.cfi_def_cfa 8, 0
  35:src/TCB.cpp   ****     Scheduler::put(this);
 241              		.loc 1 35 5 is_stmt 1
  35:src/TCB.cpp   ****     Scheduler::put(this);
 242              		.loc 1 35 17 is_stmt 0
 243 0158 232C0502 		sw	zero,56(a0)
  36:src/TCB.cpp   **** }
 244              		.loc 1 36 5 is_stmt 1
  36:src/TCB.cpp   **** }
 245              		.loc 1 36 19 is_stmt 0
 246 015c 97000000 		call	_ZN9Scheduler3putEP3TCB@plt
 246      E7800000 
 247              	.LVL16:
  37:src/TCB.cpp   **** 
 248              		.loc 1 37 1
 249 0164 83308100 		ld	ra,8(sp)
 250              		.cfi_restore 1
 251 0168 03340100 		ld	s0,0(sp)
 252              		.cfi_restore 8
 253              		.cfi_def_cfa 2, 16
 254 016c 13010101 		addi	sp,sp,16
 255              		.cfi_def_cfa_offset 0
 256 0170 67800000 		jr	ra
 257              		.cfi_endproc
GAS LISTING /tmp/ccgvho9W.s 			page 7


 258              	.LFE24:
 260              		.align	2
 261              		.globl	_ZN3TCB5yieldEv
 263              	_ZN3TCB5yieldEv:
 264              	.LFB25:
  39:src/TCB.cpp   ****     __asm__ volatile ("ecall");
 265              		.loc 1 39 19 is_stmt 1
 266              		.cfi_startproc
 267 0174 130101FF 		addi	sp,sp,-16
 268              		.cfi_def_cfa_offset 16
 269 0178 23348100 		sd	s0,8(sp)
 270              		.cfi_offset 8, -8
 271 017c 13040101 		addi	s0,sp,16
 272              		.cfi_def_cfa 8, 0
  40:src/TCB.cpp   **** }
 273              		.loc 1 40 5
  40:src/TCB.cpp   **** }
 274              		.loc 1 40 31 is_stmt 0
 275              	#APP
 276              	# 40 "src/TCB.cpp" 1
  41:src/TCB.cpp   **** 
 277              		ecall
 278              	# 0 "" 2
 279              		.loc 1 41 1
 280              	#NO_APP
 281 0184 03348100 		ld	s0,8(sp)
 282              		.cfi_restore 8
 283              		.cfi_def_cfa 2, 16
 284 0188 13010101 		addi	sp,sp,16
 285              		.cfi_def_cfa_offset 0
 286 018c 67800000 		jr	ra
 287              		.cfi_endproc
 288              	.LFE25:
 290              		.align	2
 291              		.globl	_ZN3TCB8dispatchEv
 293              	_ZN3TCB8dispatchEv:
 294              	.LFB26:
  43:src/TCB.cpp   ****     TCB* old = running;
 295              		.loc 1 43 22 is_stmt 1
 296              		.cfi_startproc
 297 0190 130101FE 		addi	sp,sp,-32
 298              		.cfi_def_cfa_offset 32
 299 0194 233C1100 		sd	ra,24(sp)
 300 0198 23388100 		sd	s0,16(sp)
 301 019c 23349100 		sd	s1,8(sp)
 302              		.cfi_offset 1, -8
 303              		.cfi_offset 8, -16
 304              		.cfi_offset 9, -24
 305 01a0 13040102 		addi	s0,sp,32
 306              		.cfi_def_cfa 8, 0
  44:src/TCB.cpp   ****     if(!old->isFinished()) { Scheduler::put(old); }
 307              		.loc 1 44 5
  44:src/TCB.cpp   ****     if(!old->isFinished()) { Scheduler::put(old); }
 308              		.loc 1 44 10 is_stmt 0
 309 01a4 97040000 		ld	s1,.LANCHOR0+8
 309      83B40400 
 310              	.LVL17:
GAS LISTING /tmp/ccgvho9W.s 			page 8


  45:src/TCB.cpp   ****     running = Scheduler::get();
 311              		.loc 1 45 5 is_stmt 1
 312              	.LBB6:
 313              	.LBB7:
 314              		.file 2 "src/../h/TCB.hpp"
   1:src/../h/TCB.hpp **** //
   2:src/../h/TCB.hpp **** // Created by os on 6/20/22.
   3:src/../h/TCB.hpp **** //
   4:src/../h/TCB.hpp **** 
   5:src/../h/TCB.hpp **** #ifndef PROJECT_BASE_V1_1_TCB_HPP
   6:src/../h/TCB.hpp **** #define PROJECT_BASE_V1_1_TCB_HPP
   7:src/../h/TCB.hpp **** 
   8:src/../h/TCB.hpp **** #include "../lib/hw.h"
   9:src/../h/TCB.hpp **** #include "Scheduler.hpp"
  10:src/../h/TCB.hpp **** 
  11:src/../h/TCB.hpp **** class TCB {
  12:src/../h/TCB.hpp **** public:
  13:src/../h/TCB.hpp ****     ~TCB() { delete[] stack; }
  14:src/../h/TCB.hpp **** 
  15:src/../h/TCB.hpp ****     bool isFinished() const { return finished; }
 315              		.loc 2 15 31
 316              		.loc 2 15 38 is_stmt 0
 317 01ac 83C78402 		lbu	a5,40(s1)
 318              	.LVL18:
 319              	.LBE7:
 320              	.LBE6:
  45:src/TCB.cpp   ****     running = Scheduler::get();
 321              		.loc 1 45 5
 322 01b0 638C0702 		beqz	a5,.L27
 323              	.L25:
  46:src/TCB.cpp   **** 
 324              		.loc 1 46 5 is_stmt 1
  46:src/TCB.cpp   **** 
 325              		.loc 1 46 29 is_stmt 0
 326 01b4 97000000 		call	_ZN9Scheduler3getEv@plt
 326      E7800000 
 327              	.LVL19:
  46:src/TCB.cpp   **** 
 328              		.loc 1 46 13
 329 01bc 97070000 		sd	a0,.LANCHOR0+8,a5
 329      23B0A700 
  48:src/TCB.cpp   **** }
 330              		.loc 1 48 5 is_stmt 1
  48:src/TCB.cpp   **** }
 331              		.loc 1 48 23 is_stmt 0
 332 01c4 93050501 		addi	a1,a0,16
 333 01c8 13850401 		addi	a0,s1,16
 334 01cc 97000000 		call	_ZN3TCB13contextSwitchEPNS_7ContextES1_@plt
 334      E7800000 
 335              	.LVL20:
  49:src/TCB.cpp   **** 
 336              		.loc 1 49 1
 337 01d4 83308101 		ld	ra,24(sp)
 338              		.cfi_remember_state
 339              		.cfi_restore 1
 340 01d8 03340101 		ld	s0,16(sp)
 341              		.cfi_restore 8
GAS LISTING /tmp/ccgvho9W.s 			page 9


 342              		.cfi_def_cfa 2, 32
 343 01dc 83348100 		ld	s1,8(sp)
 344              		.cfi_restore 9
 345              	.LVL21:
 346 01e0 13010102 		addi	sp,sp,32
 347              		.cfi_def_cfa_offset 0
 348 01e4 67800000 		jr	ra
 349              	.LVL22:
 350              	.L27:
 351              		.cfi_restore_state
  45:src/TCB.cpp   ****     running = Scheduler::get();
 352              		.loc 1 45 30 is_stmt 1 discriminator 1
  45:src/TCB.cpp   ****     running = Scheduler::get();
 353              		.loc 1 45 44 is_stmt 0 discriminator 1
 354 01e8 13850400 		mv	a0,s1
 355 01ec 97000000 		call	_ZN9Scheduler3putEP3TCB@plt
 355      E7800000 
 356              	.LVL23:
 357 01f4 6FF01FFC 		j	.L25
 358              		.cfi_endproc
 359              	.LFE26:
 361              		.globl	_ZN3TCB8globalIdE
 362              		.globl	_ZN3TCB16timeSliceCounterE
 363              		.globl	_ZN3TCB7runningE
 364              		.bss
 365              		.align	3
 366              		.set	.LANCHOR0,. + 0
 369              	_ZN3TCB8globalIdE:
 370 0000 00000000 		.zero	8
 370      00000000 
 373              	_ZN3TCB7runningE:
 374 0008 00000000 		.zero	8
 374      00000000 
 377              	_ZN3TCB16timeSliceCounterE:
 378 0010 00000000 		.zero	8
 378      00000000 
 379              		.text
 380              	.Letext0:
 381              		.file 3 "src/../h/../lib/hw.h"
 382              		.file 4 "src/../h/Scheduler.hpp"
 2456              		.align	3
 2459              	DW.ref.__gxx_personality_v0:
 2460 0000 00000000 		.dword	__gxx_personality_v0
 2460      00000000 
 2461              		.ident	"GCC: (Ubuntu 9.4.0-1ubuntu1~20.04) 9.4.0"
 2462              		.section	.note.GNU-stack,"",@progbits
GAS LISTING /tmp/ccgvho9W.s 			page 10

