GAS LISTING /tmp/ccmLUuaU.s 			page 1


   1              		.file	"Scheduler.cpp"
   2              		.option pic
   3              		.option norelax
   4              		.text
   5              	.Ltext0:
   6              		.align	2
   8              	_Z41__static_initialization_and_destruction_0ii:
   9              	.LFB22:
  10              		.file 1 "h/Scheduler.cpp"
   1:h/Scheduler.cpp **** //
   2:h/Scheduler.cpp **** // Created by os on 6/20/22.
   3:h/Scheduler.cpp **** //
   4:h/Scheduler.cpp **** 
   5:h/Scheduler.cpp **** #include "Scheduler.hpp"
   6:h/Scheduler.cpp **** 
   7:h/Scheduler.cpp **** List<TCB> Scheduler::readyThreadQueue;
   8:h/Scheduler.cpp **** 
   9:h/Scheduler.cpp **** TCB* Scheduler::get() {
  10:h/Scheduler.cpp ****     return readyThreadQueue.removeFirst();
  11:h/Scheduler.cpp **** }
  12:h/Scheduler.cpp **** 
  13:h/Scheduler.cpp **** void Scheduler::put(TCB *tcb)
  14:h/Scheduler.cpp **** {
  15:h/Scheduler.cpp ****     readyThreadQueue.addLast(tcb);
  16:h/Scheduler.cpp **** }
  11              		.loc 1 16 1
  12              		.cfi_startproc
  13              	.LVL0:
  14 0000 130101FF 		addi	sp,sp,-16
  15              		.cfi_def_cfa_offset 16
  16 0004 23348100 		sd	s0,8(sp)
  17              		.cfi_offset 8, -8
  18 0008 13040101 		addi	s0,sp,16
  19              		.cfi_def_cfa 8, 0
  20              		.loc 1 16 1 is_stmt 0
  21 000c 93071000 		li	a5,1
  22 0010 6308F500 		beq	a0,a5,.L4
  23              	.L1:
  24 0014 03348100 		ld	s0,8(sp)
  25              		.cfi_remember_state
  26              		.cfi_restore 8
  27              		.cfi_def_cfa 2, 16
  28 0018 13010101 		addi	sp,sp,16
  29              		.cfi_def_cfa_offset 0
  30 001c 67800000 		jr	ra
  31              	.L4:
  32              		.cfi_restore_state
  33              		.loc 1 16 1 discriminator 1
  34 0020 B7070100 		li	a5,65536
  35 0024 9387F7FF 		addi	a5,a5,-1
  36 0028 E396F5FE 		bne	a1,a5,.L1
  37              	.LVL1:
  38              	.LBB15:
  39              	.LBB16:
  40              	.LBB17:
  41              		.file 2 "h/List.hpp"
   1:h/List.hpp    **** //
GAS LISTING /tmp/ccmLUuaU.s 			page 2


   2:h/List.hpp    **** // Created by os on 6/17/22.
   3:h/List.hpp    **** //
   4:h/List.hpp    **** 
   5:h/List.hpp    **** #ifndef PROJECT_BASE_V1_1_LIST_HPP
   6:h/List.hpp    **** #define PROJECT_BASE_V1_1_LIST_HPP
   7:h/List.hpp    **** 
   8:h/List.hpp    **** template<typename T>
   9:h/List.hpp    **** class List
  10:h/List.hpp    **** {
  11:h/List.hpp    **** private:
  12:h/List.hpp    ****     struct Elem
  13:h/List.hpp    ****     {
  14:h/List.hpp    ****         T *data;
  15:h/List.hpp    ****         Elem *next;
  16:h/List.hpp    **** 
  17:h/List.hpp    ****         Elem(T *data, Elem *next) : data(data), next(next) {}
  18:h/List.hpp    ****     };
  19:h/List.hpp    **** 
  20:h/List.hpp    ****     Elem *head, *tail;
  21:h/List.hpp    **** 
  22:h/List.hpp    **** public:
  23:h/List.hpp    ****     List() : head(0), tail(0) {}
  42              		.loc 2 23 29
  43 002c 97070000 		lla	a5,.LANCHOR0
  43      93870700 
  44 0034 23B00700 		sd	zero,0(a5)
  45 0038 23B40700 		sd	zero,8(a5)
  46              	.LVL2:
  47              	.LBE17:
  48              	.LBE16:
  49              	.LBE15:
  50              		.loc 1 16 1
  51 003c 6FF09FFD 		j	.L1
  52              		.cfi_endproc
  53              	.LFE22:
  55              		.align	2
  56              		.globl	_ZN9Scheduler3getEv
  58              	_ZN9Scheduler3getEv:
  59              	.LFB12:
   9:h/Scheduler.cpp ****     return readyThreadQueue.removeFirst();
  60              		.loc 1 9 23 is_stmt 1
  61              		.cfi_startproc
  62 0040 130101FE 		addi	sp,sp,-32
  63              		.cfi_def_cfa_offset 32
  64 0044 233C1100 		sd	ra,24(sp)
  65 0048 23388100 		sd	s0,16(sp)
  66 004c 23349100 		sd	s1,8(sp)
  67              		.cfi_offset 1, -8
  68              		.cfi_offset 8, -16
  69              		.cfi_offset 9, -24
  70 0050 13040102 		addi	s0,sp,32
  71              		.cfi_def_cfa 8, 0
  10:h/Scheduler.cpp **** }
  72              		.loc 1 10 5
  73              	.LVL3:
  74              	.LBB18:
  75              	.LBB19:
GAS LISTING /tmp/ccmLUuaU.s 			page 3


  24:h/List.hpp    **** 
  25:h/List.hpp    ****     List(const List<T> &) = delete;
  26:h/List.hpp    **** 
  27:h/List.hpp    ****     List<T> &operator=(const List<T> &) = delete;
  28:h/List.hpp    **** 
  29:h/List.hpp    ****     void addFirst(T *data)
  30:h/List.hpp    ****     {
  31:h/List.hpp    ****         Elem *elem = new Elem(data, head);
  32:h/List.hpp    ****         head = elem;
  33:h/List.hpp    ****         if (!tail) { tail = head; }
  34:h/List.hpp    ****     }
  35:h/List.hpp    **** 
  36:h/List.hpp    ****     void addLast(T *data)
  37:h/List.hpp    ****     {
  38:h/List.hpp    ****         Elem *elem = new Elem(data, 0);
  39:h/List.hpp    ****         if (tail)
  40:h/List.hpp    ****         {
  41:h/List.hpp    ****             tail->next = elem;
  42:h/List.hpp    ****             tail = elem;
  43:h/List.hpp    ****         } else
  44:h/List.hpp    ****         {
  45:h/List.hpp    ****             head = tail = elem;
  46:h/List.hpp    ****         }
  47:h/List.hpp    ****     }
  48:h/List.hpp    **** 
  49:h/List.hpp    ****     T *removeFirst()
  50:h/List.hpp    ****     {
  51:h/List.hpp    ****         if (!head) { return 0; }
  76              		.loc 2 51 14 is_stmt 0
  77 0054 17050000 		ld	a0,.LANCHOR0
  77      03350500 
  78              		.loc 2 51 9
  79 005c 63020504 		beqz	a0,.L8
  80              	.LVL4:
  52:h/List.hpp    **** 
  53:h/List.hpp    ****         Elem *elem = head;
  54:h/List.hpp    ****         head = head->next;
  81              		.loc 2 54 22
  82 0060 83378500 		ld	a5,8(a0)
  83              		.loc 2 54 9
  84 0064 17070000 		sd	a5,.LANCHOR0,a4
  84      2330F700 
  55:h/List.hpp    ****         if (!head) { tail = 0; }
  85              		.loc 2 55 9
  86 006c 63840702 		beqz	a5,.L10
  87              	.L7:
  56:h/List.hpp    **** 
  57:h/List.hpp    ****         T *ret = elem->data;
  88              		.loc 2 57 12
  89 0070 83340500 		ld	s1,0(a0)
  90              	.LVL5:
  58:h/List.hpp    ****         delete elem;
  91              		.loc 2 58 9
  92 0074 97000000 		call	_ZdlPv@plt
  92      E7800000 
  93              	.LVL6:
  94              	.L5:
GAS LISTING /tmp/ccmLUuaU.s 			page 4


  95              	.LBE19:
  96              	.LBE18:
  11:h/Scheduler.cpp **** 
  97              		.loc 1 11 1
  98 007c 13850400 		mv	a0,s1
  99 0080 83308101 		ld	ra,24(sp)
 100              		.cfi_remember_state
 101              		.cfi_restore 1
 102 0084 03340101 		ld	s0,16(sp)
 103              		.cfi_restore 8
 104              		.cfi_def_cfa 2, 32
 105 0088 83348100 		ld	s1,8(sp)
 106              		.cfi_restore 9
 107 008c 13010102 		addi	sp,sp,32
 108              		.cfi_def_cfa_offset 0
 109 0090 67800000 		jr	ra
 110              	.LVL7:
 111              	.L10:
 112              		.cfi_restore_state
 113              	.LBB21:
 114              	.LBB20:
  55:h/List.hpp    **** 
 115              		.loc 2 55 22
 116 0094 97070000 		sd	zero,.LANCHOR0+8,a5
 116      23B00700 
 117 009c 6FF05FFD 		j	.L7
 118              	.LVL8:
 119              	.L8:
  51:h/List.hpp    **** 
 120              		.loc 2 51 29
 121 00a0 93040500 		mv	s1,a0
 122              	.LVL9:
 123              	.LBE20:
 124              	.LBE21:
  10:h/Scheduler.cpp **** }
 125              		.loc 1 10 41
 126 00a4 6FF09FFD 		j	.L5
 127              		.cfi_endproc
 128              	.LFE12:
 130              		.align	2
 131              		.globl	_ZN9Scheduler3putEP3TCB
 133              	_ZN9Scheduler3putEP3TCB:
 134              	.LFB13:
  14:h/Scheduler.cpp ****     readyThreadQueue.addLast(tcb);
 135              		.loc 1 14 1 is_stmt 1
 136              		.cfi_startproc
 137              	.LVL10:
 138 00a8 130101FE 		addi	sp,sp,-32
 139              		.cfi_def_cfa_offset 32
 140 00ac 233C1100 		sd	ra,24(sp)
 141 00b0 23388100 		sd	s0,16(sp)
 142 00b4 23349100 		sd	s1,8(sp)
 143              		.cfi_offset 1, -8
 144              		.cfi_offset 8, -16
 145              		.cfi_offset 9, -24
 146 00b8 13040102 		addi	s0,sp,32
 147              		.cfi_def_cfa 8, 0
GAS LISTING /tmp/ccmLUuaU.s 			page 5


 148 00bc 93040500 		mv	s1,a0
  15:h/Scheduler.cpp **** }
 149              		.loc 1 15 5
 150              	.LVL11:
 151              	.LBB22:
 152              	.LBB23:
  38:h/List.hpp    ****         if (tail)
 153              		.loc 2 38 22 is_stmt 0
 154 00c0 13050001 		li	a0,16
 155              	.LVL12:
 156 00c4 97000000 		call	_Znwm@plt
 156      E7800000 
 157              	.LVL13:
 158              	.LBB24:
 159              	.LBB25:
  17:h/List.hpp    ****     };
 160              		.loc 2 17 58
 161 00cc 23309500 		sd	s1,0(a0)
 162 00d0 23340500 		sd	zero,8(a0)
 163              	.LVL14:
 164              	.LBE25:
 165              	.LBE24:
  39:h/List.hpp    ****         {
 166              		.loc 2 39 13
 167 00d4 97070000 		ld	a5,.LANCHOR0+8
 167      83B70700 
  39:h/List.hpp    ****         {
 168              		.loc 2 39 9
 169 00dc 63820702 		beqz	a5,.L12
  41:h/List.hpp    ****             tail = elem;
 170              		.loc 2 41 13
 171 00e0 23B4A700 		sd	a0,8(a5)
  42:h/List.hpp    ****         } else
 172              		.loc 2 42 13
 173 00e4 97070000 		sd	a0,.LANCHOR0+8,a5
 173      23B0A700 
 174              	.LVL15:
 175              	.L11:
 176              	.LBE23:
 177              	.LBE22:
 178              		.loc 1 16 1
 179 00ec 83308101 		ld	ra,24(sp)
 180              		.cfi_remember_state
 181              		.cfi_restore 1
 182 00f0 03340101 		ld	s0,16(sp)
 183              		.cfi_restore 8
 184              		.cfi_def_cfa 2, 32
 185 00f4 83348100 		ld	s1,8(sp)
 186              		.cfi_restore 9
 187              	.LVL16:
 188 00f8 13010102 		addi	sp,sp,32
 189              		.cfi_def_cfa_offset 0
 190 00fc 67800000 		jr	ra
 191              	.LVL17:
 192              	.L12:
 193              		.cfi_restore_state
 194              	.LBB27:
GAS LISTING /tmp/ccmLUuaU.s 			page 6


 195              	.LBB26:
  45:h/List.hpp    ****         }
 196              		.loc 2 45 13
 197 0100 97070000 		lla	a5,.LANCHOR0
 197      93870700 
 198 0108 23B4A700 		sd	a0,8(a5)
 199 010c 23B0A700 		sd	a0,0(a5)
 200              	.LVL18:
 201              	.LBE26:
 202              	.LBE27:
 203              		.loc 1 16 1
 204 0110 6FF0DFFD 		j	.L11
 205              		.cfi_endproc
 206              	.LFE13:
 208              		.align	2
 210              	_GLOBAL__sub_I__ZN9Scheduler16readyThreadQueueE:
 211              	.LFB23:
 212              		.loc 1 16 1 is_stmt 1
 213              		.cfi_startproc
 214 0114 130101FF 		addi	sp,sp,-16
 215              		.cfi_def_cfa_offset 16
 216 0118 23341100 		sd	ra,8(sp)
 217 011c 23308100 		sd	s0,0(sp)
 218              		.cfi_offset 1, -8
 219              		.cfi_offset 8, -16
 220 0120 13040101 		addi	s0,sp,16
 221              		.cfi_def_cfa 8, 0
 222              		.loc 1 16 1 is_stmt 0
 223 0124 B7050100 		li	a1,65536
 224 0128 9385F5FF 		addi	a1,a1,-1
 225 012c 13051000 		li	a0,1
 226 0130 97000000 		call	_Z41__static_initialization_and_destruction_0ii
 226      E7800000 
 227              	.LVL19:
 228 0138 83308100 		ld	ra,8(sp)
 229              		.cfi_restore 1
 230 013c 03340100 		ld	s0,0(sp)
 231              		.cfi_restore 8
 232              		.cfi_def_cfa 2, 16
 233 0140 13010101 		addi	sp,sp,16
 234              		.cfi_def_cfa_offset 0
 235 0144 67800000 		jr	ra
 236              		.cfi_endproc
 237              	.LFE23:
 239              		.section	.init_array,"aw"
 240              		.align	3
 241 0000 00000000 		.dword	_GLOBAL__sub_I__ZN9Scheduler16readyThreadQueueE
 241      00000000 
 242              		.globl	_ZN9Scheduler16readyThreadQueueE
 243              		.bss
 244              		.align	3
 245              		.set	.LANCHOR0,. + 0
 248              	_ZN9Scheduler16readyThreadQueueE:
 249 0000 00000000 		.zero	16
 249      00000000 
 249      00000000 
 249      00000000 
GAS LISTING /tmp/ccmLUuaU.s 			page 7


 250              		.text
 251              	.Letext0:
 252              		.file 3 "h/Scheduler.hpp"
GAS LISTING /tmp/ccmLUuaU.s 			page 8

